
bubblesort:     file format elf32-littlearm


Disassembly of section .text:

00008150 <_start>:
    8150:	e3a0b000 	mov	fp, #0
    8154:	e3a0e000 	mov	lr, #0
    8158:	e49d1004 	pop	{r1}		; (ldr r1, [sp], #4)
    815c:	e1a0200d 	mov	r2, sp
    8160:	e52d2004 	push	{r2}		; (str r2, [sp, #-4]!)
    8164:	e52d0004 	push	{r0}		; (str r0, [sp, #-4]!)
    8168:	e59fc010 	ldr	ip, [pc, #16]	; 8180 <_start+0x30>
    816c:	e52dc004 	push	{ip}		; (str ip, [sp, #-4]!)
    8170:	e59f000c 	ldr	r0, [pc, #12]	; 8184 <_start+0x34>
    8174:	e59f300c 	ldr	r3, [pc, #12]	; 8188 <_start+0x38>
    8178:	eb000077 	bl	835c <__libc_start_main>
    817c:	eb00026e 	bl	8b3c <abort>
    8180:	00008ab4 	.word	0x00008ab4
    8184:	00008265 	.word	0x00008265
    8188:	00008a1c 	.word	0x00008a1c

0000818c <call_gmon_start>:
    818c:	e59f3014 	ldr	r3, [pc, #20]	; 81a8 <call_gmon_start+0x1c>
    8190:	e59f2014 	ldr	r2, [pc, #20]	; 81ac <call_gmon_start+0x20>
    8194:	e08f3003 	add	r3, pc, r3
    8198:	e7932002 	ldr	r2, [r3, r2]
    819c:	e3520000 	cmp	r2, #0
    81a0:	012fff1e 	bxeq	lr
    81a4:	e320f000 	nop	{0}
    81a8:	0007b790 	.word	0x0007b790
    81ac:	0000006c 	.word	0x0000006c

000081b0 <__do_global_dtors_aux>:
    81b0:	f244 03a0 	movw	r3, #16544	; 0x40a0
    81b4:	f2c0 0308 	movt	r3, #8
    81b8:	781a      	ldrb	r2, [r3, #0]
    81ba:	b90a      	cbnz	r2, 81c0 <__do_global_dtors_aux+0x10>
    81bc:	2001      	movs	r0, #1
    81be:	7018      	strb	r0, [r3, #0]
    81c0:	4770      	bx	lr
    81c2:	bf00      	nop

000081c4 <frame_dummy>:
    81c4:	f643 00f8 	movw	r0, #14584	; 0x38f8
    81c8:	f2c0 0008 	movt	r0, #8
    81cc:	b508      	push	{r3, lr}
    81ce:	6803      	ldr	r3, [r0, #0]
    81d0:	b12b      	cbz	r3, 81de <frame_dummy+0x1a>
    81d2:	f240 0300 	movw	r3, #0
    81d6:	f2c0 0300 	movt	r3, #0
    81da:	b103      	cbz	r3, 81de <frame_dummy+0x1a>
    81dc:	4798      	blx	r3
    81de:	bd08      	pop	{r3, pc}

000081e0 <swapIfLarger>:
    81e0:	6803      	ldr	r3, [r0, #0]
    81e2:	680a      	ldr	r2, [r1, #0]
    81e4:	4293      	cmp	r3, r2
    81e6:	bfc4      	itt	gt
    81e8:	6002      	strgt	r2, [r0, #0]
    81ea:	600b      	strgt	r3, [r1, #0]
    81ec:	4770      	bx	lr
    81ee:	bf00      	nop

000081f0 <bubblesort>:
    81f0:	3801      	subs	r0, #1
    81f2:	2800      	cmp	r0, #0
    81f4:	b430      	push	{r4, r5}
    81f6:	bfc8      	it	gt
    81f8:	4684      	movgt	ip, r0
    81fa:	dd30      	ble.n	825e <bubblesort+0x6e>
    81fc:	f1bc 0f00 	cmp.w	ip, #0
    8200:	dd2a      	ble.n	8258 <bubblesort+0x68>
    8202:	680b      	ldr	r3, [r1, #0]
    8204:	f10c 30ff 	add.w	r0, ip, #4294967295
    8208:	684a      	ldr	r2, [r1, #4]
    820a:	f000 0001 	and.w	r0, r0, #1
    820e:	4293      	cmp	r3, r2
    8210:	dd01      	ble.n	8216 <bubblesort+0x26>
    8212:	600a      	str	r2, [r1, #0]
    8214:	604b      	str	r3, [r1, #4]
    8216:	2201      	movs	r2, #1
    8218:	1d0b      	adds	r3, r1, #4
    821a:	4594      	cmp	ip, r2
    821c:	d01c      	beq.n	8258 <bubblesort+0x68>
    821e:	b148      	cbz	r0, 8234 <bubblesort+0x44>
    8220:	685c      	ldr	r4, [r3, #4]
    8222:	6848      	ldr	r0, [r1, #4]
    8224:	42a0      	cmp	r0, r4
    8226:	bfc4      	itt	gt
    8228:	604c      	strgt	r4, [r1, #4]
    822a:	6058      	strgt	r0, [r3, #4]
    822c:	3201      	adds	r2, #1
    822e:	3304      	adds	r3, #4
    8230:	4594      	cmp	ip, r2
    8232:	d011      	beq.n	8258 <bubblesort+0x68>
    8234:	681d      	ldr	r5, [r3, #0]
    8236:	1d18      	adds	r0, r3, #4
    8238:	685c      	ldr	r4, [r3, #4]
    823a:	3201      	adds	r2, #1
    823c:	42a5      	cmp	r5, r4
    823e:	bfc4      	itt	gt
    8240:	605d      	strgt	r5, [r3, #4]
    8242:	601c      	strgt	r4, [r3, #0]
    8244:	685c      	ldr	r4, [r3, #4]
    8246:	6845      	ldr	r5, [r0, #4]
    8248:	42ac      	cmp	r4, r5
    824a:	dd01      	ble.n	8250 <bubblesort+0x60>
    824c:	605d      	str	r5, [r3, #4]
    824e:	6044      	str	r4, [r0, #4]
    8250:	3201      	adds	r2, #1
    8252:	1d03      	adds	r3, r0, #4
    8254:	4594      	cmp	ip, r2
    8256:	d1ed      	bne.n	8234 <bubblesort+0x44>
    8258:	f1bc 0c01 	subs.w	ip, ip, #1
    825c:	d1ce      	bne.n	81fc <bubblesort+0xc>
    825e:	bc30      	pop	{r4, r5}
    8260:	4770      	bx	lr
    8262:	bf00      	nop

00008264 <main>:
    8264:	e92d 45f8 	stmdb	sp!, {r3, r4, r5, r6, r7, r8, sl, lr}
    8268:	1e46      	subs	r6, r0, #1
    826a:	af00      	add	r7, sp, #0
    826c:	00b2      	lsls	r2, r6, #2
    826e:	320e      	adds	r2, #14
    8270:	2801      	cmp	r0, #1
    8272:	f022 0307 	bic.w	r3, r2, #7
    8276:	ebad 0d03 	sub.w	sp, sp, r3
    827a:	466c      	mov	r4, sp
    827c:	d066      	beq.n	834c <main+0xe8>
    827e:	2e00      	cmp	r6, #0
    8280:	dd67      	ble.n	8352 <main+0xee>
    8282:	460d      	mov	r5, r1
    8284:	f04f 0801 	mov.w	r8, #1
    8288:	f855 0f04 	ldr.w	r0, [r5, #4]!
    828c:	f106 3aff 	add.w	sl, r6, #4294967295
    8290:	f000 ec4e 	blx	8b30 <atoi>
    8294:	4546      	cmp	r6, r8
    8296:	f00a 0a01 	and.w	sl, sl, #1
    829a:	6020      	str	r0, [r4, #0]
    829c:	dd1d      	ble.n	82da <main+0x76>
    829e:	f1ba 0f00 	cmp.w	sl, #0
    82a2:	d008      	beq.n	82b6 <main+0x52>
    82a4:	f855 0f04 	ldr.w	r0, [r5, #4]!
    82a8:	f04f 0802 	mov.w	r8, #2
    82ac:	f000 ec40 	blx	8b30 <atoi>
    82b0:	4546      	cmp	r6, r8
    82b2:	6060      	str	r0, [r4, #4]
    82b4:	dd11      	ble.n	82da <main+0x76>
    82b6:	f855 0f04 	ldr.w	r0, [r5, #4]!
    82ba:	f108 0a01 	add.w	sl, r8, #1
    82be:	f000 ec38 	blx	8b30 <atoi>
    82c2:	f844 0028 	str.w	r0, [r4, r8, lsl #2]
    82c6:	f10a 0801 	add.w	r8, sl, #1
    82ca:	f855 0f04 	ldr.w	r0, [r5, #4]!
    82ce:	f000 ec30 	blx	8b30 <atoi>
    82d2:	4546      	cmp	r6, r8
    82d4:	f844 002a 	str.w	r0, [r4, sl, lsl #2]
    82d8:	dced      	bgt.n	82b6 <main+0x52>
    82da:	4630      	mov	r0, r6
    82dc:	4621      	mov	r1, r4
    82de:	f7ff ff87 	bl	81f0 <bubblesort>
    82e2:	2501      	movs	r5, #1
    82e4:	f645 00f4 	movw	r0, #22772	; 0x58f4
    82e8:	6821      	ldr	r1, [r4, #0]
    82ea:	f2c0 0006 	movt	r0, #6
    82ee:	f106 38ff 	add.w	r8, r6, #4294967295
    82f2:	f001 eb02 	blx	98f8 <_IO_printf>
    82f6:	42ae      	cmp	r6, r5
    82f8:	f008 0801 	and.w	r8, r8, #1
    82fc:	dd22      	ble.n	8344 <main+0xe0>
    82fe:	f1b8 0f00 	cmp.w	r8, #0
    8302:	d009      	beq.n	8318 <main+0xb4>
    8304:	f645 00f4 	movw	r0, #22772	; 0x58f4
    8308:	6861      	ldr	r1, [r4, #4]
    830a:	f2c0 0006 	movt	r0, #6
    830e:	2502      	movs	r5, #2
    8310:	f001 eaf2 	blx	98f8 <_IO_printf>
    8314:	42ae      	cmp	r6, r5
    8316:	dd15      	ble.n	8344 <main+0xe0>
    8318:	f105 0801 	add.w	r8, r5, #1
    831c:	f854 1025 	ldr.w	r1, [r4, r5, lsl #2]
    8320:	f645 00f4 	movw	r0, #22772	; 0x58f4
    8324:	f2c0 0006 	movt	r0, #6
    8328:	f001 eae6 	blx	98f8 <_IO_printf>
    832c:	f108 0501 	add.w	r5, r8, #1
    8330:	f645 00f4 	movw	r0, #22772	; 0x58f4
    8334:	f854 1028 	ldr.w	r1, [r4, r8, lsl #2]
    8338:	f2c0 0006 	movt	r0, #6
    833c:	f001 eadc 	blx	98f8 <_IO_printf>
    8340:	42ae      	cmp	r6, r5
    8342:	dce9      	bgt.n	8318 <main+0xb4>
    8344:	200a      	movs	r0, #10
    8346:	f001 eaf6 	blx	9934 <putchar>
    834a:	2000      	movs	r0, #0
    834c:	46bd      	mov	sp, r7
    834e:	e8bd 85f8 	ldmia.w	sp!, {r3, r4, r5, r6, r7, r8, sl, pc}
    8352:	4630      	mov	r0, r6
    8354:	4669      	mov	r1, sp
    8356:	f7ff ff4b 	bl	81f0 <bubblesort>
    835a:	e7f3      	b.n	8344 <main+0xe0>

0000835c <__libc_start_main>:
    835c:	e92d45f0 	push	{r4, r5, r6, r7, r8, sl, lr}
    8360:	e59fc278 	ldr	ip, [pc, #632]	; 85e0 <__libc_start_main+0x284>
    8364:	e24ddf4d 	sub	sp, sp, #308	; 0x134
    8368:	e35c0000 	cmp	ip, #0
    836c:	e58d000c 	str	r0, [sp, #12]
    8370:	e98d0006 	stmib	sp, {r1, r2}
    8374:	e1a05003 	mov	r5, r3
    8378:	e59d6150 	ldr	r6, [sp, #336]	; 0x150
    837c:	e59d4154 	ldr	r4, [sp, #340]	; 0x154
    8380:	0a000002 	beq	8390 <__libc_start_main+0x34>
    8384:	e59cc000 	ldr	ip, [ip]
    8388:	e27cc001 	rsbs	ip, ip, #1
    838c:	33a0c000 	movcc	ip, #0
    8390:	e99d000a 	ldmib	sp, {r1, r3}
    8394:	e2810001 	add	r0, r1, #1
    8398:	e0830100 	add	r0, r3, r0, lsl #2
    839c:	e59f3240 	ldr	r3, [pc, #576]	; 85e4 <__libc_start_main+0x288>
    83a0:	e59d2158 	ldr	r2, [sp, #344]	; 0x158
    83a4:	e583c000 	str	ip, [r3]
    83a8:	e59f3238 	ldr	r3, [pc, #568]	; 85e8 <__libc_start_main+0x28c>
    83ac:	e5830000 	str	r0, [r3]
    83b0:	e59f3234 	ldr	r3, [pc, #564]	; 85ec <__libc_start_main+0x290>
    83b4:	e5832000 	str	r2, [r3]
    83b8:	e4903004 	ldr	r3, [r0], #4
    83bc:	e3530000 	cmp	r3, #0
    83c0:	1afffffc 	bne	83b8 <__libc_start_main+0x5c>
    83c4:	eb003553 	bl	15918 <_dl_aux_init>
    83c8:	e59f3214 	ldr	r3, [pc, #532]	; 85e4 <__libc_start_main+0x288>
    83cc:	e5933000 	ldr	r3, [r3]
    83d0:	e3530000 	cmp	r3, #0
    83d4:	1a00000b 	bne	8408 <__libc_start_main+0xac>
    83d8:	eb0037ed 	bl	16394 <_dl_discover_osversion>
    83dc:	e3500000 	cmp	r0, #0
    83e0:	ba000063 	blt	8574 <__libc_start_main+0x218>
    83e4:	e59f3204 	ldr	r3, [pc, #516]	; 85f0 <__libc_start_main+0x294>
    83e8:	e5933000 	ldr	r3, [r3]
    83ec:	e3530000 	cmp	r3, #0
    83f0:	1a00005c 	bne	8568 <__libc_start_main+0x20c>
    83f4:	e59f31f4 	ldr	r3, [pc, #500]	; 85f0 <__libc_start_main+0x294>
    83f8:	e5830000 	str	r0, [r3]
    83fc:	e59f31f0 	ldr	r3, [pc, #496]	; 85f4 <__libc_start_main+0x298>
    8400:	e1500003 	cmp	r0, r3
    8404:	da00003c 	ble	84fc <__libc_start_main+0x1a0>
    8408:	eb000182 	bl	8a18 <__libc_csu_irel>
    840c:	eb000176 	bl	89ec <__pthread_initialize_minimal>
    8410:	e59f31e0 	ldr	r3, [pc, #480]	; 85f8 <__libc_start_main+0x29c>
    8414:	e28d7e13 	add	r7, sp, #304	; 0x130
    8418:	e5931000 	ldr	r1, [r3]
    841c:	e3a03000 	mov	r3, #0
    8420:	e5273004 	str	r3, [r7, #-4]!
    8424:	e1510003 	cmp	r1, r3
    8428:	e2877001 	add	r7, r7, #1
    842c:	0a000034 	beq	8504 <__libc_start_main+0x1a8>
    8430:	e1a00007 	mov	r0, r7
    8434:	e3a02003 	mov	r2, #3
    8438:	eb002ce0 	bl	137c0 <memcpy>
    843c:	e59d312c 	ldr	r3, [sp, #300]	; 0x12c
    8440:	e59f21b4 	ldr	r2, [pc, #436]	; 85fc <__libc_start_main+0x2a0>
    8444:	e3540000 	cmp	r4, #0
    8448:	e5823000 	str	r3, [r2]
    844c:	0a000003 	beq	8460 <__libc_start_main+0x104>
    8450:	e3a01000 	mov	r1, #0
    8454:	e1a00004 	mov	r0, r4
    8458:	e1a02001 	mov	r2, r1
    845c:	eb00032d 	bl	9118 <__cxa_atexit>
    8460:	e59f3180 	ldr	r3, [pc, #384]	; 85e8 <__libc_start_main+0x28c>
    8464:	e99d0003 	ldmib	sp, {r0, r1}
    8468:	e5932000 	ldr	r2, [r3]
    846c:	eb00380c 	bl	164a4 <__libc_init_first>
    8470:	e3560000 	cmp	r6, #0
    8474:	0a000003 	beq	8488 <__libc_start_main+0x12c>
    8478:	e3a01000 	mov	r1, #0
    847c:	e1a00006 	mov	r0, r6
    8480:	e1a02001 	mov	r2, r1
    8484:	eb000323 	bl	9118 <__cxa_atexit>
    8488:	e59f3170 	ldr	r3, [pc, #368]	; 8600 <__libc_start_main+0x2a4>
    848c:	e5933000 	ldr	r3, [r3]
    8490:	e3530000 	cmp	r3, #0
    8494:	1a00004d 	bne	85d0 <__libc_start_main+0x274>
    8498:	e3550000 	cmp	r5, #0
    849c:	0a000003 	beq	84b0 <__libc_start_main+0x154>
    84a0:	e59f3140 	ldr	r3, [pc, #320]	; 85e8 <__libc_start_main+0x28c>
    84a4:	e99d0003 	ldmib	sp, {r0, r1}
    84a8:	e5932000 	ldr	r2, [r3]
    84ac:	e12fff35 	blx	r5
    84b0:	e28d0010 	add	r0, sp, #16
    84b4:	eb000199 	bl	8b20 <_setjmp>
    84b8:	e3500000 	cmp	r0, #0
    84bc:	1a00002e 	bne	857c <__libc_start_main+0x220>
    84c0:	eb00018a 	bl	8af0 <__aeabi_read_tp>
    84c4:	e2402d13 	sub	r2, r0, #1216	; 0x4c0
    84c8:	e28d1010 	add	r1, sp, #16
    84cc:	e592c080 	ldr	ip, [r2, #128]	; 0x80
    84d0:	e5103444 	ldr	r3, [r0, #-1092]	; 0x444
    84d4:	e5821080 	str	r1, [r2, #128]	; 0x80
    84d8:	e59f2108 	ldr	r2, [pc, #264]	; 85e8 <__libc_start_main+0x28c>
    84dc:	e59d1008 	ldr	r1, [sp, #8]
    84e0:	e5922000 	ldr	r2, [r2]
    84e4:	e58dc118 	str	ip, [sp, #280]	; 0x118
    84e8:	e58d311c 	str	r3, [sp, #284]	; 0x11c
    84ec:	e59d0004 	ldr	r0, [sp, #4]
    84f0:	e59d300c 	ldr	r3, [sp, #12]
    84f4:	e12fff33 	blx	r3
    84f8:	eb00026f 	bl	8ebc <exit>
    84fc:	e59f0100 	ldr	r0, [pc, #256]	; 8604 <__libc_start_main+0x2a8>
    8500:	eb00068f 	bl	9f44 <__libc_fatal>
    8504:	e59f00fc 	ldr	r0, [pc, #252]	; 8608 <__libc_start_main+0x2ac>
    8508:	eb002ef8 	bl	140f0 <__libc_open>
    850c:	e2508000 	subs	r8, r0, #0
    8510:	ba000007 	blt	8534 <__libc_start_main+0x1d8>
    8514:	e1a01007 	mov	r1, r7
    8518:	e3a02003 	mov	r2, #3
    851c:	eb002f3b 	bl	14210 <__libc_read>
    8520:	e1a0a000 	mov	sl, r0
    8524:	e1a00008 	mov	r0, r8
    8528:	eb002f14 	bl	14180 <__libc_close>
    852c:	e35a0003 	cmp	sl, #3
    8530:	0affffc1 	beq	843c <__libc_start_main+0xe0>
    8534:	e3e03000 	mvn	r3, #0
    8538:	e5c73002 	strb	r3, [r7, #2]
    853c:	e283300b 	add	r3, r3, #11
    8540:	e5c73001 	strb	r3, [r7, #1]
    8544:	e59d312c 	ldr	r3, [sp, #300]	; 0x12c
    8548:	e3c772ff 	bic	r7, r7, #-268435441	; 0xf000000f
    854c:	e0237487 	eor	r7, r3, r7, lsl #9
    8550:	eb00016a 	bl	8b00 <__errno_location>
    8554:	e59f30b0 	ldr	r3, [pc, #176]	; 860c <__libc_start_main+0x2b0>
    8558:	e0003003 	and	r3, r0, r3
    855c:	e0273183 	eor	r3, r7, r3, lsl #3
    8560:	e58d312c 	str	r3, [sp, #300]	; 0x12c
    8564:	eaffffb4 	b	843c <__libc_start_main+0xe0>
    8568:	e1530000 	cmp	r3, r0
    856c:	9affffa2 	bls	83fc <__libc_start_main+0xa0>
    8570:	eaffff9f 	b	83f4 <__libc_start_main+0x98>
    8574:	e59f0094 	ldr	r0, [pc, #148]	; 8610 <__libc_start_main+0x2b4>
    8578:	eb000671 	bl	9f44 <__libc_fatal>
    857c:	e320f000 	nop	{0}
    8580:	e59f608c 	ldr	r6, [pc, #140]	; 8614 <__libc_start_main+0x2b8>
    8584:	e5965000 	ldr	r5, [r6]
    8588:	e1a02006 	mov	r2, r6
    858c:	e2451001 	sub	r1, r5, #1
    8590:	e1a04005 	mov	r4, r5
    8594:	e5923000 	ldr	r3, [r2]
    8598:	e1530004 	cmp	r3, r4
    859c:	1a000005 	bne	85b8 <__libc_start_main+0x25c>
    85a0:	e1a00004 	mov	r0, r4
    85a4:	e3e03a0f 	mvn	r3, #61440	; 0xf000
    85a8:	e1a0e00f 	mov	lr, pc
    85ac:	e243f03f 	sub	pc, r3, #63	; 0x3f
    85b0:	3afffff7 	bcc	8594 <__libc_start_main+0x238>
    85b4:	e1a03004 	mov	r3, r4
    85b8:	e1550003 	cmp	r5, r3
    85bc:	1afffff0 	bne	8584 <__libc_start_main+0x228>
    85c0:	e3550001 	cmp	r5, #1
    85c4:	0a000003 	beq	85d8 <__libc_start_main+0x27c>
    85c8:	e3a00000 	mov	r0, #0
    85cc:	eb002ea7 	bl	14070 <__exit_thread>
    85d0:	eb00004d 	bl	870c <__libc_check_standard_fds>
    85d4:	eaffffaf 	b	8498 <__libc_start_main+0x13c>
    85d8:	e3a00000 	mov	r0, #0
    85dc:	eb000236 	bl	8ebc <exit>
    85e0:	00000000 	.word	0x00000000
    85e4:	00083e50 	.word	0x00083e50
    85e8:	00084e30 	.word	0x00084e30
    85ec:	00083904 	.word	0x00083904
    85f0:	00085840 	.word	0x00085840
    85f4:	0002060f 	.word	0x0002060f
    85f8:	00083900 	.word	0x00083900
    85fc:	000838fc 	.word	0x000838fc
    8600:	00083908 	.word	0x00083908
    8604:	000658f8 	.word	0x000658f8
    8608:	00065938 	.word	0x00065938
    860c:	007fff00 	.word	0x007fff00
    8610:	00065910 	.word	0x00065910
    8614:	00000000 	.word	0x00000000

00008618 <check_one_fd>:
    8618:	e92d40f0 	push	{r4, r5, r6, r7, lr}
    861c:	e1a07001 	mov	r7, r1
    8620:	e24dd06c 	sub	sp, sp, #108	; 0x6c
    8624:	e3a01001 	mov	r1, #1
    8628:	e1a04000 	mov	r4, r0
    862c:	eb002f2a 	bl	142dc <__libc_fcntl>
    8630:	e3700001 	cmn	r0, #1
    8634:	0a000001 	beq	8640 <check_one_fd+0x28>
    8638:	e28dd06c 	add	sp, sp, #108	; 0x6c
    863c:	e8bd80f0 	pop	{r4, r5, r6, r7, pc}
    8640:	e59f30ac 	ldr	r3, [pc, #172]	; 86f4 <check_one_fd+0xdc>
    8644:	eb000129 	bl	8af0 <__aeabi_read_tp>
    8648:	e79f3003 	ldr	r3, [pc, r3]
    864c:	e7903003 	ldr	r3, [r0, r3]
    8650:	e3530009 	cmp	r3, #9
    8654:	1afffff7 	bne	8638 <check_one_fd+0x20>
    8658:	e2073003 	and	r3, r7, #3
    865c:	e3530001 	cmp	r3, #1
    8660:	e1a01007 	mov	r1, r7
    8664:	059f508c 	ldreq	r5, [pc, #140]	; 86f8 <check_one_fd+0xe0>
    8668:	03a06000 	moveq	r6, #0
    866c:	059f0088 	ldreq	r0, [pc, #136]	; 86fc <check_one_fd+0xe4>
    8670:	159f0088 	ldrne	r0, [pc, #136]	; 8700 <check_one_fd+0xe8>
    8674:	159f5088 	ldrne	r5, [pc, #136]	; 8704 <check_one_fd+0xec>
    8678:	13a06000 	movne	r6, #0
    867c:	e3a02000 	mov	r2, #0
    8680:	e3a07005 	mov	r7, #5
    8684:	ef000000 	svc	0x00000000
    8688:	e3700a01 	cmn	r0, #4096	; 0x1000
    868c:	8a000011 	bhi	86d8 <check_one_fd+0xc0>
    8690:	e1540000 	cmp	r4, r0
    8694:	1a00000e 	bne	86d4 <check_one_fd+0xbc>
    8698:	e3a00003 	mov	r0, #3
    869c:	e1a01004 	mov	r1, r4
    86a0:	e1a0200d 	mov	r2, sp
    86a4:	eb002e79 	bl	14090 <___fxstat64>
    86a8:	e3500000 	cmp	r0, #0
    86ac:	1a000008 	bne	86d4 <check_one_fd+0xbc>
    86b0:	e59d3010 	ldr	r3, [sp, #16]
    86b4:	e2033a0f 	and	r3, r3, #61440	; 0xf000
    86b8:	e3530a02 	cmp	r3, #8192	; 0x2000
    86bc:	1a000004 	bne	86d4 <check_one_fd+0xbc>
    86c0:	e28d4020 	add	r4, sp, #32
    86c4:	e8940018 	ldm	r4, {r3, r4}
    86c8:	e1540006 	cmp	r4, r6
    86cc:	01530005 	cmpeq	r3, r5
    86d0:	0affffd8 	beq	8638 <check_one_fd+0x20>
    86d4:	eafffffe 	b	86d4 <check_one_fd+0xbc>
    86d8:	e59f3028 	ldr	r3, [pc, #40]	; 8708 <check_one_fd+0xf0>
    86dc:	e2602000 	rsb	r2, r0, #0
    86e0:	e79f3003 	ldr	r3, [pc, r3]
    86e4:	eb000101 	bl	8af0 <__aeabi_read_tp>
    86e8:	e7802003 	str	r2, [r0, r3]
    86ec:	e3e00000 	mvn	r0, #0
    86f0:	eaffffe6 	b	8690 <check_one_fd+0x78>
    86f4:	0007b31c 	.word	0x0007b31c
    86f8:	00000107 	.word	0x00000107
    86fc:	00065948 	.word	0x00065948
    8700:	00065954 	.word	0x00065954
    8704:	00000103 	.word	0x00000103
    8708:	0007b284 	.word	0x0007b284

0000870c <__libc_check_standard_fds>:
    870c:	e92d4010 	push	{r4, lr}
    8710:	e3a00000 	mov	r0, #0
    8714:	e59f101c 	ldr	r1, [pc, #28]	; 8738 <__libc_check_standard_fds+0x2c>
    8718:	ebffffbe 	bl	8618 <check_one_fd>
    871c:	e3a00001 	mov	r0, #1
    8720:	e3a01902 	mov	r1, #32768	; 0x8000
    8724:	ebffffbb 	bl	8618 <check_one_fd>
    8728:	e3a00002 	mov	r0, #2
    872c:	e3a01902 	mov	r1, #32768	; 0x8000
    8730:	e8bd4010 	pop	{r4, lr}
    8734:	eaffffb7 	b	8618 <check_one_fd>
    8738:	00008001 	.word	0x00008001

0000873c <__libc_setup_tls>:
    873c:	e92d4ff0 	push	{r4, r5, r6, r7, r8, r9, sl, fp, lr}
    8740:	e59f31fc 	ldr	r3, [pc, #508]	; 8944 <__libc_setup_tls+0x208>
    8744:	e24dd014 	sub	sp, sp, #20
    8748:	e5933000 	ldr	r3, [r3]
    874c:	e3530000 	cmp	r3, #0
    8750:	0a000040 	beq	8858 <__libc_setup_tls+0x11c>
    8754:	e59f21ec 	ldr	r2, [pc, #492]	; 8948 <__libc_setup_tls+0x20c>
    8758:	e592c000 	ldr	ip, [r2]
    875c:	e083c28c 	add	ip, r3, ip, lsl #5
    8760:	e15c0003 	cmp	ip, r3
    8764:	8a000003 	bhi	8778 <__libc_setup_tls+0x3c>
    8768:	ea000039 	b	8854 <__libc_setup_tls+0x118>
    876c:	e2833020 	add	r3, r3, #32
    8770:	e15c0003 	cmp	ip, r3
    8774:	9a00006a 	bls	8924 <__libc_setup_tls+0x1e8>
    8778:	e5932000 	ldr	r2, [r3]
    877c:	e3520007 	cmp	r2, #7
    8780:	1afffff9 	bne	876c <__libc_setup_tls+0x30>
    8784:	e593401c 	ldr	r4, [r3, #28]
    8788:	e593a014 	ldr	sl, [r3, #20]
    878c:	e1510004 	cmp	r1, r4
    8790:	21a06001 	movcs	r6, r1
    8794:	31a06004 	movcc	r6, r4
    8798:	e5931010 	ldr	r1, [r3, #16]
    879c:	e5933008 	ldr	r3, [r3, #8]
    87a0:	e3540000 	cmp	r4, #0
    87a4:	e58d100c 	str	r1, [sp, #12]
    87a8:	e58d3008 	str	r3, [sp, #8]
    87ac:	0a00002d 	beq	8868 <__libc_setup_tls+0x12c>
    87b0:	e2443001 	sub	r3, r4, #1
    87b4:	e0830000 	add	r0, r3, r0
    87b8:	e1a01004 	mov	r1, r4
    87bc:	fa0168d9 	blx	62b28 <__aeabi_uidiv>
    87c0:	e1a09004 	mov	r9, r4
    87c4:	e59f8180 	ldr	r8, [pc, #384]	; 894c <__libc_setup_tls+0x210>
    87c8:	e0050094 	mul	r5, r4, r0
    87cc:	e5980000 	ldr	r0, [r8]
    87d0:	e59f4178 	ldr	r4, [pc, #376]	; 8950 <__libc_setup_tls+0x214>
    87d4:	e2800d13 	add	r0, r0, #1216	; 0x4c0
    87d8:	e080000a 	add	r0, r0, sl
    87dc:	e0800006 	add	r0, r0, r6
    87e0:	e0800005 	add	r0, r0, r5
    87e4:	eb002ef8 	bl	143cc <__sbrk>
    87e8:	e2463001 	sub	r3, r6, #1
    87ec:	e280bd13 	add	fp, r0, #1216	; 0x4c0
    87f0:	e2662000 	rsb	r2, r6, #0
    87f4:	e083b00b 	add	fp, r3, fp
    87f8:	e00bb002 	and	fp, fp, r2
    87fc:	e08b3005 	add	r3, fp, r5
    8800:	e3a0c001 	mov	ip, #1
    8804:	e3a0e03e 	mov	lr, #62	; 0x3e
    8808:	e5843010 	str	r3, [r4, #16]
    880c:	e584e000 	str	lr, [r4]
    8810:	e5845438 	str	r5, [r4, #1080]	; 0x438
    8814:	e5c4c014 	strb	ip, [r4, #20]
    8818:	e1a00003 	mov	r0, r3
    881c:	e59d1008 	ldr	r1, [sp, #8]
    8820:	e59d200c 	ldr	r2, [sp, #12]
    8824:	e58dc004 	str	ip, [sp, #4]
    8828:	eb002be4 	bl	137c0 <memcpy>
    882c:	e2843008 	add	r3, r4, #8
    8830:	e59f711c 	ldr	r7, [pc, #284]	; 8954 <__libc_setup_tls+0x218>
    8834:	e58b3000 	str	r3, [fp]
    8838:	e1a0000b 	mov	r0, fp
    883c:	ef000000 	svc	0x00000000
    8840:	e3700a01 	cmn	r0, #4096	; 0x1000
    8844:	e59dc004 	ldr	ip, [sp, #4]
    8848:	9a000009 	bls	8874 <__libc_setup_tls+0x138>
    884c:	e59f0104 	ldr	r0, [pc, #260]	; 8958 <__libc_setup_tls+0x21c>
    8850:	eb0005bb 	bl	9f44 <__libc_fatal>
    8854:	e3a03000 	mov	r3, #0
    8858:	e58d3008 	str	r3, [sp, #8]
    885c:	e1a06001 	mov	r6, r1
    8860:	e58d300c 	str	r3, [sp, #12]
    8864:	e1a0a003 	mov	sl, r3
    8868:	e3a09000 	mov	r9, #0
    886c:	e3a04001 	mov	r4, #1
    8870:	eaffffd3 	b	87c4 <__libc_setup_tls+0x88>
    8874:	e5d42394 	ldrb	r2, [r4, #916]	; 0x394
    8878:	e1a03004 	mov	r3, r4
    887c:	e3c22003 	bic	r2, r2, #3
    8880:	e5c42394 	strb	r2, [r4, #916]	; 0x394
    8884:	e3a01040 	mov	r1, #64	; 0x40
    8888:	e5a31450 	str	r1, [r3, #1104]!	; 0x450
    888c:	e59d1008 	ldr	r1, [sp, #8]
    8890:	e2842c02 	add	r2, r4, #512	; 0x200
    8894:	e5841424 	str	r1, [r4, #1060]	; 0x424
    8898:	e59d100c 	ldr	r1, [sp, #12]
    889c:	e3590000 	cmp	r9, #0
    88a0:	e5841428 	str	r1, [r4, #1064]	; 0x428
    88a4:	e59f10b0 	ldr	r1, [pc, #176]	; 895c <__libc_setup_tls+0x220>
    88a8:	e5849430 	str	r9, [r4, #1072]	; 0x430
    88ac:	e581c000 	str	ip, [r1]
    88b0:	e59f10a8 	ldr	r1, [pc, #168]	; 8960 <__libc_setup_tls+0x224>
    88b4:	e584a42c 	str	sl, [r4, #1068]	; 0x42c
    88b8:	e584c43c 	str	ip, [r4, #1084]	; 0x43c
    88bc:	e5813000 	str	r3, [r1]
    88c0:	e5842464 	str	r2, [r4, #1124]	; 0x464
    88c4:	01a0900c 	moveq	r9, ip
    88c8:	0a000004 	beq	88e0 <__libc_setup_tls+0x1a4>
    88cc:	e08a0009 	add	r0, sl, r9
    88d0:	e2400001 	sub	r0, r0, #1
    88d4:	e1a01009 	mov	r1, r9
    88d8:	fa016892 	blx	62b28 <__aeabi_uidiv>
    88dc:	e1a0a000 	mov	sl, r0
    88e0:	e0255a99 	mla	r5, r9, sl, r5
    88e4:	e5983000 	ldr	r3, [r8]
    88e8:	e3560010 	cmp	r6, #16
    88ec:	33a06010 	movcc	r6, #16
    88f0:	e283300f 	add	r3, r3, #15
    88f4:	e0833005 	add	r3, r3, r5
    88f8:	e3c3300f 	bic	r3, r3, #15
    88fc:	e5883000 	str	r3, [r8]
    8900:	e59f305c 	ldr	r3, [pc, #92]	; 8964 <__libc_setup_tls+0x228>
    8904:	e3a02001 	mov	r2, #1
    8908:	e5835000 	str	r5, [r3]
    890c:	e59f3054 	ldr	r3, [pc, #84]	; 8968 <__libc_setup_tls+0x22c>
    8910:	e5836000 	str	r6, [r3]
    8914:	e59f3050 	ldr	r3, [pc, #80]	; 896c <__libc_setup_tls+0x230>
    8918:	e5832000 	str	r2, [r3]
    891c:	e28dd014 	add	sp, sp, #20
    8920:	e8bd8ff0 	pop	{r4, r5, r6, r7, r8, r9, sl, fp, pc}
    8924:	e3a02000 	mov	r2, #0
    8928:	e58d2008 	str	r2, [sp, #8]
    892c:	e1a06001 	mov	r6, r1
    8930:	e58d200c 	str	r2, [sp, #12]
    8934:	e1a0a002 	mov	sl, r2
    8938:	e3a09000 	mov	r9, #0
    893c:	e3a04001 	mov	r4, #1
    8940:	eaffff9f 	b	87c4 <__libc_setup_tls+0x88>
    8944:	0008580c 	.word	0x0008580c
    8948:	00085830 	.word	0x00085830
    894c:	000839a8 	.word	0x000839a8
    8950:	000840a8 	.word	0x000840a8
    8954:	000f0005 	.word	0x000f0005
    8958:	00065960 	.word	0x00065960
    895c:	000857a8 	.word	0x000857a8
    8960:	000857ac 	.word	0x000857ac
    8964:	000857a0 	.word	0x000857a0
    8968:	000857a4 	.word	0x000857a4
    896c:	000857b8 	.word	0x000857b8

00008970 <_dl_tls_setup>:
    8970:	e59f3058 	ldr	r3, [pc, #88]	; 89d0 <_dl_tls_setup+0x60>
    8974:	e52d4004 	push	{r4}		; (str r4, [sp, #-4]!)
    8978:	e3a04040 	mov	r4, #64	; 0x40
    897c:	e5a34450 	str	r4, [r3, #1104]!	; 0x450
    8980:	e59f404c 	ldr	r4, [pc, #76]	; 89d4 <_dl_tls_setup+0x64>
    8984:	e59f104c 	ldr	r1, [pc, #76]	; 89d8 <_dl_tls_setup+0x68>
    8988:	e3a02001 	mov	r2, #1
    898c:	e5842000 	str	r2, [r4]
    8990:	e59f4044 	ldr	r4, [pc, #68]	; 89dc <_dl_tls_setup+0x6c>
    8994:	e591c000 	ldr	ip, [r1]
    8998:	e5843000 	str	r3, [r4]
    899c:	e59f303c 	ldr	r3, [pc, #60]	; 89e0 <_dl_tls_setup+0x70>
    89a0:	e3a00000 	mov	r0, #0
    89a4:	e28cc00f 	add	ip, ip, #15
    89a8:	e5830000 	str	r0, [r3]
    89ac:	e3ccc00f 	bic	ip, ip, #15
    89b0:	e59f302c 	ldr	r3, [pc, #44]	; 89e4 <_dl_tls_setup+0x74>
    89b4:	e581c000 	str	ip, [r1]
    89b8:	e3a01010 	mov	r1, #16
    89bc:	e5831000 	str	r1, [r3]
    89c0:	e59f3020 	ldr	r3, [pc, #32]	; 89e8 <_dl_tls_setup+0x78>
    89c4:	e5832000 	str	r2, [r3]
    89c8:	e8bd0010 	pop	{r4}
    89cc:	e12fff1e 	bx	lr
    89d0:	000840a8 	.word	0x000840a8
    89d4:	000857a8 	.word	0x000857a8
    89d8:	000839a8 	.word	0x000839a8
    89dc:	000857ac 	.word	0x000857ac
    89e0:	000857a0 	.word	0x000857a0
    89e4:	000857a4 	.word	0x000857a4
    89e8:	000857b8 	.word	0x000857b8

000089ec <__pthread_initialize_minimal>:
    89ec:	e3a00008 	mov	r0, #8
    89f0:	e3a01010 	mov	r1, #16
    89f4:	eaffff50 	b	873c <__libc_setup_tls>

000089f8 <__tls_get_addr>:
    89f8:	e52de004 	push	{lr}		; (str lr, [sp, #-4]!)
    89fc:	e1a03000 	mov	r3, r0
    8a00:	eb00003a 	bl	8af0 <__aeabi_read_tp>
    8a04:	e5902000 	ldr	r2, [r0]
    8a08:	e5933004 	ldr	r3, [r3, #4]
    8a0c:	e5920008 	ldr	r0, [r2, #8]
    8a10:	e0800003 	add	r0, r0, r3
    8a14:	e49df004 	pop	{pc}		; (ldr pc, [sp], #4)

00008a18 <__libc_csu_irel>:
    8a18:	e12fff1e 	bx	lr

00008a1c <__libc_csu_init>:
    8a1c:	e92d45f8 	push	{r3, r4, r5, r6, r7, r8, sl, lr}
    8a20:	e59f807c 	ldr	r8, [pc, #124]	; 8aa4 <__libc_csu_init+0x88>
    8a24:	e59fa07c 	ldr	sl, [pc, #124]	; 8aa8 <__libc_csu_init+0x8c>
    8a28:	e1a05000 	mov	r5, r0
    8a2c:	e068a00a 	rsb	sl, r8, sl
    8a30:	e1b0a14a 	asrs	sl, sl, #2
    8a34:	e1a06001 	mov	r6, r1
    8a38:	e1a07002 	mov	r7, r2
    8a3c:	0a000008 	beq	8a64 <__libc_csu_init+0x48>
    8a40:	e3a04000 	mov	r4, #0
    8a44:	e7983104 	ldr	r3, [r8, r4, lsl #2]
    8a48:	e1a00005 	mov	r0, r5
    8a4c:	e1a01006 	mov	r1, r6
    8a50:	e1a02007 	mov	r2, r7
    8a54:	e2844001 	add	r4, r4, #1
    8a58:	e12fff33 	blx	r3
    8a5c:	e154000a 	cmp	r4, sl
    8a60:	3afffff7 	bcc	8a44 <__libc_csu_init+0x28>
    8a64:	e59f8040 	ldr	r8, [pc, #64]	; 8aac <__libc_csu_init+0x90>
    8a68:	e59fa040 	ldr	sl, [pc, #64]	; 8ab0 <__libc_csu_init+0x94>
    8a6c:	ebfffdb1 	bl	8138 <_init>
    8a70:	e068a00a 	rsb	sl, r8, sl
    8a74:	e1b0a14a 	asrs	sl, sl, #2
    8a78:	08bd85f8 	popeq	{r3, r4, r5, r6, r7, r8, sl, pc}
    8a7c:	e3a04000 	mov	r4, #0
    8a80:	e7983104 	ldr	r3, [r8, r4, lsl #2]
    8a84:	e1a00005 	mov	r0, r5
    8a88:	e1a01006 	mov	r1, r6
    8a8c:	e1a02007 	mov	r2, r7
    8a90:	e2844001 	add	r4, r4, #1
    8a94:	e12fff33 	blx	r3
    8a98:	e154000a 	cmp	r4, sl
    8a9c:	3afffff7 	bcc	8a80 <__libc_csu_init+0x64>
    8aa0:	e8bd85f8 	pop	{r3, r4, r5, r6, r7, r8, sl, pc}
    8aa4:	000838ec 	.word	0x000838ec
    8aa8:	000838ec 	.word	0x000838ec
    8aac:	000838ec 	.word	0x000838ec
    8ab0:	000838f0 	.word	0x000838f0

00008ab4 <__libc_csu_fini>:
    8ab4:	e92d4070 	push	{r4, r5, r6, lr}
    8ab8:	e59f5028 	ldr	r5, [pc, #40]	; 8ae8 <__libc_csu_fini+0x34>
    8abc:	e59f4028 	ldr	r4, [pc, #40]	; 8aec <__libc_csu_fini+0x38>
    8ac0:	e0654004 	rsb	r4, r5, r4
    8ac4:	e1b04144 	asrs	r4, r4, #2
    8ac8:	0a000004 	beq	8ae0 <__libc_csu_fini+0x2c>
    8acc:	e0855104 	add	r5, r5, r4, lsl #2
    8ad0:	e5353004 	ldr	r3, [r5, #-4]!
    8ad4:	e12fff33 	blx	r3
    8ad8:	e2544001 	subs	r4, r4, #1
    8adc:	1afffffb 	bne	8ad0 <__libc_csu_fini+0x1c>
    8ae0:	e8bd4070 	pop	{r4, r5, r6, lr}
    8ae4:	ea01737e 	b	658e4 <_fini>
    8ae8:	000838f0 	.word	0x000838f0
    8aec:	000838f8 	.word	0x000838f8

00008af0 <__aeabi_read_tp>:
    8af0:	e3e00a0f 	mvn	r0, #61440	; 0xf000
    8af4:	e240f01f 	sub	pc, r0, #31
    8af8:	e1a00000 	nop			; (mov r0, r0)
    8afc:	e1a00000 	nop			; (mov r0, r0)

00008b00 <__errno_location>:
    8b00:	e52de004 	push	{lr}		; (str lr, [sp, #-4]!)
    8b04:	e59f300c 	ldr	r3, [pc, #12]	; 8b18 <__errno_location+0x18>
    8b08:	ebfffff8 	bl	8af0 <__aeabi_read_tp>
    8b0c:	e79f3003 	ldr	r3, [pc, r3]
    8b10:	e0800003 	add	r0, r0, r3
    8b14:	e49df004 	pop	{pc}		; (ldr pc, [sp], #4)
    8b18:	0007ae58 	.word	0x0007ae58
    8b1c:	00000000 	.word	0x00000000

00008b20 <_setjmp>:
    8b20:	e3a01000 	mov	r1, #0
    8b24:	ea00495d 	b	1b0a0 <__sigsetjmp>
    8b28:	e1a00000 	nop			; (mov r0, r0)
    8b2c:	e1a00000 	nop			; (mov r0, r0)

00008b30 <atoi>:
    8b30:	e3a01000 	mov	r1, #0
    8b34:	e3a0200a 	mov	r2, #10
    8b38:	ea000186 	b	9158 <strtol>

00008b3c <abort>:
    8b3c:	e92d4080 	push	{r7, lr}
    8b40:	e59f627c 	ldr	r6, [pc, #636]	; 8dc4 <abort+0x288>
    8b44:	ebffffe9 	bl	8af0 <__aeabi_read_tp>
    8b48:	e5963008 	ldr	r3, [r6, #8]
    8b4c:	e2408d13 	sub	r8, r0, #1216	; 0x4c0
    8b50:	e1530008 	cmp	r3, r8
    8b54:	e24dde11 	sub	sp, sp, #272	; 0x110
    8b58:	e1a07000 	mov	r7, r0
    8b5c:	0a00000e 	beq	8b9c <abort+0x60>
    8b60:	e3a01001 	mov	r1, #1
    8b64:	e1a02006 	mov	r2, r6
    8b68:	e3a04000 	mov	r4, #0
    8b6c:	e5923000 	ldr	r3, [r2]
    8b70:	e1530004 	cmp	r3, r4
    8b74:	1a000005 	bne	8b90 <abort+0x54>
    8b78:	e1a00004 	mov	r0, r4
    8b7c:	e3e03a0f 	mvn	r3, #61440	; 0xf000
    8b80:	e1a0e00f 	mov	lr, pc
    8b84:	e243f03f 	sub	pc, r3, #63	; 0x3f
    8b88:	3afffff7 	bcc	8b6c <abort+0x30>
    8b8c:	e1a03004 	mov	r3, r4
    8b90:	e1530004 	cmp	r3, r4
    8b94:	1a000081 	bne	8da0 <abort+0x264>
    8b98:	e5868008 	str	r8, [r6, #8]
    8b9c:	e5963004 	ldr	r3, [r6, #4]
    8ba0:	e596400c 	ldr	r4, [r6, #12]
    8ba4:	e2833001 	add	r3, r3, #1
    8ba8:	e3540000 	cmp	r4, #0
    8bac:	e5863004 	str	r3, [r6, #4]
    8bb0:	0a00006c 	beq	8d68 <abort+0x22c>
    8bb4:	e596300c 	ldr	r3, [r6, #12]
    8bb8:	e3530001 	cmp	r3, #1
    8bbc:	0a00007a 	beq	8dac <abort+0x270>
    8bc0:	e596200c 	ldr	r2, [r6, #12]
    8bc4:	e59f31f8 	ldr	r3, [pc, #504]	; 8dc4 <abort+0x288>
    8bc8:	e3520002 	cmp	r2, #2
    8bcc:	0a00001c 	beq	8c44 <abort+0x108>
    8bd0:	e3520003 	cmp	r2, #3
    8bd4:	0a000053 	beq	8d28 <abort+0x1ec>
    8bd8:	e596300c 	ldr	r3, [r6, #12]
    8bdc:	e3530004 	cmp	r3, #4
    8be0:	0a000012 	beq	8c30 <abort+0xf4>
    8be4:	e596300c 	ldr	r3, [r6, #12]
    8be8:	e3530005 	cmp	r3, #5
    8bec:	0a000009 	beq	8c18 <abort+0xdc>
    8bf0:	e596300c 	ldr	r3, [r6, #12]
    8bf4:	e3530006 	cmp	r3, #6
    8bf8:	0a000002 	beq	8c08 <abort+0xcc>
    8bfc:	e3530007 	cmp	r3, #7
    8c00:	0a000000 	beq	8c08 <abort+0xcc>
    8c04:	eafffffe 	b	8c04 <abort+0xc8>
    8c08:	e3a03008 	mov	r3, #8
    8c0c:	e3a0007f 	mov	r0, #127	; 0x7f
    8c10:	e586300c 	str	r3, [r6, #12]
    8c14:	eb002ced 	bl	13fd0 <_exit>
    8c18:	e59f21a4 	ldr	r2, [pc, #420]	; 8dc4 <abort+0x288>
    8c1c:	e2833001 	add	r3, r3, #1
    8c20:	e1a00003 	mov	r0, r3
    8c24:	e582300c 	str	r3, [r2, #12]
    8c28:	eb00493d 	bl	1b124 <raise>
    8c2c:	eaffffef 	b	8bf0 <abort+0xb4>
    8c30:	e59f318c 	ldr	r3, [pc, #396]	; 8dc4 <abort+0x288>
    8c34:	e3a02005 	mov	r2, #5
    8c38:	e583200c 	str	r2, [r3, #12]
    8c3c:	eb0003b8 	bl	9b24 <__fcloseall>
    8c40:	eaffffe7 	b	8be4 <abort+0xa8>
    8c44:	e5932004 	ldr	r2, [r3, #4]
    8c48:	e3a01000 	mov	r1, #0
    8c4c:	e2422001 	sub	r2, r2, #1
    8c50:	e3520000 	cmp	r2, #0
    8c54:	e583100c 	str	r1, [r3, #12]
    8c58:	e5832004 	str	r2, [r3, #4]
    8c5c:	1a000018 	bne	8cc4 <abort+0x188>
    8c60:	e5832008 	str	r2, [r3, #8]
    8c64:	e5965000 	ldr	r5, [r6]
    8c68:	e3a01000 	mov	r1, #0
    8c6c:	e59f2150 	ldr	r2, [pc, #336]	; 8dc4 <abort+0x288>
    8c70:	e1a04005 	mov	r4, r5
    8c74:	e5923000 	ldr	r3, [r2]
    8c78:	e1530004 	cmp	r3, r4
    8c7c:	1a000005 	bne	8c98 <abort+0x15c>
    8c80:	e1a00004 	mov	r0, r4
    8c84:	e3e03a0f 	mvn	r3, #61440	; 0xf000
    8c88:	e1a0e00f 	mov	lr, pc
    8c8c:	e243f03f 	sub	pc, r3, #63	; 0x3f
    8c90:	3afffff7 	bcc	8c74 <abort+0x138>
    8c94:	e1a03004 	mov	r3, r4
    8c98:	e1550003 	cmp	r5, r3
    8c9c:	1afffff0 	bne	8c64 <abort+0x128>
    8ca0:	e3550001 	cmp	r5, #1
    8ca4:	da000006 	ble	8cc4 <abort+0x188>
    8ca8:	e51714b8 	ldr	r1, [r7, #-1208]	; 0x4b8
    8cac:	e1a00002 	mov	r0, r2
    8cb0:	e3811001 	orr	r1, r1, #1
    8cb4:	e3a02001 	mov	r2, #1
    8cb8:	e3a03000 	mov	r3, #0
    8cbc:	e3a070f0 	mov	r7, #240	; 0xf0
    8cc0:	ef000000 	svc	0x00000000
    8cc4:	e3a00006 	mov	r0, #6
    8cc8:	eb004915 	bl	1b124 <raise>
    8ccc:	e5963008 	ldr	r3, [r6, #8]
    8cd0:	e1580003 	cmp	r8, r3
    8cd4:	0a000010 	beq	8d1c <abort+0x1e0>
    8cd8:	e3a01001 	mov	r1, #1
    8cdc:	e59f20e0 	ldr	r2, [pc, #224]	; 8dc4 <abort+0x288>
    8ce0:	e3a04000 	mov	r4, #0
    8ce4:	e5923000 	ldr	r3, [r2]
    8ce8:	e1530004 	cmp	r3, r4
    8cec:	1a000005 	bne	8d08 <abort+0x1cc>
    8cf0:	e1a00004 	mov	r0, r4
    8cf4:	e3e03a0f 	mvn	r3, #61440	; 0xf000
    8cf8:	e1a0e00f 	mov	lr, pc
    8cfc:	e243f03f 	sub	pc, r3, #63	; 0x3f
    8d00:	3afffff7 	bcc	8ce4 <abort+0x1a8>
    8d04:	e1a03004 	mov	r3, r4
    8d08:	e1530004 	cmp	r3, r4
    8d0c:	0a000001 	beq	8d18 <abort+0x1dc>
    8d10:	e1a00002 	mov	r0, r2
    8d14:	eb0030c5 	bl	15030 <__lll_lock_wait_private>
    8d18:	e5868008 	str	r8, [r6, #8]
    8d1c:	e5963004 	ldr	r3, [r6, #4]
    8d20:	e2833001 	add	r3, r3, #1
    8d24:	e5863004 	str	r3, [r6, #4]
    8d28:	e28d4004 	add	r4, sp, #4
    8d2c:	e3a03004 	mov	r3, #4
    8d30:	e3a01000 	mov	r1, #0
    8d34:	e1a00004 	mov	r0, r4
    8d38:	e3a0208c 	mov	r2, #140	; 0x8c
    8d3c:	e586300c 	str	r3, [r6, #12]
    8d40:	eb002a4e 	bl	13680 <memset>
    8d44:	e2841080 	add	r1, r4, #128	; 0x80
    8d48:	e3e03000 	mvn	r3, #0
    8d4c:	e4013004 	str	r3, [r1], #-4
    8d50:	e1510004 	cmp	r1, r4
    8d54:	1afffffc 	bne	8d4c <abort+0x210>
    8d58:	e3a02000 	mov	r2, #0
    8d5c:	e3a00006 	mov	r0, #6
    8d60:	eb00496e 	bl	1b320 <__sigaction>
    8d64:	eaffff9b 	b	8bd8 <abort+0x9c>
    8d68:	e59f3054 	ldr	r3, [pc, #84]	; 8dc4 <abort+0x288>
    8d6c:	e3a05001 	mov	r5, #1
    8d70:	e1a01004 	mov	r1, r4
    8d74:	e583500c 	str	r5, [r3, #12]
    8d78:	e3a02080 	mov	r2, #128	; 0x80
    8d7c:	e28d0090 	add	r0, sp, #144	; 0x90
    8d80:	eb002a3e 	bl	13680 <memset>
    8d84:	e3a03020 	mov	r3, #32
    8d88:	e1a00005 	mov	r0, r5
    8d8c:	e28d1090 	add	r1, sp, #144	; 0x90
    8d90:	e1a02004 	mov	r2, r4
    8d94:	e58d3090 	str	r3, [sp, #144]	; 0x90
    8d98:	eb00496e 	bl	1b358 <__sigprocmask>
    8d9c:	eaffff84 	b	8bb4 <abort+0x78>
    8da0:	e1a00006 	mov	r0, r6
    8da4:	eb0030a1 	bl	15030 <__lll_lock_wait_private>
    8da8:	eaffff7a 	b	8b98 <abort+0x5c>
    8dac:	e59f3010 	ldr	r3, [pc, #16]	; 8dc4 <abort+0x288>
    8db0:	e3a02002 	mov	r2, #2
    8db4:	e583200c 	str	r2, [r3, #12]
    8db8:	e3a00000 	mov	r0, #0
    8dbc:	eb000906 	bl	b1dc <_IO_flush_all_lockp>
    8dc0:	eaffff7e 	b	8bc0 <abort+0x84>
    8dc4:	00084700 	.word	0x00084700

00008dc8 <__run_exit_handlers>:
    8dc8:	e92d4080 	push	{r7, lr}
    8dcc:	e1a04000 	mov	r4, r0
    8dd0:	e1a05001 	mov	r5, r1
    8dd4:	e1a07002 	mov	r7, r2
    8dd8:	e5956000 	ldr	r6, [r5]
    8ddc:	e3560000 	cmp	r6, #0
    8de0:	0a000014 	beq	8e38 <__run_exit_handlers+0x70>
    8de4:	e5962004 	ldr	r2, [r6, #4]
    8de8:	e0861202 	add	r1, r6, r2, lsl #4
    8dec:	e3520000 	cmp	r2, #0
    8df0:	e2811008 	add	r1, r1, #8
    8df4:	0a00000b 	beq	8e28 <__run_exit_handlers+0x60>
    8df8:	e5113010 	ldr	r3, [r1, #-16]
    8dfc:	e2422001 	sub	r2, r2, #1
    8e00:	e3530003 	cmp	r3, #3
    8e04:	e5862004 	str	r2, [r6, #4]
    8e08:	0a000022 	beq	8e98 <__run_exit_handlers+0xd0>
    8e0c:	e3530004 	cmp	r3, #4
    8e10:	0a00001a 	beq	8e80 <__run_exit_handlers+0xb8>
    8e14:	e3530002 	cmp	r3, #2
    8e18:	0a000012 	beq	8e68 <__run_exit_handlers+0xa0>
    8e1c:	e3520000 	cmp	r2, #0
    8e20:	e2411010 	sub	r1, r1, #16
    8e24:	1afffff3 	bne	8df8 <__run_exit_handlers+0x30>
    8e28:	e5963000 	ldr	r3, [r6]
    8e2c:	e3530000 	cmp	r3, #0
    8e30:	e5853000 	str	r3, [r5]
    8e34:	1a00001b 	bne	8ea8 <__run_exit_handlers+0xe0>
    8e38:	e3570000 	cmp	r7, #0
    8e3c:	0a000007 	beq	8e60 <__run_exit_handlers+0x98>
    8e40:	e59f506c 	ldr	r5, [pc, #108]	; 8eb4 <__run_exit_handlers+0xec>
    8e44:	e59f606c 	ldr	r6, [pc, #108]	; 8eb8 <__run_exit_handlers+0xf0>
    8e48:	e1550006 	cmp	r5, r6
    8e4c:	2a000003 	bcs	8e60 <__run_exit_handlers+0x98>
    8e50:	e4953004 	ldr	r3, [r5], #4
    8e54:	e12fff33 	blx	r3
    8e58:	e1550006 	cmp	r5, r6
    8e5c:	3afffffb 	bcc	8e50 <__run_exit_handlers+0x88>
    8e60:	e1a00004 	mov	r0, r4
    8e64:	eb002c59 	bl	13fd0 <_exit>
    8e68:	e0862202 	add	r2, r6, r2, lsl #4
    8e6c:	e592300c 	ldr	r3, [r2, #12]
    8e70:	e1a00004 	mov	r0, r4
    8e74:	e5921010 	ldr	r1, [r2, #16]
    8e78:	e12fff33 	blx	r3
    8e7c:	eaffffd8 	b	8de4 <__run_exit_handlers+0x1c>
    8e80:	e0862202 	add	r2, r6, r2, lsl #4
    8e84:	e592300c 	ldr	r3, [r2, #12]
    8e88:	e5920010 	ldr	r0, [r2, #16]
    8e8c:	e1a01004 	mov	r1, r4
    8e90:	e12fff33 	blx	r3
    8e94:	eaffffd2 	b	8de4 <__run_exit_handlers+0x1c>
    8e98:	e0862202 	add	r2, r6, r2, lsl #4
    8e9c:	e592300c 	ldr	r3, [r2, #12]
    8ea0:	e12fff33 	blx	r3
    8ea4:	eaffffce 	b	8de4 <__run_exit_handlers+0x1c>
    8ea8:	e1a00006 	mov	r0, r6
    8eac:	eb002111 	bl	112f8 <__cfree>
    8eb0:	eaffffc8 	b	8dd8 <__run_exit_handlers+0x10>
    8eb4:	0007af08 	.word	0x0007af08
    8eb8:	0007af0c 	.word	0x0007af0c

00008ebc <exit>:
    8ebc:	e92d4008 	push	{r3, lr}
    8ec0:	e59f1004 	ldr	r1, [pc, #4]	; 8ecc <exit+0x10>
    8ec4:	e3a02001 	mov	r2, #1
    8ec8:	ebffffbe 	bl	8dc8 <__run_exit_handlers>
    8ecc:	000839ac 	.word	0x000839ac

00008ed0 <__new_exitfn>:
    8ed0:	e92d41f0 	push	{r4, r5, r6, r7, r8, lr}
    8ed4:	e59f61e0 	ldr	r6, [pc, #480]	; 90bc <__new_exitfn+0x1ec>
    8ed8:	e1a05000 	mov	r5, r0
    8edc:	e3a01001 	mov	r1, #1
    8ee0:	e1a02006 	mov	r2, r6
    8ee4:	e3a04000 	mov	r4, #0
    8ee8:	e5923000 	ldr	r3, [r2]
    8eec:	e1530004 	cmp	r3, r4
    8ef0:	1a000005 	bne	8f0c <__new_exitfn+0x3c>
    8ef4:	e1a00004 	mov	r0, r4
    8ef8:	e3e03a0f 	mvn	r3, #61440	; 0xf000
    8efc:	e1a0e00f 	mov	lr, pc
    8f00:	e243f03f 	sub	pc, r3, #63	; 0x3f
    8f04:	3afffff7 	bcc	8ee8 <__new_exitfn+0x18>
    8f08:	e1a03004 	mov	r3, r4
    8f0c:	e1530004 	cmp	r3, r4
    8f10:	1a000066 	bne	90b0 <__new_exitfn+0x1e0>
    8f14:	e5954000 	ldr	r4, [r5]
    8f18:	e3540000 	cmp	r4, #0
    8f1c:	13a00000 	movne	r0, #0
    8f20:	11a0e004 	movne	lr, r4
    8f24:	11a07000 	movne	r7, r0
    8f28:	0a00004f 	beq	906c <__new_exitfn+0x19c>
    8f2c:	e59ec004 	ldr	ip, [lr, #4]
    8f30:	e35c0000 	cmp	ip, #0
    8f34:	0a00000f 	beq	8f78 <__new_exitfn+0xa8>
    8f38:	e24c3001 	sub	r3, ip, #1
    8f3c:	e08e2203 	add	r2, lr, r3, lsl #4
    8f40:	e5922008 	ldr	r2, [r2, #8]
    8f44:	e3520000 	cmp	r2, #0
    8f48:	1a000011 	bne	8f94 <__new_exitfn+0xc4>
    8f4c:	e08e220c 	add	r2, lr, ip, lsl #4
    8f50:	e2822008 	add	r2, r2, #8
    8f54:	ea000004 	b	8f6c <__new_exitfn+0x9c>
    8f58:	e5121020 	ldr	r1, [r2, #-32]
    8f5c:	e2422010 	sub	r2, r2, #16
    8f60:	e3510000 	cmp	r1, #0
    8f64:	1a00000a 	bne	8f94 <__new_exitfn+0xc4>
    8f68:	e2433001 	sub	r3, r3, #1
    8f6c:	e3530000 	cmp	r3, #0
    8f70:	e1a0c003 	mov	ip, r3
    8f74:	1afffff7 	bne	8f58 <__new_exitfn+0x88>
    8f78:	e59e3000 	ldr	r3, [lr]
    8f7c:	e58e7004 	str	r7, [lr, #4]
    8f80:	e3530000 	cmp	r3, #0
    8f84:	0a000035 	beq	9060 <__new_exitfn+0x190>
    8f88:	e1a0000e 	mov	r0, lr
    8f8c:	e1a0e003 	mov	lr, r3
    8f90:	eaffffe5 	b	8f2c <__new_exitfn+0x5c>
    8f94:	e35c0020 	cmp	ip, #32
    8f98:	0a00001f 	beq	901c <__new_exitfn+0x14c>
    8f9c:	e08e820c 	add	r8, lr, ip, lsl #4
    8fa0:	e28cc001 	add	ip, ip, #1
    8fa4:	e2888008 	add	r8, r8, #8
    8fa8:	e58ec004 	str	ip, [lr, #4]
    8fac:	e59f210c 	ldr	r2, [pc, #268]	; 90c0 <__new_exitfn+0x1f0>
    8fb0:	e3a00001 	mov	r0, #1
    8fb4:	e8920018 	ldm	r2, {r3, r4}
    8fb8:	e3a01000 	mov	r1, #0
    8fbc:	e0933000 	adds	r3, r3, r0
    8fc0:	e0a44001 	adc	r4, r4, r1
    8fc4:	e3a01001 	mov	r1, #1
    8fc8:	e5881000 	str	r1, [r8]
    8fcc:	e8820018 	stm	r2, {r3, r4}
    8fd0:	e5965000 	ldr	r5, [r6]
    8fd4:	e3a01000 	mov	r1, #0
    8fd8:	e59f20dc 	ldr	r2, [pc, #220]	; 90bc <__new_exitfn+0x1ec>
    8fdc:	e1a04005 	mov	r4, r5
    8fe0:	e5923000 	ldr	r3, [r2]
    8fe4:	e1530004 	cmp	r3, r4
    8fe8:	1a000005 	bne	9004 <__new_exitfn+0x134>
    8fec:	e1a00004 	mov	r0, r4
    8ff0:	e3e03a0f 	mvn	r3, #61440	; 0xf000
    8ff4:	e1a0e00f 	mov	lr, pc
    8ff8:	e243f03f 	sub	pc, r3, #63	; 0x3f
    8ffc:	3afffff7 	bcc	8fe0 <__new_exitfn+0x110>
    9000:	e1a03004 	mov	r3, r4
    9004:	e1550003 	cmp	r5, r3
    9008:	1afffff0 	bne	8fd0 <__new_exitfn+0x100>
    900c:	e3550001 	cmp	r5, #1
    9010:	ca00001d 	bgt	908c <__new_exitfn+0x1bc>
    9014:	e1a00008 	mov	r0, r8
    9018:	e8bd81f0 	pop	{r4, r5, r6, r7, r8, pc}
    901c:	e3a03000 	mov	r3, #0
    9020:	e3500000 	cmp	r0, #0
    9024:	1a000009 	bne	9050 <__new_exitfn+0x180>
    9028:	e3530000 	cmp	r3, #0
    902c:	1a000011 	bne	9078 <__new_exitfn+0x1a8>
    9030:	e3a00001 	mov	r0, #1
    9034:	e3a01f82 	mov	r1, #520	; 0x208
    9038:	eb00249c 	bl	122b0 <__calloc>
    903c:	e3500000 	cmp	r0, #0
    9040:	01a08000 	moveq	r8, r0
    9044:	0affffe1 	beq	8fd0 <__new_exitfn+0x100>
    9048:	e5804000 	str	r4, [r0]
    904c:	e5850000 	str	r0, [r5]
    9050:	e3a03001 	mov	r3, #1
    9054:	e2808008 	add	r8, r0, #8
    9058:	e5803004 	str	r3, [r0, #4]
    905c:	eaffffd2 	b	8fac <__new_exitfn+0xdc>
    9060:	e1a0000e 	mov	r0, lr
    9064:	e3a03001 	mov	r3, #1
    9068:	eaffffec 	b	9020 <__new_exitfn+0x150>
    906c:	e1a00004 	mov	r0, r4
    9070:	e3a03001 	mov	r3, #1
    9074:	eaffffe9 	b	9020 <__new_exitfn+0x150>
    9078:	e59f0044 	ldr	r0, [pc, #68]	; 90c4 <__new_exitfn+0x1f4>
    907c:	e59f1044 	ldr	r1, [pc, #68]	; 90c8 <__new_exitfn+0x1f8>
    9080:	e3a02064 	mov	r2, #100	; 0x64
    9084:	e59f3040 	ldr	r3, [pc, #64]	; 90cc <__new_exitfn+0x1fc>
    9088:	eb00353c 	bl	16580 <__assert_fail>
    908c:	ebfffe97 	bl	8af0 <__aeabi_read_tp>
    9090:	e51014b8 	ldr	r1, [r0, #-1208]	; 0x4b8
    9094:	e3a03000 	mov	r3, #0
    9098:	e1a00002 	mov	r0, r2
    909c:	e3811001 	orr	r1, r1, #1
    90a0:	e3a02001 	mov	r2, #1
    90a4:	e3a070f0 	mov	r7, #240	; 0xf0
    90a8:	ef000000 	svc	0x00000000
    90ac:	eaffffd8 	b	9014 <__new_exitfn+0x144>
    90b0:	e1a00006 	mov	r0, r6
    90b4:	eb002fdd 	bl	15030 <__lll_lock_wait_private>
    90b8:	eaffff95 	b	8f14 <__new_exitfn+0x44>
    90bc:	00084714 	.word	0x00084714
    90c0:	000857c0 	.word	0x000857c0
    90c4:	00065970 	.word	0x00065970
    90c8:	00065984 	.word	0x00065984
    90cc:	00065994 	.word	0x00065994

000090d0 <__internal_atexit>:
    90d0:	e92d4070 	push	{r4, r5, r6, lr}
    90d4:	e1a04000 	mov	r4, r0
    90d8:	e1a00003 	mov	r0, r3
    90dc:	e1a05001 	mov	r5, r1
    90e0:	e1a06002 	mov	r6, r2
    90e4:	ebffff79 	bl	8ed0 <__new_exitfn>
    90e8:	e3500000 	cmp	r0, #0
    90ec:	0a000007 	beq	9110 <__internal_atexit+0x40>
    90f0:	e9800070 	stmib	r0, {r4, r5, r6}
    90f4:	e3e0ca0f 	mvn	ip, #61440	; 0xf000
    90f8:	e1a0e00f 	mov	lr, pc
    90fc:	e24cf05f 	sub	pc, ip, #95	; 0x5f
    9100:	e3a03004 	mov	r3, #4
    9104:	e5803000 	str	r3, [r0]
    9108:	e3a00000 	mov	r0, #0
    910c:	e8bd8070 	pop	{r4, r5, r6, pc}
    9110:	e3e00000 	mvn	r0, #0
    9114:	e8bd8070 	pop	{r4, r5, r6, pc}

00009118 <__cxa_atexit>:
    9118:	e59f3000 	ldr	r3, [pc, #0]	; 9120 <__cxa_atexit+0x8>
    911c:	eaffffeb 	b	90d0 <__internal_atexit>
    9120:	000839ac 	.word	0x000839ac

00009124 <__strtol_internal>:
    9124:	e92d4030 	push	{r4, r5, lr}
    9128:	e59f4024 	ldr	r4, [pc, #36]	; 9154 <__strtol_internal+0x30>
    912c:	e1a05000 	mov	r5, r0
    9130:	e79f4004 	ldr	r4, [pc, r4]
    9134:	ebfffe6d 	bl	8af0 <__aeabi_read_tp>
    9138:	e7900004 	ldr	r0, [r0, r4]
    913c:	e24dd00c 	sub	sp, sp, #12
    9140:	e58d0000 	str	r0, [sp]
    9144:	e1a00005 	mov	r0, r5
    9148:	eb000010 	bl	9190 <____strtol_l_internal>
    914c:	e28dd00c 	add	sp, sp, #12
    9150:	e8bd8030 	pop	{r4, r5, pc}
    9154:	0007a84c 	.word	0x0007a84c

00009158 <strtol>:
    9158:	e92d4010 	push	{r4, lr}
    915c:	e59f3028 	ldr	r3, [pc, #40]	; 918c <strtol+0x34>
    9160:	e1a04000 	mov	r4, r0
    9164:	e79f3003 	ldr	r3, [pc, r3]
    9168:	ebfffe60 	bl	8af0 <__aeabi_read_tp>
    916c:	e790c003 	ldr	ip, [r0, r3]
    9170:	e24dd008 	sub	sp, sp, #8
    9174:	e3a03000 	mov	r3, #0
    9178:	e1a00004 	mov	r0, r4
    917c:	e58dc000 	str	ip, [sp]
    9180:	eb000002 	bl	9190 <____strtol_l_internal>
    9184:	e28dd008 	add	sp, sp, #8
    9188:	e8bd8010 	pop	{r4, pc}
    918c:	0007a818 	.word	0x0007a818

00009190 <____strtol_l_internal>:
    9190:	e92d4ff0 	push	{r4, r5, r6, r7, r8, r9, sl, fp, lr}
    9194:	e24dd024 	sub	sp, sp, #36	; 0x24
    9198:	e59d5048 	ldr	r5, [sp, #72]	; 0x48
    919c:	e2537000 	subs	r7, r3, #0
    91a0:	e58d000c 	str	r0, [sp, #12]
    91a4:	e58d1010 	str	r1, [sp, #16]
    91a8:	e5953004 	ldr	r3, [r5, #4]
    91ac:	1a0000ea 	bne	955c <____strtol_l_internal+0x3cc>
    91b0:	e58d7004 	str	r7, [sp, #4]
    91b4:	e2421001 	sub	r1, r2, #1
    91b8:	e2713000 	rsbs	r3, r1, #0
    91bc:	e0a33001 	adc	r3, r3, r1
    91c0:	e1933fa2 	orrs	r3, r3, r2, lsr #31
    91c4:	1a00007b 	bne	93b8 <____strtol_l_internal+0x228>
    91c8:	e3520024 	cmp	r2, #36	; 0x24
    91cc:	ca000079 	bgt	93b8 <____strtol_l_internal+0x228>
    91d0:	e59d000c 	ldr	r0, [sp, #12]
    91d4:	e5958034 	ldr	r8, [r5, #52]	; 0x34
    91d8:	e5d01000 	ldrb	r1, [r0]
    91dc:	e1a03081 	lsl	r3, r1, #1
    91e0:	e19830b3 	ldrh	r3, [r8, r3]
    91e4:	e3130a02 	tst	r3, #8192	; 0x2000
    91e8:	058d0008 	streq	r0, [sp, #8]
    91ec:	0a000008 	beq	9214 <____strtol_l_internal+0x84>
    91f0:	e59d100c 	ldr	r1, [sp, #12]
    91f4:	e2813001 	add	r3, r1, #1
    91f8:	e1a0c003 	mov	ip, r3
    91fc:	e4d31001 	ldrb	r1, [r3], #1
    9200:	e1a00081 	lsl	r0, r1, #1
    9204:	e19800b0 	ldrh	r0, [r8, r0]
    9208:	e3100a02 	tst	r0, #8192	; 0x2000
    920c:	1afffff9 	bne	91f8 <____strtol_l_internal+0x68>
    9210:	e58dc008 	str	ip, [sp, #8]
    9214:	e3510000 	cmp	r1, #0
    9218:	0a0000de 	beq	9598 <____strtol_l_internal+0x408>
    921c:	e351002d 	cmp	r1, #45	; 0x2d
    9220:	0a0000ab 	beq	94d4 <____strtol_l_internal+0x344>
    9224:	e351002b 	cmp	r1, #43	; 0x2b
    9228:	059d1008 	ldreq	r1, [sp, #8]
    922c:	03a03000 	moveq	r3, #0
    9230:	02811001 	addeq	r1, r1, #1
    9234:	13a00000 	movne	r0, #0
    9238:	058d1008 	streq	r1, [sp, #8]
    923c:	058d3018 	streq	r3, [sp, #24]
    9240:	158d0018 	strne	r0, [sp, #24]
    9244:	e59d1008 	ldr	r1, [sp, #8]
    9248:	e5d13000 	ldrb	r3, [r1]
    924c:	e3530030 	cmp	r3, #48	; 0x30
    9250:	e1a06003 	mov	r6, r3
    9254:	0a00008e 	beq	9494 <____strtol_l_internal+0x304>
    9258:	e3520000 	cmp	r2, #0
    925c:	0a00007a 	beq	944c <____strtol_l_internal+0x2bc>
    9260:	e352000a 	cmp	r2, #10
    9264:	12420002 	subne	r0, r2, #2
    9268:	0a000077 	beq	944c <____strtol_l_internal+0x2bc>
    926c:	e3a04000 	mov	r4, #0
    9270:	e1a0b004 	mov	fp, r4
    9274:	e59f33d4 	ldr	r3, [pc, #980]	; 9650 <____strtol_l_internal+0x4c0>
    9278:	e3560000 	cmp	r6, #0
    927c:	e0831000 	add	r1, r3, r0
    9280:	e5d1108c 	ldrb	r1, [r1, #140]	; 0x8c
    9284:	e7939100 	ldr	r9, [r3, r0, lsl #2]
    9288:	e58d1014 	str	r1, [sp, #20]
    928c:	0a00005a 	beq	93fc <____strtol_l_internal+0x26c>
    9290:	e59d0008 	ldr	r0, [sp, #8]
    9294:	e15b0000 	cmp	fp, r0
    9298:	0a000058 	beq	9400 <____strtol_l_internal+0x270>
    929c:	e3a01000 	mov	r1, #0
    92a0:	e2443001 	sub	r3, r4, #1
    92a4:	e1a0a000 	mov	sl, r0
    92a8:	e58d1000 	str	r1, [sp]
    92ac:	e1a00001 	mov	r0, r1
    92b0:	e58d301c 	str	r3, [sp, #28]
    92b4:	e2463030 	sub	r3, r6, #48	; 0x30
    92b8:	e20330ff 	and	r3, r3, #255	; 0xff
    92bc:	e3530009 	cmp	r3, #9
    92c0:	9a00001e 	bls	9340 <____strtol_l_internal+0x1b0>
    92c4:	e3540000 	cmp	r4, #0
    92c8:	0a000013 	beq	931c <____strtol_l_internal+0x18c>
    92cc:	e59d3004 	ldr	r3, [sp, #4]
    92d0:	e5d31000 	ldrb	r1, [r3]
    92d4:	e5da3000 	ldrb	r3, [sl]
    92d8:	e1510003 	cmp	r1, r3
    92dc:	1a00000e 	bne	931c <____strtol_l_internal+0x18c>
    92e0:	e59dc004 	ldr	ip, [sp, #4]
    92e4:	e1a0100a 	mov	r1, sl
    92e8:	e3a03000 	mov	r3, #0
    92ec:	e1a08000 	mov	r8, r0
    92f0:	ea000003 	b	9304 <____strtol_l_internal+0x174>
    92f4:	e5fc7001 	ldrb	r7, [ip, #1]!
    92f8:	e5f10001 	ldrb	r0, [r1, #1]!
    92fc:	e1570000 	cmp	r7, r0
    9300:	1a000002 	bne	9310 <____strtol_l_internal+0x180>
    9304:	e2833001 	add	r3, r3, #1
    9308:	e1540003 	cmp	r4, r3
    930c:	8afffff8 	bhi	92f4 <____strtol_l_internal+0x164>
    9310:	e1530004 	cmp	r3, r4
    9314:	e1a00008 	mov	r0, r8
    9318:	0a000052 	beq	9468 <____strtol_l_internal+0x2d8>
    931c:	e5951034 	ldr	r1, [r5, #52]	; 0x34
    9320:	e1a03086 	lsl	r3, r6, #1
    9324:	e19130b3 	ldrh	r3, [r1, r3]
    9328:	e3130b01 	tst	r3, #1024	; 0x400
    932c:	0a00002f 	beq	93f0 <____strtol_l_internal+0x260>
    9330:	e595303c 	ldr	r3, [r5, #60]	; 0x3c
    9334:	e7933106 	ldr	r3, [r3, r6, lsl #2]
    9338:	e2433037 	sub	r3, r3, #55	; 0x37
    933c:	e20330ff 	and	r3, r3, #255	; 0xff
    9340:	e1520003 	cmp	r2, r3
    9344:	da000029 	ble	93f0 <____strtol_l_internal+0x260>
    9348:	e1590000 	cmp	r9, r0
    934c:	33a03001 	movcc	r3, #1
    9350:	358d3000 	strcc	r3, [sp]
    9354:	3a000002 	bcc	9364 <____strtol_l_internal+0x1d4>
    9358:	e1500009 	cmp	r0, r9
    935c:	0a00001b 	beq	93d0 <____strtol_l_internal+0x240>
    9360:	e0203092 	mla	r0, r2, r0, r3
    9364:	e5fa6001 	ldrb	r6, [sl, #1]!
    9368:	e3560000 	cmp	r6, #0
    936c:	0a00001f 	beq	93f0 <____strtol_l_internal+0x260>
    9370:	e15b000a 	cmp	fp, sl
    9374:	1affffce 	bne	92b4 <____strtol_l_internal+0x124>
    9378:	e59d3010 	ldr	r3, [sp, #16]
    937c:	e59d1000 	ldr	r1, [sp]
    9380:	e3530000 	cmp	r3, #0
    9384:	1583a000 	strne	sl, [r3]
    9388:	e3510000 	cmp	r1, #0
    938c:	1a000038 	bne	9474 <____strtol_l_internal+0x2e4>
    9390:	e59d2018 	ldr	r2, [sp, #24]
    9394:	e3520000 	cmp	r2, #0
    9398:	03e03102 	mvneq	r3, #-2147483648	; 0x80000000
    939c:	13a03102 	movne	r3, #-2147483648	; 0x80000000
    93a0:	e1530000 	cmp	r3, r0
    93a4:	3a000032 	bcc	9474 <____strtol_l_internal+0x2e4>
    93a8:	e59d1018 	ldr	r1, [sp, #24]
    93ac:	e3510000 	cmp	r1, #0
    93b0:	12600000 	rsbne	r0, r0, #0
    93b4:	ea000003 	b	93c8 <____strtol_l_internal+0x238>
    93b8:	ebfffdd0 	bl	8b00 <__errno_location>
    93bc:	e3a03016 	mov	r3, #22
    93c0:	e5803000 	str	r3, [r0]
    93c4:	e3a00000 	mov	r0, #0
    93c8:	e28dd024 	add	sp, sp, #36	; 0x24
    93cc:	e8bd8ff0 	pop	{r4, r5, r6, r7, r8, r9, sl, fp, pc}
    93d0:	e59d1014 	ldr	r1, [sp, #20]
    93d4:	e1510003 	cmp	r1, r3
    93d8:	33a01001 	movcc	r1, #1
    93dc:	358d1000 	strcc	r1, [sp]
    93e0:	2affffde 	bcs	9360 <____strtol_l_internal+0x1d0>
    93e4:	e5fa6001 	ldrb	r6, [sl, #1]!
    93e8:	e3560000 	cmp	r6, #0
    93ec:	1affffdf 	bne	9370 <____strtol_l_internal+0x1e0>
    93f0:	e59d2008 	ldr	r2, [sp, #8]
    93f4:	e152000a 	cmp	r2, sl
    93f8:	1affffde 	bne	9378 <____strtol_l_internal+0x1e8>
    93fc:	e59db008 	ldr	fp, [sp, #8]
    9400:	e59d0010 	ldr	r0, [sp, #16]
    9404:	e3500000 	cmp	r0, #0
    9408:	059d0010 	ldreq	r0, [sp, #16]
    940c:	0affffed 	beq	93c8 <____strtol_l_internal+0x238>
    9410:	e59d100c 	ldr	r1, [sp, #12]
    9414:	e061300b 	rsb	r3, r1, fp
    9418:	e3530001 	cmp	r3, #1
    941c:	da000005 	ble	9438 <____strtol_l_internal+0x2a8>
    9420:	e55b2001 	ldrb	r2, [fp, #-1]
    9424:	e595303c 	ldr	r3, [r5, #60]	; 0x3c
    9428:	e24b1001 	sub	r1, fp, #1
    942c:	e7933102 	ldr	r3, [r3, r2, lsl #2]
    9430:	e3530058 	cmp	r3, #88	; 0x58
    9434:	0a000033 	beq	9508 <____strtol_l_internal+0x378>
    9438:	e59d200c 	ldr	r2, [sp, #12]
    943c:	e59d3010 	ldr	r3, [sp, #16]
    9440:	e3a00000 	mov	r0, #0
    9444:	e5832000 	str	r2, [r3]
    9448:	eaffffde 	b	93c8 <____strtol_l_internal+0x238>
    944c:	e3570000 	cmp	r7, #0
    9450:	1a000032 	bne	9520 <____strtol_l_internal+0x390>
    9454:	e1a04007 	mov	r4, r7
    9458:	e3a00008 	mov	r0, #8
    945c:	e3a0200a 	mov	r2, #10
    9460:	e1a0b007 	mov	fp, r7
    9464:	eaffff82 	b	9274 <____strtol_l_internal+0xe4>
    9468:	e59d101c 	ldr	r1, [sp, #28]
    946c:	e08aa001 	add	sl, sl, r1
    9470:	eaffffbb 	b	9364 <____strtol_l_internal+0x1d4>
    9474:	ebfffda1 	bl	8b00 <__errno_location>
    9478:	e59d3018 	ldr	r3, [sp, #24]
    947c:	e3530000 	cmp	r3, #0
    9480:	e3a03022 	mov	r3, #34	; 0x22
    9484:	e5803000 	str	r3, [r0]
    9488:	03e00102 	mvneq	r0, #-2147483648	; 0x80000000
    948c:	13a00102 	movne	r0, #-2147483648	; 0x80000000
    9490:	eaffffcc 	b	93c8 <____strtol_l_internal+0x238>
    9494:	e2720001 	rsbs	r0, r2, #1
    9498:	33a00000 	movcc	r0, #0
    949c:	e3520000 	cmp	r2, #0
    94a0:	13520010 	cmpne	r2, #16
    94a4:	1affff6d 	bne	9260 <____strtol_l_internal+0xd0>
    94a8:	e5d1c001 	ldrb	ip, [r1, #1]
    94ac:	e595103c 	ldr	r1, [r5, #60]	; 0x3c
    94b0:	e791110c 	ldr	r1, [r1, ip, lsl #2]
    94b4:	e3510058 	cmp	r1, #88	; 0x58
    94b8:	0a00000b 	beq	94ec <____strtol_l_internal+0x35c>
    94bc:	e3500000 	cmp	r0, #0
    94c0:	13a00006 	movne	r0, #6
    94c4:	13a02008 	movne	r2, #8
    94c8:	0affff64 	beq	9260 <____strtol_l_internal+0xd0>
    94cc:	e1a06003 	mov	r6, r3
    94d0:	eaffff65 	b	926c <____strtol_l_internal+0xdc>
    94d4:	e59d3008 	ldr	r3, [sp, #8]
    94d8:	e3a00001 	mov	r0, #1
    94dc:	e2833001 	add	r3, r3, #1
    94e0:	e58d3008 	str	r3, [sp, #8]
    94e4:	e58d0018 	str	r0, [sp, #24]
    94e8:	eaffff55 	b	9244 <____strtol_l_internal+0xb4>
    94ec:	e59d1008 	ldr	r1, [sp, #8]
    94f0:	e3a0000e 	mov	r0, #14
    94f4:	e5f13002 	ldrb	r3, [r1, #2]!
    94f8:	e3a02010 	mov	r2, #16
    94fc:	e58d1008 	str	r1, [sp, #8]
    9500:	e1a06003 	mov	r6, r3
    9504:	eaffff58 	b	926c <____strtol_l_internal+0xdc>
    9508:	e55b3002 	ldrb	r3, [fp, #-2]
    950c:	e3530030 	cmp	r3, #48	; 0x30
    9510:	05801000 	streq	r1, [r0]
    9514:	03a00000 	moveq	r0, #0
    9518:	1affffc6 	bne	9438 <____strtol_l_internal+0x2a8>
    951c:	eaffffa9 	b	93c8 <____strtol_l_internal+0x238>
    9520:	e59d0004 	ldr	r0, [sp, #4]
    9524:	eb00268d 	bl	12f60 <strlen>
    9528:	e3a03000 	mov	r3, #0
    952c:	e1a04000 	mov	r4, r0
    9530:	ea000006 	b	9550 <____strtol_l_internal+0x3c0>
    9534:	e59d2004 	ldr	r2, [sp, #4]
    9538:	e59d0008 	ldr	r0, [sp, #8]
    953c:	e7d21003 	ldrb	r1, [r2, r3]
    9540:	e7d02003 	ldrb	r2, [r0, r3]
    9544:	e1510002 	cmp	r1, r2
    9548:	1a000014 	bne	95a0 <____strtol_l_internal+0x410>
    954c:	e2833001 	add	r3, r3, #1
    9550:	e1530004 	cmp	r3, r4
    9554:	3afffff6 	bcc	9534 <____strtol_l_internal+0x3a4>
    9558:	ea000013 	b	95ac <____strtol_l_internal+0x41c>
    955c:	e593702c 	ldr	r7, [r3, #44]	; 0x2c
    9560:	e5d71000 	ldrb	r1, [r7]
    9564:	e2411001 	sub	r1, r1, #1
    9568:	e20110ff 	and	r1, r1, #255	; 0xff
    956c:	e35100fd 	cmp	r1, #253	; 0xfd
    9570:	83a07000 	movhi	r7, #0
    9574:	858d7004 	strhi	r7, [sp, #4]
    9578:	8affff0d 	bhi	91b4 <____strtol_l_internal+0x24>
    957c:	e5933028 	ldr	r3, [r3, #40]	; 0x28
    9580:	e58d3004 	str	r3, [sp, #4]
    9584:	e5d33000 	ldrb	r3, [r3]
    9588:	e3530000 	cmp	r3, #0
    958c:	01a07003 	moveq	r7, r3
    9590:	0affff06 	beq	91b0 <____strtol_l_internal+0x20>
    9594:	eaffff06 	b	91b4 <____strtol_l_internal+0x24>
    9598:	e59db00c 	ldr	fp, [sp, #12]
    959c:	eaffff97 	b	9400 <____strtol_l_internal+0x270>
    95a0:	e1540003 	cmp	r4, r3
    95a4:	859d1008 	ldrhi	r1, [sp, #8]
    95a8:	8a00000c 	bhi	95e0 <____strtol_l_internal+0x450>
    95ac:	e59db008 	ldr	fp, [sp, #8]
    95b0:	e3a00008 	mov	r0, #8
    95b4:	e3a0200a 	mov	r2, #10
    95b8:	eaffff2d 	b	9274 <____strtol_l_internal+0xe4>
    95bc:	e1a03086 	lsl	r3, r6, #1
    95c0:	e19830b3 	ldrh	r3, [r8, r3]
    95c4:	e3130b01 	tst	r3, #1024	; 0x400
    95c8:	0a000016 	beq	9628 <____strtol_l_internal+0x498>
    95cc:	e595303c 	ldr	r3, [r5, #60]	; 0x3c
    95d0:	e7933106 	ldr	r3, [r3, r6, lsl #2]
    95d4:	e3530040 	cmp	r3, #64	; 0x40
    95d8:	ca000012 	bgt	9628 <____strtol_l_internal+0x498>
    95dc:	e5f16001 	ldrb	r6, [r1, #1]!
    95e0:	e3560000 	cmp	r6, #0
    95e4:	0a00000f 	beq	9628 <____strtol_l_internal+0x498>
    95e8:	e2463030 	sub	r3, r6, #48	; 0x30
    95ec:	e20330ff 	and	r3, r3, #255	; 0xff
    95f0:	e3530009 	cmp	r3, #9
    95f4:	83a03000 	movhi	r3, #0
    95f8:	8a000007 	bhi	961c <____strtol_l_internal+0x48c>
    95fc:	e5f16001 	ldrb	r6, [r1, #1]!
    9600:	eafffff6 	b	95e0 <____strtol_l_internal+0x450>
    9604:	e59d2004 	ldr	r2, [sp, #4]
    9608:	e7d20003 	ldrb	r0, [r2, r3]
    960c:	e7d12003 	ldrb	r2, [r1, r3]
    9610:	e2833001 	add	r3, r3, #1
    9614:	e1500002 	cmp	r0, r2
    9618:	1affffe7 	bne	95bc <____strtol_l_internal+0x42c>
    961c:	e1530004 	cmp	r3, r4
    9620:	3afffff7 	bcc	9604 <____strtol_l_internal+0x474>
    9624:	eaffffec 	b	95dc <____strtol_l_internal+0x44c>
    9628:	e59d2004 	ldr	r2, [sp, #4]
    962c:	e1a03007 	mov	r3, r7
    9630:	e59d0008 	ldr	r0, [sp, #8]
    9634:	eb00000d 	bl	9670 <__correctly_grouped_prefixmb>
    9638:	e59d3008 	ldr	r3, [sp, #8]
    963c:	e1a0b000 	mov	fp, r0
    9640:	e5d36000 	ldrb	r6, [r3]
    9644:	e3a00008 	mov	r0, #8
    9648:	e3a0200a 	mov	r2, #10
    964c:	eaffff08 	b	9274 <____strtol_l_internal+0xe4>
    9650:	000659a4 	.word	0x000659a4

00009654 <__strtol_l>:
    9654:	e52de004 	push	{lr}		; (str lr, [sp, #-4]!)
    9658:	e24dd00c 	sub	sp, sp, #12
    965c:	e58d3000 	str	r3, [sp]
    9660:	e3a03000 	mov	r3, #0
    9664:	ebfffec9 	bl	9190 <____strtol_l_internal>
    9668:	e28dd00c 	add	sp, sp, #12
    966c:	e8bd8000 	pop	{pc}

00009670 <__correctly_grouped_prefixmb>:
    9670:	e92d4ff0 	push	{r4, r5, r6, r7, r8, r9, sl, fp, lr}
    9674:	e3530000 	cmp	r3, #0
    9678:	e24dd01c 	sub	sp, sp, #28
    967c:	e58d3010 	str	r3, [sp, #16]
    9680:	e1a04000 	mov	r4, r0
    9684:	e58d1000 	str	r1, [sp]
    9688:	e58d200c 	str	r2, [sp, #12]
    968c:	0a00003b 	beq	9780 <__correctly_grouped_prefixmb+0x110>
    9690:	e1a00002 	mov	r0, r2
    9694:	eb002631 	bl	12f60 <strlen>
    9698:	e59d1000 	ldr	r1, [sp]
    969c:	e1510004 	cmp	r1, r4
    96a0:	9a000032 	bls	9770 <__correctly_grouped_prefixmb+0x100>
    96a4:	e59d300c 	ldr	r3, [sp, #12]
    96a8:	e2402001 	sub	r2, r0, #1
    96ac:	e2400002 	sub	r0, r0, #2
    96b0:	e58d2004 	str	r2, [sp, #4]
    96b4:	e58d0014 	str	r0, [sp, #20]
    96b8:	e2838001 	add	r8, r3, #1
    96bc:	e59d1000 	ldr	r1, [sp]
    96c0:	e241c001 	sub	ip, r1, #1
    96c4:	e154000c 	cmp	r4, ip
    96c8:	8a00002c 	bhi	9780 <__correctly_grouped_prefixmb+0x110>
    96cc:	e59d200c 	ldr	r2, [sp, #12]
    96d0:	e59d3014 	ldr	r3, [sp, #20]
    96d4:	e5d26000 	ldrb	r6, [r2]
    96d8:	e0815003 	add	r5, r1, r3
    96dc:	ea000002 	b	96ec <__correctly_grouped_prefixmb+0x7c>
    96e0:	e24cc001 	sub	ip, ip, #1
    96e4:	e154000c 	cmp	r4, ip
    96e8:	8a000024 	bhi	9780 <__correctly_grouped_prefixmb+0x110>
    96ec:	e4553001 	ldrb	r3, [r5], #-1
    96f0:	e1530006 	cmp	r3, r6
    96f4:	1afffff9 	bne	96e0 <__correctly_grouped_prefixmb+0x70>
    96f8:	e5d87000 	ldrb	r7, [r8]
    96fc:	e3570000 	cmp	r7, #0
    9700:	0a00000b 	beq	9734 <__correctly_grouped_prefixmb+0xc4>
    9704:	e5d53000 	ldrb	r3, [r5]
    9708:	e1530007 	cmp	r3, r7
    970c:	01a02008 	moveq	r2, r8
    9710:	01a01005 	moveq	r1, r5
    9714:	0a000003 	beq	9728 <__correctly_grouped_prefixmb+0xb8>
    9718:	eafffff0 	b	96e0 <__correctly_grouped_prefixmb+0x70>
    971c:	e5710001 	ldrb	r0, [r1, #-1]!
    9720:	e1500003 	cmp	r0, r3
    9724:	1affffed 	bne	96e0 <__correctly_grouped_prefixmb+0x70>
    9728:	e5f23001 	ldrb	r3, [r2, #1]!
    972c:	e3530000 	cmp	r3, #0
    9730:	1afffff9 	bne	971c <__correctly_grouped_prefixmb+0xac>
    9734:	e154000c 	cmp	r4, ip
    9738:	8a000010 	bhi	9780 <__correctly_grouped_prefixmb+0x110>
    973c:	e59d1010 	ldr	r1, [sp, #16]
    9740:	e5d13000 	ldrb	r3, [r1]
    9744:	e59d1000 	ldr	r1, [sp]
    9748:	e2833001 	add	r3, r3, #1
    974c:	e06c2001 	rsb	r2, ip, r1
    9750:	e1520003 	cmp	r2, r3
    9754:	0a00000c 	beq	978c <__correctly_grouped_prefixmb+0x11c>
    9758:	c08cc003 	addgt	ip, ip, r3
    975c:	c58dc000 	strgt	ip, [sp]
    9760:	d58dc000 	strle	ip, [sp]
    9764:	e59d3000 	ldr	r3, [sp]
    9768:	e1540003 	cmp	r4, r3
    976c:	3affffd2 	bcc	96bc <__correctly_grouped_prefixmb+0x4c>
    9770:	e59d1000 	ldr	r1, [sp]
    9774:	e1510004 	cmp	r1, r4
    9778:	31a01004 	movcc	r1, r4
    977c:	e58d1000 	str	r1, [sp]
    9780:	e59d0000 	ldr	r0, [sp]
    9784:	e28dd01c 	add	sp, sp, #28
    9788:	e8bd8ff0 	pop	{r4, r5, r6, r7, r8, r9, sl, fp, pc}
    978c:	e24ca001 	sub	sl, ip, #1
    9790:	e59db010 	ldr	fp, [sp, #16]
    9794:	e58da008 	str	sl, [sp, #8]
    9798:	e5db9001 	ldrb	r9, [fp, #1]
    979c:	e28b3001 	add	r3, fp, #1
    97a0:	e3590000 	cmp	r9, #0
    97a4:	05db9000 	ldrbeq	r9, [fp]
    97a8:	11a0b003 	movne	fp, r3
    97ac:	e35900ff 	cmp	r9, #255	; 0xff
    97b0:	e1a0000a 	mov	r0, sl
    97b4:	0a000024 	beq	984c <__correctly_grouped_prefixmb+0x1dc>
    97b8:	e154000a 	cmp	r4, sl
    97bc:	8a000048 	bhi	98e4 <__correctly_grouped_prefixmb+0x274>
    97c0:	e59d2004 	ldr	r2, [sp, #4]
    97c4:	e3560000 	cmp	r6, #0
    97c8:	e08cc002 	add	ip, ip, r2
    97cc:	01a0500a 	moveq	r5, sl
    97d0:	01a0c00a 	moveq	ip, sl
    97d4:	0a00000e 	beq	9814 <__correctly_grouped_prefixmb+0x1a4>
    97d8:	e1a0500a 	mov	r5, sl
    97dc:	e57c3001 	ldrb	r3, [ip, #-1]!
    97e0:	e1530006 	cmp	r3, r6
    97e4:	01a01008 	moveq	r1, r8
    97e8:	01a0200c 	moveq	r2, ip
    97ec:	01a03007 	moveq	r3, r7
    97f0:	0a000004 	beq	9808 <__correctly_grouped_prefixmb+0x198>
    97f4:	ea00002c 	b	98ac <__correctly_grouped_prefixmb+0x23c>
    97f8:	e5720001 	ldrb	r0, [r2, #-1]!
    97fc:	e1500003 	cmp	r0, r3
    9800:	1a000029 	bne	98ac <__correctly_grouped_prefixmb+0x23c>
    9804:	e5f13001 	ldrb	r3, [r1, #1]!
    9808:	e3530000 	cmp	r3, #0
    980c:	1afffff9 	bne	97f8 <__correctly_grouped_prefixmb+0x188>
    9810:	e1a0c005 	mov	ip, r5
    9814:	e1540005 	cmp	r4, r5
    9818:	8a000027 	bhi	98bc <__correctly_grouped_prefixmb+0x24c>
    981c:	e065500a 	rsb	r5, r5, sl
    9820:	e1550009 	cmp	r5, r9
    9824:	1a000030 	bne	98ec <__correctly_grouped_prefixmb+0x27c>
    9828:	e5db9001 	ldrb	r9, [fp, #1]
    982c:	e28b3001 	add	r3, fp, #1
    9830:	e3590000 	cmp	r9, #0
    9834:	05db9000 	ldrbeq	r9, [fp]
    9838:	e24ca001 	sub	sl, ip, #1
    983c:	11a0b003 	movne	fp, r3
    9840:	e35900ff 	cmp	r9, #255	; 0xff
    9844:	e1a0000a 	mov	r0, sl
    9848:	1affffda 	bne	97b8 <__correctly_grouped_prefixmb+0x148>
    984c:	e154000a 	cmp	r4, sl
    9850:	8affffca 	bhi	9780 <__correctly_grouped_prefixmb+0x110>
    9854:	e59d3004 	ldr	r3, [sp, #4]
    9858:	e3560000 	cmp	r6, #0
    985c:	e08c5003 	add	r5, ip, r3
    9860:	0a00000c 	beq	9898 <__correctly_grouped_prefixmb+0x228>
    9864:	e5753001 	ldrb	r3, [r5, #-1]!
    9868:	e1530006 	cmp	r3, r6
    986c:	01a01008 	moveq	r1, r8
    9870:	01a02005 	moveq	r2, r5
    9874:	01a03007 	moveq	r3, r7
    9878:	0a000004 	beq	9890 <__correctly_grouped_prefixmb+0x220>
    987c:	ea000014 	b	98d4 <__correctly_grouped_prefixmb+0x264>
    9880:	e572c001 	ldrb	ip, [r2, #-1]!
    9884:	e15c0003 	cmp	ip, r3
    9888:	1a000011 	bne	98d4 <__correctly_grouped_prefixmb+0x264>
    988c:	e5f13001 	ldrb	r3, [r1, #1]!
    9890:	e3530000 	cmp	r3, #0
    9894:	1afffff9 	bne	9880 <__correctly_grouped_prefixmb+0x210>
    9898:	e1540000 	cmp	r4, r0
    989c:	e1a0c000 	mov	ip, r0
    98a0:	8affffb6 	bhi	9780 <__correctly_grouped_prefixmb+0x110>
    98a4:	e240a001 	sub	sl, r0, #1
    98a8:	eaffffba 	b	9798 <__correctly_grouped_prefixmb+0x128>
    98ac:	e2455001 	sub	r5, r5, #1
    98b0:	e1540005 	cmp	r4, r5
    98b4:	9affffc8 	bls	97dc <__correctly_grouped_prefixmb+0x16c>
    98b8:	e1a0c005 	mov	ip, r5
    98bc:	e06cc00a 	rsb	ip, ip, sl
    98c0:	e15c0009 	cmp	ip, r9
    98c4:	daffffad 	ble	9780 <__correctly_grouped_prefixmb+0x110>
    98c8:	e59d1008 	ldr	r1, [sp, #8]
    98cc:	e58d1000 	str	r1, [sp]
    98d0:	eaffffa3 	b	9764 <__correctly_grouped_prefixmb+0xf4>
    98d4:	e2400001 	sub	r0, r0, #1
    98d8:	e1540000 	cmp	r4, r0
    98dc:	9affffe0 	bls	9864 <__correctly_grouped_prefixmb+0x1f4>
    98e0:	eaffffa6 	b	9780 <__correctly_grouped_prefixmb+0x110>
    98e4:	e1a0500a 	mov	r5, sl
    98e8:	eafffff2 	b	98b8 <__correctly_grouped_prefixmb+0x248>
    98ec:	e59d2008 	ldr	r2, [sp, #8]
    98f0:	e58d2000 	str	r2, [sp]
    98f4:	eaffff9a 	b	9764 <__correctly_grouped_prefixmb+0xf4>

000098f8 <_IO_printf>:
    98f8:	e92d000f 	push	{r0, r1, r2, r3}
    98fc:	e52de004 	push	{lr}		; (str lr, [sp, #-4]!)
    9900:	e59f2028 	ldr	r2, [pc, #40]	; 9930 <_IO_printf+0x38>
    9904:	e24dd00c 	sub	sp, sp, #12
    9908:	e28d3014 	add	r3, sp, #20
    990c:	e5920000 	ldr	r0, [r2]
    9910:	e59d1010 	ldr	r1, [sp, #16]
    9914:	e1a02003 	mov	r2, r3
    9918:	e58d3004 	str	r3, [sp, #4]
    991c:	eb004fae 	bl	1d7dc <_IO_vfprintf>
    9920:	e28dd00c 	add	sp, sp, #12
    9924:	e49de004 	pop	{lr}		; (ldr lr, [sp], #4)
    9928:	e28dd010 	add	sp, sp, #16
    992c:	e12fff1e 	bx	lr
    9930:	00083dcc 	.word	0x00083dcc

00009934 <putchar>:
    9934:	e92d45f8 	push	{r3, r4, r5, r6, r7, r8, sl, lr}
    9938:	e59f71e0 	ldr	r7, [pc, #480]	; 9b20 <putchar+0x1ec>
    993c:	e1a08000 	mov	r8, r0
    9940:	e5975000 	ldr	r5, [r7]
    9944:	e5954000 	ldr	r4, [r5]
    9948:	e2144902 	ands	r4, r4, #32768	; 0x8000
    994c:	11a00005 	movne	r0, r5
    9950:	1a000018 	bne	99b8 <putchar+0x84>
    9954:	e5956048 	ldr	r6, [r5, #72]	; 0x48
    9958:	ebfffc64 	bl	8af0 <__aeabi_read_tp>
    995c:	e5963008 	ldr	r3, [r6, #8]
    9960:	e240ad13 	sub	sl, r0, #1216	; 0x4c0
    9964:	e153000a 	cmp	r3, sl
    9968:	0a00000e 	beq	99a8 <putchar+0x74>
    996c:	e3a01001 	mov	r1, #1
    9970:	e1a02006 	mov	r2, r6
    9974:	e5923000 	ldr	r3, [r2]
    9978:	e1530004 	cmp	r3, r4
    997c:	1a000005 	bne	9998 <putchar+0x64>
    9980:	e1a00004 	mov	r0, r4
    9984:	e3e03a0f 	mvn	r3, #61440	; 0xf000
    9988:	e1a0e00f 	mov	lr, pc
    998c:	e243f03f 	sub	pc, r3, #63	; 0x3f
    9990:	3afffff7 	bcc	9974 <putchar+0x40>
    9994:	e1a03004 	mov	r3, r4
    9998:	e3530000 	cmp	r3, #0
    999c:	1a000036 	bne	9a7c <putchar+0x148>
    99a0:	e5956048 	ldr	r6, [r5, #72]	; 0x48
    99a4:	e586a008 	str	sl, [r6, #8]
    99a8:	e5963004 	ldr	r3, [r6, #4]
    99ac:	e5970000 	ldr	r0, [r7]
    99b0:	e2833001 	add	r3, r3, #1
    99b4:	e5863004 	str	r3, [r6, #4]
    99b8:	e5903014 	ldr	r3, [r0, #20]
    99bc:	e5902018 	ldr	r2, [r0, #24]
    99c0:	e1530002 	cmp	r3, r2
    99c4:	320880ff 	andcc	r8, r8, #255	; 0xff
    99c8:	34c38001 	strbcc	r8, [r3], #1
    99cc:	35803014 	strcc	r3, [r0, #20]
    99d0:	2a000025 	bcs	9a6c <putchar+0x138>
    99d4:	e5953000 	ldr	r3, [r5]
    99d8:	e3130902 	tst	r3, #32768	; 0x8000
    99dc:	1a000017 	bne	9a40 <putchar+0x10c>
    99e0:	e5956048 	ldr	r6, [r5, #72]	; 0x48
    99e4:	e5963004 	ldr	r3, [r6, #4]
    99e8:	e2433001 	sub	r3, r3, #1
    99ec:	e3530000 	cmp	r3, #0
    99f0:	e5863004 	str	r3, [r6, #4]
    99f4:	1a000011 	bne	9a40 <putchar+0x10c>
    99f8:	e5863008 	str	r3, [r6, #8]
    99fc:	e5965000 	ldr	r5, [r6]
    9a00:	e3a01000 	mov	r1, #0
    9a04:	e1a02006 	mov	r2, r6
    9a08:	e1a04005 	mov	r4, r5
    9a0c:	e5923000 	ldr	r3, [r2]
    9a10:	e1530004 	cmp	r3, r4
    9a14:	1a000005 	bne	9a30 <putchar+0xfc>
    9a18:	e1a00004 	mov	r0, r4
    9a1c:	e3e03a0f 	mvn	r3, #61440	; 0xf000
    9a20:	e1a0e00f 	mov	lr, pc
    9a24:	e243f03f 	sub	pc, r3, #63	; 0x3f
    9a28:	3afffff7 	bcc	9a0c <putchar+0xd8>
    9a2c:	e1a03004 	mov	r3, r4
    9a30:	e1550003 	cmp	r5, r3
    9a34:	1afffff0 	bne	99fc <putchar+0xc8>
    9a38:	e3550001 	cmp	r5, #1
    9a3c:	ca000001 	bgt	9a48 <putchar+0x114>
    9a40:	e1a00008 	mov	r0, r8
    9a44:	e8bd85f8 	pop	{r3, r4, r5, r6, r7, r8, sl, pc}
    9a48:	ebfffc28 	bl	8af0 <__aeabi_read_tp>
    9a4c:	e51014b8 	ldr	r1, [r0, #-1208]	; 0x4b8
    9a50:	e3a02001 	mov	r2, #1
    9a54:	e1a00006 	mov	r0, r6
    9a58:	e1811002 	orr	r1, r1, r2
    9a5c:	e3a03000 	mov	r3, #0
    9a60:	e3a070f0 	mov	r7, #240	; 0xf0
    9a64:	ef000000 	svc	0x00000000
    9a68:	eafffff4 	b	9a40 <putchar+0x10c>
    9a6c:	e20810ff 	and	r1, r8, #255	; 0xff
    9a70:	eb0003b5 	bl	a94c <__overflow>
    9a74:	e1a08000 	mov	r8, r0
    9a78:	eaffffd5 	b	99d4 <putchar+0xa0>
    9a7c:	e1a00006 	mov	r0, r6
    9a80:	eb002d6a 	bl	15030 <__lll_lock_wait_private>
    9a84:	eaffffc5 	b	99a0 <putchar+0x6c>
    9a88:	e5953000 	ldr	r3, [r5]
    9a8c:	e1a08000 	mov	r8, r0
    9a90:	e3130902 	tst	r3, #32768	; 0x8000
    9a94:	1a00001f 	bne	9b18 <putchar+0x1e4>
    9a98:	e5956048 	ldr	r6, [r5, #72]	; 0x48
    9a9c:	e5963004 	ldr	r3, [r6, #4]
    9aa0:	e2433001 	sub	r3, r3, #1
    9aa4:	e3530000 	cmp	r3, #0
    9aa8:	e5863004 	str	r3, [r6, #4]
    9aac:	1a000019 	bne	9b18 <putchar+0x1e4>
    9ab0:	e5863008 	str	r3, [r6, #8]
    9ab4:	e5965000 	ldr	r5, [r6]
    9ab8:	e3a01000 	mov	r1, #0
    9abc:	e1a02006 	mov	r2, r6
    9ac0:	e1a04005 	mov	r4, r5
    9ac4:	e5923000 	ldr	r3, [r2]
    9ac8:	e1530004 	cmp	r3, r4
    9acc:	1a000005 	bne	9ae8 <putchar+0x1b4>
    9ad0:	e1a00004 	mov	r0, r4
    9ad4:	e3e03a0f 	mvn	r3, #61440	; 0xf000
    9ad8:	e1a0e00f 	mov	lr, pc
    9adc:	e243f03f 	sub	pc, r3, #63	; 0x3f
    9ae0:	3afffff7 	bcc	9ac4 <putchar+0x190>
    9ae4:	e1a03004 	mov	r3, r4
    9ae8:	e1550003 	cmp	r5, r3
    9aec:	1afffff0 	bne	9ab4 <putchar+0x180>
    9af0:	e3550001 	cmp	r5, #1
    9af4:	da000007 	ble	9b18 <putchar+0x1e4>
    9af8:	ebfffbfc 	bl	8af0 <__aeabi_read_tp>
    9afc:	e51014b8 	ldr	r1, [r0, #-1208]	; 0x4b8
    9b00:	e3a02001 	mov	r2, #1
    9b04:	e1a00006 	mov	r0, r6
    9b08:	e1811002 	orr	r1, r1, r2
    9b0c:	e3a03000 	mov	r3, #0
    9b10:	e3a070f0 	mov	r7, #240	; 0xf0
    9b14:	ef000000 	svc	0x00000000
    9b18:	e1a00008 	mov	r0, r8
    9b1c:	fa016903 	blx	63f30 <_Unwind_Resume>
    9b20:	00083dcc 	.word	0x00083dcc

00009b24 <__fcloseall>:
    9b24:	ea00067b 	b	b518 <_IO_cleanup>

00009b28 <__libc_message>:
    9b28:	e92d000e 	push	{r1, r2, r3}
    9b2c:	e92d4ff0 	push	{r4, r5, r6, r7, r8, r9, sl, fp, lr}
    9b30:	e28db020 	add	fp, sp, #32
    9b34:	e24dde51 	sub	sp, sp, #1296	; 0x510
    9b38:	e28b3008 	add	r3, fp, #8
    9b3c:	e50b052c 	str	r0, [fp, #-1324]	; 0x52c
    9b40:	e59f03c8 	ldr	r0, [pc, #968]	; 9f10 <__libc_message+0x3e8>
    9b44:	e50b3024 	str	r3, [fp, #-36]	; 0x24
    9b48:	e50b3028 	str	r3, [fp, #-40]	; 0x28
    9b4c:	eb004a56 	bl	1c4ac <__secure_getenv>
    9b50:	e3500000 	cmp	r0, #0
    9b54:	0a00002b 	beq	9c08 <__libc_message+0xe0>
    9b58:	e5d03000 	ldrb	r3, [r0]
    9b5c:	e3530000 	cmp	r3, #0
    9b60:	13a09002 	movne	r9, #2
    9b64:	0a000027 	beq	9c08 <__libc_message+0xe0>
    9b68:	e59b2004 	ldr	r2, [fp, #4]
    9b6c:	e5d2a000 	ldrb	sl, [r2]
    9b70:	e35a0000 	cmp	sl, #0
    9b74:	0a000063 	beq	9d08 <__libc_message+0x1e0>
    9b78:	e3a05000 	mov	r5, #0
    9b7c:	e59b4004 	ldr	r4, [fp, #4]
    9b80:	e1a0200a 	mov	r2, sl
    9b84:	e1a06005 	mov	r6, r5
    9b88:	e1a03004 	mov	r3, r4
    9b8c:	ea000005 	b	9ba8 <__libc_message+0x80>
    9b90:	e3a01025 	mov	r1, #37	; 0x25
    9b94:	eb0028c9 	bl	13ec0 <__strchrnul>
    9b98:	e5d02000 	ldrb	r2, [r0]
    9b9c:	e1a03000 	mov	r3, r0
    9ba0:	e3520000 	cmp	r2, #0
    9ba4:	0a000006 	beq	9bc4 <__libc_message+0x9c>
    9ba8:	e3520025 	cmp	r2, #37	; 0x25
    9bac:	12830001 	addne	r0, r3, #1
    9bb0:	1afffff6 	bne	9b90 <__libc_message+0x68>
    9bb4:	e5d32001 	ldrb	r2, [r3, #1]
    9bb8:	e2830001 	add	r0, r3, #1
    9bbc:	e3520073 	cmp	r2, #115	; 0x73
    9bc0:	1afffff2 	bne	9b90 <__libc_message+0x68>
    9bc4:	e35a0025 	cmp	sl, #37	; 0x25
    9bc8:	0a00001c 	beq	9c40 <__libc_message+0x118>
    9bcc:	e0640003 	rsb	r0, r4, r3
    9bd0:	e1a07004 	mov	r7, r4
    9bd4:	e24dd018 	sub	sp, sp, #24
    9bd8:	e58d7000 	str	r7, [sp]
    9bdc:	e98d0041 	stmib	sp, {r0, r6}
    9be0:	e5d3a000 	ldrb	sl, [r3]
    9be4:	e1a0100d 	mov	r1, sp
    9be8:	e35a0000 	cmp	sl, #0
    9bec:	e2854001 	add	r4, r5, #1
    9bf0:	0a00001d 	beq	9c6c <__libc_message+0x144>
    9bf4:	e1a05004 	mov	r5, r4
    9bf8:	e1a0200a 	mov	r2, sl
    9bfc:	e1a06001 	mov	r6, r1
    9c00:	e1a04003 	mov	r4, r3
    9c04:	eaffffdf 	b	9b88 <__libc_message+0x60>
    9c08:	e59f0304 	ldr	r0, [pc, #772]	; 9f14 <__libc_message+0x3ec>
    9c0c:	e59f1304 	ldr	r1, [pc, #772]	; 9f18 <__libc_message+0x3f0>
    9c10:	e3a07005 	mov	r7, #5
    9c14:	ef000000 	svc	0x00000000
    9c18:	e3700a01 	cmn	r0, #4096	; 0x1000
    9c1c:	e1a09000 	mov	r9, r0
    9c20:	9affffd0 	bls	9b68 <__libc_message+0x40>
    9c24:	e59f32f0 	ldr	r3, [pc, #752]	; 9f1c <__libc_message+0x3f4>
    9c28:	e2609000 	rsb	r9, r0, #0
    9c2c:	e79f3003 	ldr	r3, [pc, r3]
    9c30:	ebfffbae 	bl	8af0 <__aeabi_read_tp>
    9c34:	e7809003 	str	r9, [r0, r3]
    9c38:	e3a09002 	mov	r9, #2
    9c3c:	eaffffc9 	b	9b68 <__libc_message+0x40>
    9c40:	e5d42001 	ldrb	r2, [r4, #1]
    9c44:	e3520073 	cmp	r2, #115	; 0x73
    9c48:	1affffdf 	bne	9bcc <__libc_message+0xa4>
    9c4c:	e51b3024 	ldr	r3, [fp, #-36]	; 0x24
    9c50:	e5937000 	ldr	r7, [r3]
    9c54:	e2833004 	add	r3, r3, #4
    9c58:	e1a00007 	mov	r0, r7
    9c5c:	e50b3024 	str	r3, [fp, #-36]	; 0x24
    9c60:	eb0024be 	bl	12f60 <strlen>
    9c64:	e2843002 	add	r3, r4, #2
    9c68:	eaffffd9 	b	9bd4 <__libc_message+0xac>
    9c6c:	e1a03184 	lsl	r3, r4, #3
    9c70:	e2833008 	add	r3, r3, #8
    9c74:	e04dd003 	sub	sp, sp, r3
    9c78:	e1a0600d 	mov	r6, sp
    9c7c:	e0863185 	add	r3, r6, r5, lsl #3
    9c80:	e8910005 	ldm	r1, {r0, r2}
    9c84:	e2455001 	sub	r5, r5, #1
    9c88:	e3750001 	cmn	r5, #1
    9c8c:	e8830005 	stm	r3, {r0, r2}
    9c90:	e08aa002 	add	sl, sl, r2
    9c94:	e5911008 	ldr	r1, [r1, #8]
    9c98:	e2433008 	sub	r3, r3, #8
    9c9c:	1afffff7 	bne	9c80 <__libc_message+0x158>
    9ca0:	e1a00009 	mov	r0, r9
    9ca4:	e1a01006 	mov	r1, r6
    9ca8:	e1a02004 	mov	r2, r4
    9cac:	e3a07092 	mov	r7, #146	; 0x92
    9cb0:	ef000000 	svc	0x00000000
    9cb4:	e3700004 	cmn	r0, #4
    9cb8:	13a08000 	movne	r8, #0
    9cbc:	03a08001 	moveq	r8, #1
    9cc0:	e3700a01 	cmn	r0, #4096	; 0x1000
    9cc4:	93a08000 	movls	r8, #0
    9cc8:	e3580000 	cmp	r8, #0
    9ccc:	e1a05000 	mov	r5, r0
    9cd0:	1afffff2 	bne	9ca0 <__libc_message+0x178>
    9cd4:	e51b352c 	ldr	r3, [fp, #-1324]	; 0x52c
    9cd8:	e3530000 	cmp	r3, #0
    9cdc:	1a00000f 	bne	9d20 <__libc_message+0x1f8>
    9ce0:	e155000a 	cmp	r5, sl
    9ce4:	03a03001 	moveq	r3, #1
    9ce8:	1a000006 	bne	9d08 <__libc_message+0x1e0>
    9cec:	e51b252c 	ldr	r2, [fp, #-1324]	; 0x52c
    9cf0:	e3520000 	cmp	r2, #0
    9cf4:	1a00002c 	bne	9dac <__libc_message+0x284>
    9cf8:	e24bd020 	sub	sp, fp, #32
    9cfc:	e8bd4ff0 	pop	{r4, r5, r6, r7, r8, r9, sl, fp, lr}
    9d00:	e28dd00c 	add	sp, sp, #12
    9d04:	e12fff1e 	bx	lr
    9d08:	e3a00003 	mov	r0, #3
    9d0c:	e59b1004 	ldr	r1, [fp, #4]
    9d10:	e51b2028 	ldr	r2, [fp, #-40]	; 0x28
    9d14:	eb002bd8 	bl	14c7c <__vsyslog>
    9d18:	e3a03000 	mov	r3, #0
    9d1c:	eafffff2 	b	9cec <__libc_message+0x1c4>
    9d20:	e28a0001 	add	r0, sl, #1
    9d24:	eb001bb4 	bl	10bfc <__libc_malloc>
    9d28:	e3500000 	cmp	r0, #0
    9d2c:	e50b0530 	str	r0, [fp, #-1328]	; 0x530
    9d30:	0affffea 	beq	9ce0 <__libc_message+0x1b8>
    9d34:	e1a07008 	mov	r7, r8
    9d38:	e1a03006 	mov	r3, r6
    9d3c:	e7b31008 	ldr	r1, [r3, r8]!
    9d40:	e2877001 	add	r7, r7, #1
    9d44:	e5932004 	ldr	r2, [r3, #4]
    9d48:	eb00266c 	bl	13700 <__mempcpy>
    9d4c:	e1570004 	cmp	r7, r4
    9d50:	e2888008 	add	r8, r8, #8
    9d54:	bafffff7 	blt	9d38 <__libc_message+0x210>
    9d58:	e3a03000 	mov	r3, #0
    9d5c:	e59f71bc 	ldr	r7, [pc, #444]	; 9f20 <__libc_message+0x3f8>
    9d60:	e5c03000 	strb	r3, [r0]
    9d64:	e5976000 	ldr	r6, [r7]
    9d68:	e51b1530 	ldr	r1, [fp, #-1328]	; 0x530
    9d6c:	e59f21ac 	ldr	r2, [pc, #428]	; 9f20 <__libc_message+0x3f8>
    9d70:	e1a04006 	mov	r4, r6
    9d74:	e5923000 	ldr	r3, [r2]
    9d78:	e1530004 	cmp	r3, r4
    9d7c:	1a000005 	bne	9d98 <__libc_message+0x270>
    9d80:	e1a00004 	mov	r0, r4
    9d84:	e3e03a0f 	mvn	r3, #61440	; 0xf000
    9d88:	e1a0e00f 	mov	lr, pc
    9d8c:	e243f03f 	sub	pc, r3, #63	; 0x3f
    9d90:	3afffff7 	bcc	9d74 <__libc_message+0x24c>
    9d94:	e1a03004 	mov	r3, r4
    9d98:	e1560003 	cmp	r6, r3
    9d9c:	1afffff0 	bne	9d64 <__libc_message+0x23c>
    9da0:	e1a00006 	mov	r0, r6
    9da4:	eb001d53 	bl	112f8 <__cfree>
    9da8:	eaffffcc 	b	9ce0 <__libc_message+0x1b8>
    9dac:	e3520001 	cmp	r2, #1
    9db0:	da000001 	ble	9dbc <__libc_message+0x294>
    9db4:	e3530000 	cmp	r3, #0
    9db8:	1a000000 	bne	9dc0 <__libc_message+0x298>
    9dbc:	ebfffb5e 	bl	8b3c <abort>
    9dc0:	e24b0f4a 	sub	r0, fp, #296	; 0x128
    9dc4:	e3a01040 	mov	r1, #64	; 0x40
    9dc8:	eb002e23 	bl	1565c <__backtrace>
    9dcc:	e3500002 	cmp	r0, #2
    9dd0:	e1a03000 	mov	r3, r0
    9dd4:	dafffff8 	ble	9dbc <__libc_message+0x294>
    9dd8:	e1a00009 	mov	r0, r9
    9ddc:	e59f1140 	ldr	r1, [pc, #320]	; 9f24 <__libc_message+0x3fc>
    9de0:	e3a0201d 	mov	r2, #29
    9de4:	e3a07004 	mov	r7, #4
    9de8:	ef000000 	svc	0x00000000
    9dec:	e3700a01 	cmn	r0, #4096	; 0x1000
    9df0:	e1a01000 	mov	r1, r0
    9df4:	9a000004 	bls	9e0c <__libc_message+0x2e4>
    9df8:	e59f2128 	ldr	r2, [pc, #296]	; 9f28 <__libc_message+0x400>
    9dfc:	ebfffb3b 	bl	8af0 <__aeabi_read_tp>
    9e00:	e79f2002 	ldr	r2, [pc, r2]
    9e04:	e2611000 	rsb	r1, r1, #0
    9e08:	e7801002 	str	r1, [r0, r2]
    9e0c:	e2431001 	sub	r1, r3, #1
    9e10:	e1a02009 	mov	r2, r9
    9e14:	e24b0f49 	sub	r0, fp, #292	; 0x124
    9e18:	eb002e2a 	bl	156c8 <__backtrace_symbols_fd>
    9e1c:	e3a07004 	mov	r7, #4
    9e20:	e1a00009 	mov	r0, r9
    9e24:	e59f1100 	ldr	r1, [pc, #256]	; 9f2c <__libc_message+0x404>
    9e28:	e3a0201d 	mov	r2, #29
    9e2c:	ef000000 	svc	0x00000000
    9e30:	e3700a01 	cmn	r0, #4096	; 0x1000
    9e34:	e1a02000 	mov	r2, r0
    9e38:	9a000004 	bls	9e50 <__libc_message+0x328>
    9e3c:	e59f30ec 	ldr	r3, [pc, #236]	; 9f30 <__libc_message+0x408>
    9e40:	ebfffb2a 	bl	8af0 <__aeabi_read_tp>
    9e44:	e79f3003 	ldr	r3, [pc, r3]
    9e48:	e2622000 	rsb	r2, r2, #0
    9e4c:	e7802003 	str	r2, [r0, r3]
    9e50:	e59f00dc 	ldr	r0, [pc, #220]	; 9f34 <__libc_message+0x40c>
    9e54:	e3a01000 	mov	r1, #0
    9e58:	e3a07005 	mov	r7, #5
    9e5c:	ef000000 	svc	0x00000000
    9e60:	e3700a01 	cmn	r0, #4096	; 0x1000
    9e64:	e1a03000 	mov	r3, r0
    9e68:	9a000005 	bls	9e84 <__libc_message+0x35c>
    9e6c:	e59f20c4 	ldr	r2, [pc, #196]	; 9f38 <__libc_message+0x410>
    9e70:	e2603000 	rsb	r3, r0, #0
    9e74:	e79f2002 	ldr	r2, [pc, r2]
    9e78:	ebfffb1c 	bl	8af0 <__aeabi_read_tp>
    9e7c:	e7803002 	str	r3, [r0, r2]
    9e80:	e3e03000 	mvn	r3, #0
    9e84:	e59f50b0 	ldr	r5, [pc, #176]	; 9f3c <__libc_message+0x414>
    9e88:	e24b1e52 	sub	r1, fp, #1312	; 0x520
    9e8c:	e1a00003 	mov	r0, r3
    9e90:	e2411008 	sub	r1, r1, #8
    9e94:	e3a02b01 	mov	r2, #1024	; 0x400
    9e98:	e3a07003 	mov	r7, #3
    9e9c:	ef000000 	svc	0x00000000
    9ea0:	e3700a01 	cmn	r0, #4096	; 0x1000
    9ea4:	e1a04000 	mov	r4, r0
    9ea8:	8a000012 	bhi	9ef8 <__libc_message+0x3d0>
    9eac:	e3500000 	cmp	r0, #0
    9eb0:	da00000c 	ble	9ee8 <__libc_message+0x3c0>
    9eb4:	e1a00009 	mov	r0, r9
    9eb8:	e1a02004 	mov	r2, r4
    9ebc:	e3a07004 	mov	r7, #4
    9ec0:	ef000000 	svc	0x00000000
    9ec4:	e3700a01 	cmn	r0, #4096	; 0x1000
    9ec8:	9a000004 	bls	9ee0 <__libc_message+0x3b8>
    9ecc:	e2601000 	rsb	r1, r0, #0
    9ed0:	e79f2005 	ldr	r2, [pc, r5]
    9ed4:	ebfffb05 	bl	8af0 <__aeabi_read_tp>
    9ed8:	e7801002 	str	r1, [r0, r2]
    9edc:	e3e00000 	mvn	r0, #0
    9ee0:	e1540000 	cmp	r4, r0
    9ee4:	0affffe7 	beq	9e88 <__libc_message+0x360>
    9ee8:	e1a00003 	mov	r0, r3
    9eec:	e3a07006 	mov	r7, #6
    9ef0:	ef000000 	svc	0x00000000
    9ef4:	eaffffb0 	b	9dbc <__libc_message+0x294>
    9ef8:	e59f2040 	ldr	r2, [pc, #64]	; 9f40 <__libc_message+0x418>
    9efc:	ebfffafb 	bl	8af0 <__aeabi_read_tp>
    9f00:	e79f2002 	ldr	r2, [pc, r2]
    9f04:	e2644000 	rsb	r4, r4, #0
    9f08:	e7804002 	str	r4, [r0, r2]
    9f0c:	eafffff5 	b	9ee8 <__libc_message+0x3c0>
    9f10:	00065a54 	.word	0x00065a54
    9f14:	00065a68 	.word	0x00065a68
    9f18:	00000902 	.word	0x00000902
    9f1c:	00079d38 	.word	0x00079d38
    9f20:	00084710 	.word	0x00084710
    9f24:	00065a74 	.word	0x00065a74
    9f28:	00079b64 	.word	0x00079b64
    9f2c:	00065a94 	.word	0x00065a94
    9f30:	00079b20 	.word	0x00079b20
    9f34:	00065ab4 	.word	0x00065ab4
    9f38:	00079af0 	.word	0x00079af0
    9f3c:	00079a94 	.word	0x00079a94
    9f40:	00079a64 	.word	0x00079a64

00009f44 <__libc_fatal>:
    9f44:	e92d4008 	push	{r3, lr}
    9f48:	e1a04000 	mov	r4, r0
    9f4c:	e3a00001 	mov	r0, #1
    9f50:	e59f1008 	ldr	r1, [pc, #8]	; 9f60 <__libc_fatal+0x1c>
    9f54:	e1a02004 	mov	r2, r4
    9f58:	ebfffef2 	bl	9b28 <__libc_message>
    9f5c:	eafffffa 	b	9f4c <__libc_fatal+0x8>
    9f60:	0007a3a0 	.word	0x0007a3a0

00009f64 <flush_cleanup>:
    9f64:	e92d40f0 	push	{r4, r5, r6, r7, lr}
    9f68:	e59f611c 	ldr	r6, [pc, #284]	; a08c <flush_cleanup+0x128>
    9f6c:	e5963008 	ldr	r3, [r6, #8]
    9f70:	e3530000 	cmp	r3, #0
    9f74:	0a00001a 	beq	9fe4 <flush_cleanup+0x80>
    9f78:	e5932000 	ldr	r2, [r3]
    9f7c:	e3120902 	tst	r2, #32768	; 0x8000
    9f80:	1a000017 	bne	9fe4 <flush_cleanup+0x80>
    9f84:	e5937048 	ldr	r7, [r3, #72]	; 0x48
    9f88:	e5973004 	ldr	r3, [r7, #4]
    9f8c:	e2433001 	sub	r3, r3, #1
    9f90:	e3530000 	cmp	r3, #0
    9f94:	e5873004 	str	r3, [r7, #4]
    9f98:	1a000011 	bne	9fe4 <flush_cleanup+0x80>
    9f9c:	e5873008 	str	r3, [r7, #8]
    9fa0:	e5975000 	ldr	r5, [r7]
    9fa4:	e3a01000 	mov	r1, #0
    9fa8:	e1a02007 	mov	r2, r7
    9fac:	e1a04005 	mov	r4, r5
    9fb0:	e5923000 	ldr	r3, [r2]
    9fb4:	e1530004 	cmp	r3, r4
    9fb8:	1a000005 	bne	9fd4 <flush_cleanup+0x70>
    9fbc:	e1a00004 	mov	r0, r4
    9fc0:	e3e03a0f 	mvn	r3, #61440	; 0xf000
    9fc4:	e1a0e00f 	mov	lr, pc
    9fc8:	e243f03f 	sub	pc, r3, #63	; 0x3f
    9fcc:	3afffff7 	bcc	9fb0 <flush_cleanup+0x4c>
    9fd0:	e1a03004 	mov	r3, r4
    9fd4:	e1550003 	cmp	r5, r3
    9fd8:	1afffff0 	bne	9fa0 <flush_cleanup+0x3c>
    9fdc:	e3550001 	cmp	r5, #1
    9fe0:	ca000020 	bgt	a068 <flush_cleanup+0x104>
    9fe4:	e5963010 	ldr	r3, [r6, #16]
    9fe8:	e2433001 	sub	r3, r3, #1
    9fec:	e3530000 	cmp	r3, #0
    9ff0:	e5863010 	str	r3, [r6, #16]
    9ff4:	18bd80f0 	popne	{r4, r5, r6, r7, pc}
    9ff8:	e59f208c 	ldr	r2, [pc, #140]	; a08c <flush_cleanup+0x128>
    9ffc:	e5823014 	str	r3, [r2, #20]
    a000:	e596500c 	ldr	r5, [r6, #12]
    a004:	e3a01000 	mov	r1, #0
    a008:	e59f2080 	ldr	r2, [pc, #128]	; a090 <flush_cleanup+0x12c>
    a00c:	e1a04005 	mov	r4, r5
    a010:	e5923000 	ldr	r3, [r2]
    a014:	e1530004 	cmp	r3, r4
    a018:	1a000005 	bne	a034 <flush_cleanup+0xd0>
    a01c:	e1a00004 	mov	r0, r4
    a020:	e3e03a0f 	mvn	r3, #61440	; 0xf000
    a024:	e1a0e00f 	mov	lr, pc
    a028:	e243f03f 	sub	pc, r3, #63	; 0x3f
    a02c:	3afffff7 	bcc	a010 <flush_cleanup+0xac>
    a030:	e1a03004 	mov	r3, r4
    a034:	e1550003 	cmp	r5, r3
    a038:	1afffff0 	bne	a000 <flush_cleanup+0x9c>
    a03c:	e3550001 	cmp	r5, #1
    a040:	d8bd80f0 	pople	{r4, r5, r6, r7, pc}
    a044:	ebfffaa9 	bl	8af0 <__aeabi_read_tp>
    a048:	e51014b8 	ldr	r1, [r0, #-1208]	; 0x4b8
    a04c:	e3a03000 	mov	r3, #0
    a050:	e1a00002 	mov	r0, r2
    a054:	e3811001 	orr	r1, r1, #1
    a058:	e3a02001 	mov	r2, #1
    a05c:	e3a070f0 	mov	r7, #240	; 0xf0
    a060:	ef000000 	svc	0x00000000
    a064:	e8bd80f0 	pop	{r4, r5, r6, r7, pc}
    a068:	ebfffaa0 	bl	8af0 <__aeabi_read_tp>
    a06c:	e51014b8 	ldr	r1, [r0, #-1208]	; 0x4b8
    a070:	e3a02001 	mov	r2, #1
    a074:	e1a00007 	mov	r0, r7
    a078:	e1811002 	orr	r1, r1, r2
    a07c:	e3a03000 	mov	r3, #0
    a080:	e3a070f0 	mov	r7, #240	; 0xf0
    a084:	ef000000 	svc	0x00000000
    a088:	eaffffd5 	b	9fe4 <flush_cleanup+0x80>
    a08c:	00084920 	.word	0x00084920
    a090:	0008492c 	.word	0x0008492c

0000a094 <save_for_backup>:
    a094:	e92d4ff0 	push	{r4, r5, r6, r7, r8, r9, sl, fp, lr}
    a098:	e1a05000 	mov	r5, r0
    a09c:	e5900030 	ldr	r0, [r0, #48]	; 0x30
    a0a0:	e595900c 	ldr	r9, [r5, #12]
    a0a4:	e3500000 	cmp	r0, #0
    a0a8:	e1a06001 	mov	r6, r1
    a0ac:	e24dd00c 	sub	sp, sp, #12
    a0b0:	e0691001 	rsb	r1, r9, r1
    a0b4:	0a000036 	beq	a194 <save_for_backup+0x100>
    a0b8:	e1a04001 	mov	r4, r1
    a0bc:	e1a03000 	mov	r3, r0
    a0c0:	e5932008 	ldr	r2, [r3, #8]
    a0c4:	e5933000 	ldr	r3, [r3]
    a0c8:	e1540002 	cmp	r4, r2
    a0cc:	a1a04002 	movge	r4, r2
    a0d0:	e3530000 	cmp	r3, #0
    a0d4:	1afffff9 	bne	a0c0 <save_for_backup+0x2c>
    a0d8:	e595b02c 	ldr	fp, [r5, #44]	; 0x2c
    a0dc:	e595a024 	ldr	sl, [r5, #36]	; 0x24
    a0e0:	e0642001 	rsb	r2, r4, r1
    a0e4:	e06a700b 	rsb	r7, sl, fp
    a0e8:	e1520007 	cmp	r2, r7
    a0ec:	8a00002e 	bhi	a1ac <save_for_backup+0x118>
    a0f0:	e3540000 	cmp	r4, #0
    a0f4:	e0627007 	rsb	r7, r2, r7
    a0f8:	ba000015 	blt	a154 <save_for_backup+0xc0>
    a0fc:	e3520000 	cmp	r2, #0
    a100:	1a00000b 	bne	a134 <save_for_backup+0xa0>
    a104:	e08aa007 	add	sl, sl, r7
    a108:	e3500000 	cmp	r0, #0
    a10c:	e585a028 	str	sl, [r5, #40]	; 0x28
    a110:	0a000005 	beq	a12c <save_for_backup+0x98>
    a114:	e5903008 	ldr	r3, [r0, #8]
    a118:	e0613003 	rsb	r3, r1, r3
    a11c:	e5803008 	str	r3, [r0, #8]
    a120:	e5900000 	ldr	r0, [r0]
    a124:	e3500000 	cmp	r0, #0
    a128:	1afffff9 	bne	a114 <save_for_backup+0x80>
    a12c:	e28dd00c 	add	sp, sp, #12
    a130:	e8bd8ff0 	pop	{r4, r5, r6, r7, r8, r9, sl, fp, pc}
    a134:	e08a0007 	add	r0, sl, r7
    a138:	e0891004 	add	r1, r9, r4
    a13c:	eb00259f 	bl	137c0 <memcpy>
    a140:	e595100c 	ldr	r1, [r5, #12]
    a144:	e595a024 	ldr	sl, [r5, #36]	; 0x24
    a148:	e5950030 	ldr	r0, [r5, #48]	; 0x30
    a14c:	e0611006 	rsb	r1, r1, r6
    a150:	eaffffeb 	b	a104 <save_for_backup+0x70>
    a154:	e08b1004 	add	r1, fp, r4
    a158:	e2642000 	rsb	r2, r4, #0
    a15c:	e08a0007 	add	r0, sl, r7
    a160:	eb00249a 	bl	133d0 <memmove>
    a164:	e595100c 	ldr	r1, [r5, #12]
    a168:	e5950024 	ldr	r0, [r5, #36]	; 0x24
    a16c:	e0644007 	rsb	r4, r4, r7
    a170:	e0612006 	rsb	r2, r1, r6
    a174:	e0800004 	add	r0, r0, r4
    a178:	eb002590 	bl	137c0 <memcpy>
    a17c:	e595100c 	ldr	r1, [r5, #12]
    a180:	e595a024 	ldr	sl, [r5, #36]	; 0x24
    a184:	e0611006 	rsb	r1, r1, r6
    a188:	e5950030 	ldr	r0, [r5, #48]	; 0x30
    a18c:	e08aa007 	add	sl, sl, r7
    a190:	eaffffdc 	b	a108 <save_for_backup+0x74>
    a194:	e595b02c 	ldr	fp, [r5, #44]	; 0x2c
    a198:	e595a024 	ldr	sl, [r5, #36]	; 0x24
    a19c:	e1a04001 	mov	r4, r1
    a1a0:	e06a700b 	rsb	r7, sl, fp
    a1a4:	e1a02000 	mov	r2, r0
    a1a8:	eaffffd0 	b	a0f0 <save_for_backup+0x5c>
    a1ac:	e2828064 	add	r8, r2, #100	; 0x64
    a1b0:	e1a00008 	mov	r0, r8
    a1b4:	e58d2004 	str	r2, [sp, #4]
    a1b8:	eb001a8f 	bl	10bfc <__libc_malloc>
    a1bc:	e2507000 	subs	r7, r0, #0
    a1c0:	e59d2004 	ldr	r2, [sp, #4]
    a1c4:	03e00000 	mvneq	r0, #0
    a1c8:	0affffd7 	beq	a12c <save_for_backup+0x98>
    a1cc:	e3540000 	cmp	r4, #0
    a1d0:	ba00000c 	blt	a208 <save_for_backup+0x174>
    a1d4:	e287a064 	add	sl, r7, #100	; 0x64
    a1d8:	e1a0000a 	mov	r0, sl
    a1dc:	e0891004 	add	r1, r9, r4
    a1e0:	eb002576 	bl	137c0 <memcpy>
    a1e4:	e5950024 	ldr	r0, [r5, #36]	; 0x24
    a1e8:	eb001c42 	bl	112f8 <__cfree>
    a1ec:	e595100c 	ldr	r1, [r5, #12]
    a1f0:	e0878008 	add	r8, r7, r8
    a1f4:	e5857024 	str	r7, [r5, #36]	; 0x24
    a1f8:	e585802c 	str	r8, [r5, #44]	; 0x2c
    a1fc:	e0611006 	rsb	r1, r1, r6
    a200:	e5950030 	ldr	r0, [r5, #48]	; 0x30
    a204:	eaffffbf 	b	a108 <save_for_backup+0x74>
    a208:	e287a064 	add	sl, r7, #100	; 0x64
    a20c:	e08b1004 	add	r1, fp, r4
    a210:	e2642000 	rsb	r2, r4, #0
    a214:	e1a0000a 	mov	r0, sl
    a218:	eb002538 	bl	13700 <__mempcpy>
    a21c:	e595100c 	ldr	r1, [r5, #12]
    a220:	e0612006 	rsb	r2, r1, r6
    a224:	eb002535 	bl	13700 <__mempcpy>
    a228:	eaffffed 	b	a1e4 <save_for_backup+0x150>

0000a22c <_IO_un_link>:
    a22c:	e92d47f0 	push	{r4, r5, r6, r7, r8, r9, sl, lr}
    a230:	e5903000 	ldr	r3, [r0]
    a234:	e24dd010 	sub	sp, sp, #16
    a238:	e3130080 	tst	r3, #128	; 0x80
    a23c:	e1a05000 	mov	r5, r0
    a240:	0a000076 	beq	a420 <_IO_un_link+0x1f4>
    a244:	e59fa2c0 	ldr	sl, [pc, #704]	; a50c <_IO_un_link+0x2e0>
    a248:	e25aa000 	subs	sl, sl, #0
    a24c:	13a0a001 	movne	sl, #1
    a250:	e35a0000 	cmp	sl, #0
    a254:	1a000079 	bne	a440 <_IO_un_link+0x214>
    a258:	e59f32b0 	ldr	r3, [pc, #688]	; a510 <_IO_un_link+0x2e4>
    a25c:	e88d0408 	stm	sp, {r3, sl}
    a260:	e59f62ac 	ldr	r6, [pc, #684]	; a514 <_IO_un_link+0x2e8>
    a264:	ebfffa21 	bl	8af0 <__aeabi_read_tp>
    a268:	e5963014 	ldr	r3, [r6, #20]
    a26c:	e2408d13 	sub	r8, r0, #1216	; 0x4c0
    a270:	e1530008 	cmp	r3, r8
    a274:	e1a09000 	mov	r9, r0
    a278:	0a00000e 	beq	a2b8 <_IO_un_link+0x8c>
    a27c:	e3a01001 	mov	r1, #1
    a280:	e286200c 	add	r2, r6, #12
    a284:	e3a04000 	mov	r4, #0
    a288:	e5923000 	ldr	r3, [r2]
    a28c:	e1530004 	cmp	r3, r4
    a290:	1a000005 	bne	a2ac <_IO_un_link+0x80>
    a294:	e1a00004 	mov	r0, r4
    a298:	e3e03a0f 	mvn	r3, #61440	; 0xf000
    a29c:	e1a0e00f 	mov	lr, pc
    a2a0:	e243f03f 	sub	pc, r3, #63	; 0x3f
    a2a4:	3afffff7 	bcc	a288 <_IO_un_link+0x5c>
    a2a8:	e1a03004 	mov	r3, r4
    a2ac:	e1530004 	cmp	r3, r4
    a2b0:	1a00008f 	bne	a4f4 <_IO_un_link+0x2c8>
    a2b4:	e5868014 	str	r8, [r6, #20]
    a2b8:	e5963010 	ldr	r3, [r6, #16]
    a2bc:	e5954000 	ldr	r4, [r5]
    a2c0:	e2833001 	add	r3, r3, #1
    a2c4:	e2144902 	ands	r4, r4, #32768	; 0x8000
    a2c8:	e5863010 	str	r3, [r6, #16]
    a2cc:	e5865008 	str	r5, [r6, #8]
    a2d0:	1a000015 	bne	a32c <_IO_un_link+0x100>
    a2d4:	e5957048 	ldr	r7, [r5, #72]	; 0x48
    a2d8:	e5973008 	ldr	r3, [r7, #8]
    a2dc:	e1580003 	cmp	r8, r3
    a2e0:	0a00000e 	beq	a320 <_IO_un_link+0xf4>
    a2e4:	e3a01001 	mov	r1, #1
    a2e8:	e1a02007 	mov	r2, r7
    a2ec:	e5923000 	ldr	r3, [r2]
    a2f0:	e1530004 	cmp	r3, r4
    a2f4:	1a000005 	bne	a310 <_IO_un_link+0xe4>
    a2f8:	e1a00004 	mov	r0, r4
    a2fc:	e3e03a0f 	mvn	r3, #61440	; 0xf000
    a300:	e1a0e00f 	mov	lr, pc
    a304:	e243f03f 	sub	pc, r3, #63	; 0x3f
    a308:	3afffff7 	bcc	a2ec <_IO_un_link+0xc0>
    a30c:	e1a03004 	mov	r3, r4
    a310:	e3530000 	cmp	r3, #0
    a314:	1a000079 	bne	a500 <_IO_un_link+0x2d4>
    a318:	e5957048 	ldr	r7, [r5, #72]	; 0x48
    a31c:	e5878008 	str	r8, [r7, #8]
    a320:	e5973004 	ldr	r3, [r7, #4]
    a324:	e2833001 	add	r3, r3, #1
    a328:	e5873004 	str	r3, [r7, #4]
    a32c:	e59f31e4 	ldr	r3, [pc, #484]	; a518 <_IO_un_link+0x2ec>
    a330:	e5932000 	ldr	r2, [r3]
    a334:	e3520000 	cmp	r2, #0
    a338:	0a00000e 	beq	a378 <_IO_un_link+0x14c>
    a33c:	e1550002 	cmp	r5, r2
    a340:	0a00005d 	beq	a4bc <_IO_un_link+0x290>
    a344:	e5923034 	ldr	r3, [r2, #52]	; 0x34
    a348:	e3530000 	cmp	r3, #0
    a34c:	0a000009 	beq	a378 <_IO_un_link+0x14c>
    a350:	e1550003 	cmp	r5, r3
    a354:	02822034 	addeq	r2, r2, #52	; 0x34
    a358:	1a000002 	bne	a368 <_IO_un_link+0x13c>
    a35c:	ea000031 	b	a428 <_IO_un_link+0x1fc>
    a360:	e1550003 	cmp	r5, r3
    a364:	0a00002f 	beq	a428 <_IO_un_link+0x1fc>
    a368:	e2832034 	add	r2, r3, #52	; 0x34
    a36c:	e5933034 	ldr	r3, [r3, #52]	; 0x34
    a370:	e3530000 	cmp	r3, #0
    a374:	1afffff9 	bne	a360 <_IO_un_link+0x134>
    a378:	e5953000 	ldr	r3, [r5]
    a37c:	e3c32080 	bic	r2, r3, #128	; 0x80
    a380:	e3130902 	tst	r3, #32768	; 0x8000
    a384:	e5852000 	str	r2, [r5]
    a388:	1a000005 	bne	a3a4 <_IO_un_link+0x178>
    a38c:	e5957048 	ldr	r7, [r5, #72]	; 0x48
    a390:	e5973004 	ldr	r3, [r7, #4]
    a394:	e2433001 	sub	r3, r3, #1
    a398:	e3530000 	cmp	r3, #0
    a39c:	e5873004 	str	r3, [r7, #4]
    a3a0:	0a00002b 	beq	a454 <_IO_un_link+0x228>
    a3a4:	e5963010 	ldr	r3, [r6, #16]
    a3a8:	e3a02000 	mov	r2, #0
    a3ac:	e2433001 	sub	r3, r3, #1
    a3b0:	e3530000 	cmp	r3, #0
    a3b4:	e5862008 	str	r2, [r6, #8]
    a3b8:	e5863010 	str	r3, [r6, #16]
    a3bc:	1a000012 	bne	a40c <_IO_un_link+0x1e0>
    a3c0:	e59f214c 	ldr	r2, [pc, #332]	; a514 <_IO_un_link+0x2e8>
    a3c4:	e5823014 	str	r3, [r2, #20]
    a3c8:	e596500c 	ldr	r5, [r6, #12]
    a3cc:	e3a01000 	mov	r1, #0
    a3d0:	e59f2144 	ldr	r2, [pc, #324]	; a51c <_IO_un_link+0x2f0>
    a3d4:	e1a04005 	mov	r4, r5
    a3d8:	e5923000 	ldr	r3, [r2]
    a3dc:	e1530004 	cmp	r3, r4
    a3e0:	1a000005 	bne	a3fc <_IO_un_link+0x1d0>
    a3e4:	e1a00004 	mov	r0, r4
    a3e8:	e3e03a0f 	mvn	r3, #61440	; 0xf000
    a3ec:	e1a0e00f 	mov	lr, pc
    a3f0:	e243f03f 	sub	pc, r3, #63	; 0x3f
    a3f4:	3afffff7 	bcc	a3d8 <_IO_un_link+0x1ac>
    a3f8:	e1a03004 	mov	r3, r4
    a3fc:	e1550003 	cmp	r5, r3
    a400:	1afffff0 	bne	a3c8 <_IO_un_link+0x19c>
    a404:	e3550001 	cmp	r5, #1
    a408:	ca000031 	bgt	a4d4 <_IO_un_link+0x2a8>
    a40c:	e35a0000 	cmp	sl, #0
    a410:	0a000002 	beq	a420 <_IO_un_link+0x1f4>
    a414:	e1a0000d 	mov	r0, sp
    a418:	e3a01000 	mov	r1, #0
    a41c:	e320f000 	nop	{0}
    a420:	e28dd010 	add	sp, sp, #16
    a424:	e8bd87f0 	pop	{r4, r5, r6, r7, r8, r9, sl, pc}
    a428:	e5963018 	ldr	r3, [r6, #24]
    a42c:	e5951034 	ldr	r1, [r5, #52]	; 0x34
    a430:	e2833001 	add	r3, r3, #1
    a434:	e5821000 	str	r1, [r2]
    a438:	e5863018 	str	r3, [r6, #24]
    a43c:	eaffffcd 	b	a378 <_IO_un_link+0x14c>
    a440:	e1a0000d 	mov	r0, sp
    a444:	e59f10c4 	ldr	r1, [pc, #196]	; a510 <_IO_un_link+0x2e4>
    a448:	e3a02000 	mov	r2, #0
    a44c:	e320f000 	nop	{0}
    a450:	eaffff82 	b	a260 <_IO_un_link+0x34>
    a454:	e5873008 	str	r3, [r7, #8]
    a458:	e5975000 	ldr	r5, [r7]
    a45c:	e3a01000 	mov	r1, #0
    a460:	e1a02007 	mov	r2, r7
    a464:	e1a04005 	mov	r4, r5
    a468:	e5923000 	ldr	r3, [r2]
    a46c:	e1530004 	cmp	r3, r4
    a470:	1a000005 	bne	a48c <_IO_un_link+0x260>
    a474:	e1a00004 	mov	r0, r4
    a478:	e3e03a0f 	mvn	r3, #61440	; 0xf000
    a47c:	e1a0e00f 	mov	lr, pc
    a480:	e243f03f 	sub	pc, r3, #63	; 0x3f
    a484:	3afffff7 	bcc	a468 <_IO_un_link+0x23c>
    a488:	e1a03004 	mov	r3, r4
    a48c:	e1550003 	cmp	r5, r3
    a490:	1afffff0 	bne	a458 <_IO_un_link+0x22c>
    a494:	e3550001 	cmp	r5, #1
    a498:	daffffc1 	ble	a3a4 <_IO_un_link+0x178>
    a49c:	e51914b8 	ldr	r1, [r9, #-1208]	; 0x4b8
    a4a0:	e1a00007 	mov	r0, r7
    a4a4:	e3811001 	orr	r1, r1, #1
    a4a8:	e3a02001 	mov	r2, #1
    a4ac:	e3a03000 	mov	r3, #0
    a4b0:	e3a070f0 	mov	r7, #240	; 0xf0
    a4b4:	ef000000 	svc	0x00000000
    a4b8:	eaffffb9 	b	a3a4 <_IO_un_link+0x178>
    a4bc:	e5962018 	ldr	r2, [r6, #24]
    a4c0:	e5951034 	ldr	r1, [r5, #52]	; 0x34
    a4c4:	e2822001 	add	r2, r2, #1
    a4c8:	e5831000 	str	r1, [r3]
    a4cc:	e5862018 	str	r2, [r6, #24]
    a4d0:	eaffffa8 	b	a378 <_IO_un_link+0x14c>
    a4d4:	e51914b8 	ldr	r1, [r9, #-1208]	; 0x4b8
    a4d8:	e1a00002 	mov	r0, r2
    a4dc:	e3811001 	orr	r1, r1, #1
    a4e0:	e3a02001 	mov	r2, #1
    a4e4:	e3a03000 	mov	r3, #0
    a4e8:	e3a070f0 	mov	r7, #240	; 0xf0
    a4ec:	ef000000 	svc	0x00000000
    a4f0:	eaffffc5 	b	a40c <_IO_un_link+0x1e0>
    a4f4:	e1a00002 	mov	r0, r2
    a4f8:	eb002acc 	bl	15030 <__lll_lock_wait_private>
    a4fc:	eaffff6c 	b	a2b4 <_IO_un_link+0x88>
    a500:	e1a00007 	mov	r0, r7
    a504:	eb002ac9 	bl	15030 <__lll_lock_wait_private>
    a508:	eaffff82 	b	a318 <_IO_un_link+0xec>
    a50c:	00000000 	.word	0x00000000
    a510:	00009f64 	.word	0x00009f64
    a514:	00084920 	.word	0x00084920
    a518:	00083b90 	.word	0x00083b90
    a51c:	0008492c 	.word	0x0008492c

0000a520 <_IO_link_in>:
    a520:	e92d47f0 	push	{r4, r5, r6, r7, r8, r9, sl, lr}
    a524:	e5903000 	ldr	r3, [r0]
    a528:	e24dd010 	sub	sp, sp, #16
    a52c:	e2132080 	ands	r2, r3, #128	; 0x80
    a530:	e1a05000 	mov	r5, r0
    a534:	1a000068 	bne	a6dc <_IO_link_in+0x1bc>
    a538:	e59fa274 	ldr	sl, [pc, #628]	; a7b4 <_IO_link_in+0x294>
    a53c:	e3833080 	orr	r3, r3, #128	; 0x80
    a540:	e25aa000 	subs	sl, sl, #0
    a544:	13a0a001 	movne	sl, #1
    a548:	e35a0000 	cmp	sl, #0
    a54c:	e5803000 	str	r3, [r0]
    a550:	1a00006b 	bne	a704 <_IO_link_in+0x1e4>
    a554:	e59f325c 	ldr	r3, [pc, #604]	; a7b8 <_IO_link_in+0x298>
    a558:	e88d0408 	stm	sp, {r3, sl}
    a55c:	e59f6258 	ldr	r6, [pc, #600]	; a7bc <_IO_link_in+0x29c>
    a560:	ebfff962 	bl	8af0 <__aeabi_read_tp>
    a564:	e5963014 	ldr	r3, [r6, #20]
    a568:	e2408d13 	sub	r8, r0, #1216	; 0x4c0
    a56c:	e1530008 	cmp	r3, r8
    a570:	e1a09000 	mov	r9, r0
    a574:	0a00000e 	beq	a5b4 <_IO_link_in+0x94>
    a578:	e3a01001 	mov	r1, #1
    a57c:	e286200c 	add	r2, r6, #12
    a580:	e3a04000 	mov	r4, #0
    a584:	e5923000 	ldr	r3, [r2]
    a588:	e1530004 	cmp	r3, r4
    a58c:	1a000005 	bne	a5a8 <_IO_link_in+0x88>
    a590:	e1a00004 	mov	r0, r4
    a594:	e3e03a0f 	mvn	r3, #61440	; 0xf000
    a598:	e1a0e00f 	mov	lr, pc
    a59c:	e243f03f 	sub	pc, r3, #63	; 0x3f
    a5a0:	3afffff7 	bcc	a584 <_IO_link_in+0x64>
    a5a4:	e1a03004 	mov	r3, r4
    a5a8:	e1530004 	cmp	r3, r4
    a5ac:	1a000072 	bne	a77c <_IO_link_in+0x25c>
    a5b0:	e5868014 	str	r8, [r6, #20]
    a5b4:	e5961010 	ldr	r1, [r6, #16]
    a5b8:	e5953000 	ldr	r3, [r5]
    a5bc:	e2811001 	add	r1, r1, #1
    a5c0:	e2134902 	ands	r4, r3, #32768	; 0x8000
    a5c4:	e59f21f0 	ldr	r2, [pc, #496]	; a7bc <_IO_link_in+0x29c>
    a5c8:	e5861010 	str	r1, [r6, #16]
    a5cc:	e5865008 	str	r5, [r6, #8]
    a5d0:	1a000043 	bne	a6e4 <_IO_link_in+0x1c4>
    a5d4:	e5957048 	ldr	r7, [r5, #72]	; 0x48
    a5d8:	e5972008 	ldr	r2, [r7, #8]
    a5dc:	e1580002 	cmp	r8, r2
    a5e0:	0a00000f 	beq	a624 <_IO_link_in+0x104>
    a5e4:	e3a01001 	mov	r1, #1
    a5e8:	e1a02007 	mov	r2, r7
    a5ec:	e5923000 	ldr	r3, [r2]
    a5f0:	e1530004 	cmp	r3, r4
    a5f4:	1a000005 	bne	a610 <_IO_link_in+0xf0>
    a5f8:	e1a00004 	mov	r0, r4
    a5fc:	e3e03a0f 	mvn	r3, #61440	; 0xf000
    a600:	e1a0e00f 	mov	lr, pc
    a604:	e243f03f 	sub	pc, r3, #63	; 0x3f
    a608:	3afffff7 	bcc	a5ec <_IO_link_in+0xcc>
    a60c:	e1a03004 	mov	r3, r4
    a610:	e3530000 	cmp	r3, #0
    a614:	1a000063 	bne	a7a8 <_IO_link_in+0x288>
    a618:	e5957048 	ldr	r7, [r5, #72]	; 0x48
    a61c:	e5953000 	ldr	r3, [r5]
    a620:	e5878008 	str	r8, [r7, #8]
    a624:	e59f1194 	ldr	r1, [pc, #404]	; a7c0 <_IO_link_in+0x2a0>
    a628:	e5972004 	ldr	r2, [r7, #4]
    a62c:	e5960018 	ldr	r0, [r6, #24]
    a630:	e591c000 	ldr	ip, [r1]
    a634:	e2824001 	add	r4, r2, #1
    a638:	e2800001 	add	r0, r0, #1
    a63c:	e3130902 	tst	r3, #32768	; 0x8000
    a640:	e5874004 	str	r4, [r7, #4]
    a644:	e5815000 	str	r5, [r1]
    a648:	e585c034 	str	ip, [r5, #52]	; 0x34
    a64c:	e5860018 	str	r0, [r6, #24]
    a650:	1a000002 	bne	a660 <_IO_link_in+0x140>
    a654:	e3520000 	cmp	r2, #0
    a658:	e5872004 	str	r2, [r7, #4]
    a65c:	0a00002c 	beq	a714 <_IO_link_in+0x1f4>
    a660:	e5963010 	ldr	r3, [r6, #16]
    a664:	e3a02000 	mov	r2, #0
    a668:	e2433001 	sub	r3, r3, #1
    a66c:	e3530000 	cmp	r3, #0
    a670:	e5862008 	str	r2, [r6, #8]
    a674:	e5863010 	str	r3, [r6, #16]
    a678:	1a000012 	bne	a6c8 <_IO_link_in+0x1a8>
    a67c:	e59f2138 	ldr	r2, [pc, #312]	; a7bc <_IO_link_in+0x29c>
    a680:	e5823014 	str	r3, [r2, #20]
    a684:	e596500c 	ldr	r5, [r6, #12]
    a688:	e3a01000 	mov	r1, #0
    a68c:	e59f2130 	ldr	r2, [pc, #304]	; a7c4 <_IO_link_in+0x2a4>
    a690:	e1a04005 	mov	r4, r5
    a694:	e5923000 	ldr	r3, [r2]
    a698:	e1530004 	cmp	r3, r4
    a69c:	1a000005 	bne	a6b8 <_IO_link_in+0x198>
    a6a0:	e1a00004 	mov	r0, r4
    a6a4:	e3e03a0f 	mvn	r3, #61440	; 0xf000
    a6a8:	e1a0e00f 	mov	lr, pc
    a6ac:	e243f03f 	sub	pc, r3, #63	; 0x3f
    a6b0:	3afffff7 	bcc	a694 <_IO_link_in+0x174>
    a6b4:	e1a03004 	mov	r3, r4
    a6b8:	e1550003 	cmp	r5, r3
    a6bc:	1afffff0 	bne	a684 <_IO_link_in+0x164>
    a6c0:	e3550001 	cmp	r5, #1
    a6c4:	ca00002f 	bgt	a788 <_IO_link_in+0x268>
    a6c8:	e35a0000 	cmp	sl, #0
    a6cc:	0a000002 	beq	a6dc <_IO_link_in+0x1bc>
    a6d0:	e1a0000d 	mov	r0, sp
    a6d4:	e3a01000 	mov	r1, #0
    a6d8:	e320f000 	nop	{0}
    a6dc:	e28dd010 	add	sp, sp, #16
    a6e0:	e8bd87f0 	pop	{r4, r5, r6, r7, r8, r9, sl, pc}
    a6e4:	e59f30d4 	ldr	r3, [pc, #212]	; a7c0 <_IO_link_in+0x2a0>
    a6e8:	e5921018 	ldr	r1, [r2, #24]
    a6ec:	e5930000 	ldr	r0, [r3]
    a6f0:	e2811001 	add	r1, r1, #1
    a6f4:	e5850034 	str	r0, [r5, #52]	; 0x34
    a6f8:	e5835000 	str	r5, [r3]
    a6fc:	e5821018 	str	r1, [r2, #24]
    a700:	eaffffd6 	b	a660 <_IO_link_in+0x140>
    a704:	e1a0000d 	mov	r0, sp
    a708:	e59f10a8 	ldr	r1, [pc, #168]	; a7b8 <_IO_link_in+0x298>
    a70c:	e320f000 	nop	{0}
    a710:	eaffff91 	b	a55c <_IO_link_in+0x3c>
    a714:	e5872008 	str	r2, [r7, #8]
    a718:	e5975000 	ldr	r5, [r7]
    a71c:	e3a01000 	mov	r1, #0
    a720:	e1a02007 	mov	r2, r7
    a724:	e1a04005 	mov	r4, r5
    a728:	e5923000 	ldr	r3, [r2]
    a72c:	e1530004 	cmp	r3, r4
    a730:	1a000005 	bne	a74c <_IO_link_in+0x22c>
    a734:	e1a00004 	mov	r0, r4
    a738:	e3e03a0f 	mvn	r3, #61440	; 0xf000
    a73c:	e1a0e00f 	mov	lr, pc
    a740:	e243f03f 	sub	pc, r3, #63	; 0x3f
    a744:	3afffff7 	bcc	a728 <_IO_link_in+0x208>
    a748:	e1a03004 	mov	r3, r4
    a74c:	e1550003 	cmp	r5, r3
    a750:	1afffff0 	bne	a718 <_IO_link_in+0x1f8>
    a754:	e3550001 	cmp	r5, #1
    a758:	daffffc0 	ble	a660 <_IO_link_in+0x140>
    a75c:	e51914b8 	ldr	r1, [r9, #-1208]	; 0x4b8
    a760:	e1a00007 	mov	r0, r7
    a764:	e3811001 	orr	r1, r1, #1
    a768:	e3a02001 	mov	r2, #1
    a76c:	e3a03000 	mov	r3, #0
    a770:	e3a070f0 	mov	r7, #240	; 0xf0
    a774:	ef000000 	svc	0x00000000
    a778:	eaffffb8 	b	a660 <_IO_link_in+0x140>
    a77c:	e1a00002 	mov	r0, r2
    a780:	eb002a2a 	bl	15030 <__lll_lock_wait_private>
    a784:	eaffff89 	b	a5b0 <_IO_link_in+0x90>
    a788:	e51914b8 	ldr	r1, [r9, #-1208]	; 0x4b8
    a78c:	e1a00002 	mov	r0, r2
    a790:	e3811001 	orr	r1, r1, #1
    a794:	e3a02001 	mov	r2, #1
    a798:	e3a03000 	mov	r3, #0
    a79c:	e3a070f0 	mov	r7, #240	; 0xf0
    a7a0:	ef000000 	svc	0x00000000
    a7a4:	eaffffc7 	b	a6c8 <_IO_link_in+0x1a8>
    a7a8:	e1a00007 	mov	r0, r7
    a7ac:	eb002a1f 	bl	15030 <__lll_lock_wait_private>
    a7b0:	eaffff98 	b	a618 <_IO_link_in+0xf8>
    a7b4:	00000000 	.word	0x00000000
    a7b8:	00009f64 	.word	0x00009f64
    a7bc:	00084920 	.word	0x00084920
    a7c0:	00083b90 	.word	0x00083b90
    a7c4:	0008492c 	.word	0x0008492c

0000a7c8 <_IO_least_marker>:
    a7c8:	e5903030 	ldr	r3, [r0, #48]	; 0x30
    a7cc:	e590200c 	ldr	r2, [r0, #12]
    a7d0:	e3530000 	cmp	r3, #0
    a7d4:	e0620001 	rsb	r0, r2, r1
    a7d8:	012fff1e 	bxeq	lr
    a7dc:	e5932008 	ldr	r2, [r3, #8]
    a7e0:	e5933000 	ldr	r3, [r3]
    a7e4:	e1500002 	cmp	r0, r2
    a7e8:	a1a00002 	movge	r0, r2
    a7ec:	e3530000 	cmp	r3, #0
    a7f0:	1afffff9 	bne	a7dc <_IO_least_marker+0x14>
    a7f4:	e12fff1e 	bx	lr

0000a7f8 <_IO_switch_to_main_get_area>:
    a7f8:	e52d4004 	push	{r4}		; (str r4, [sp, #-4]!)
    a7fc:	e5904000 	ldr	r4, [r0]
    a800:	e5903024 	ldr	r3, [r0, #36]	; 0x24
    a804:	e5901008 	ldr	r1, [r0, #8]
    a808:	e590c02c 	ldr	ip, [r0, #44]	; 0x2c
    a80c:	e590200c 	ldr	r2, [r0, #12]
    a810:	e3c44c01 	bic	r4, r4, #256	; 0x100
    a814:	e5804000 	str	r4, [r0]
    a818:	e580c008 	str	ip, [r0, #8]
    a81c:	e580102c 	str	r1, [r0, #44]	; 0x2c
    a820:	e580300c 	str	r3, [r0, #12]
    a824:	e5802024 	str	r2, [r0, #36]	; 0x24
    a828:	e5803004 	str	r3, [r0, #4]
    a82c:	e8bd0010 	pop	{r4}
    a830:	e12fff1e 	bx	lr

0000a834 <_IO_switch_to_backup_area>:
    a834:	e52d4004 	push	{r4}		; (str r4, [sp, #-4]!)
    a838:	e5904000 	ldr	r4, [r0]
    a83c:	e590302c 	ldr	r3, [r0, #44]	; 0x2c
    a840:	e590c008 	ldr	ip, [r0, #8]
    a844:	e590200c 	ldr	r2, [r0, #12]
    a848:	e5901024 	ldr	r1, [r0, #36]	; 0x24
    a84c:	e3844c01 	orr	r4, r4, #256	; 0x100
    a850:	e5804000 	str	r4, [r0]
    a854:	e5803008 	str	r3, [r0, #8]
    a858:	e580c02c 	str	ip, [r0, #44]	; 0x2c
    a85c:	e580100c 	str	r1, [r0, #12]
    a860:	e5802024 	str	r2, [r0, #36]	; 0x24
    a864:	e5803004 	str	r3, [r0, #4]
    a868:	e8bd0010 	pop	{r4}
    a86c:	e12fff1e 	bx	lr

0000a870 <_IO_switch_to_get_mode>:
    a870:	e5903014 	ldr	r3, [r0, #20]
    a874:	e5902010 	ldr	r2, [r0, #16]
    a878:	e92d4010 	push	{r4, lr}
    a87c:	e1530002 	cmp	r3, r2
    a880:	e1a04000 	mov	r4, r0
    a884:	8a000011 	bhi	a8d0 <_IO_switch_to_get_mode+0x60>
    a888:	e5942000 	ldr	r2, [r4]
    a88c:	e3120c01 	tst	r2, #256	; 0x100
    a890:	1a00000b 	bne	a8c4 <_IO_switch_to_get_mode+0x54>
    a894:	e5940008 	ldr	r0, [r4, #8]
    a898:	e594101c 	ldr	r1, [r4, #28]
    a89c:	e1500003 	cmp	r0, r3
    a8a0:	e584100c 	str	r1, [r4, #12]
    a8a4:	35843008 	strcc	r3, [r4, #8]
    a8a8:	e3c22b02 	bic	r2, r2, #2048	; 0x800
    a8ac:	e5843004 	str	r3, [r4, #4]
    a8b0:	e5843018 	str	r3, [r4, #24]
    a8b4:	e5843010 	str	r3, [r4, #16]
    a8b8:	e5842000 	str	r2, [r4]
    a8bc:	e3a00000 	mov	r0, #0
    a8c0:	e8bd8010 	pop	{r4, pc}
    a8c4:	e5941028 	ldr	r1, [r4, #40]	; 0x28
    a8c8:	e584100c 	str	r1, [r4, #12]
    a8cc:	eafffff5 	b	a8a8 <_IO_switch_to_get_mode+0x38>
    a8d0:	e5903098 	ldr	r3, [r0, #152]	; 0x98
    a8d4:	e3e01000 	mvn	r1, #0
    a8d8:	e593300c 	ldr	r3, [r3, #12]
    a8dc:	e12fff33 	blx	r3
    a8e0:	e3700001 	cmn	r0, #1
    a8e4:	08bd8010 	popeq	{r4, pc}
    a8e8:	e5943014 	ldr	r3, [r4, #20]
    a8ec:	eaffffe5 	b	a888 <_IO_switch_to_get_mode+0x18>

0000a8f0 <_IO_free_backup_area>:
    a8f0:	e5903000 	ldr	r3, [r0]
    a8f4:	e92d4010 	push	{r4, lr}
    a8f8:	e3130c01 	tst	r3, #256	; 0x100
    a8fc:	e1a04000 	mov	r4, r0
    a900:	05900024 	ldreq	r0, [r0, #36]	; 0x24
    a904:	0a00000a 	beq	a934 <_IO_free_backup_area+0x44>
    a908:	e5942024 	ldr	r2, [r4, #36]	; 0x24
    a90c:	e5941008 	ldr	r1, [r4, #8]
    a910:	e594c02c 	ldr	ip, [r4, #44]	; 0x2c
    a914:	e594000c 	ldr	r0, [r4, #12]
    a918:	e3c33c01 	bic	r3, r3, #256	; 0x100
    a91c:	e5843000 	str	r3, [r4]
    a920:	e584c008 	str	ip, [r4, #8]
    a924:	e584102c 	str	r1, [r4, #44]	; 0x2c
    a928:	e584200c 	str	r2, [r4, #12]
    a92c:	e5840024 	str	r0, [r4, #36]	; 0x24
    a930:	e5842004 	str	r2, [r4, #4]
    a934:	eb001a6f 	bl	112f8 <__cfree>
    a938:	e3a03000 	mov	r3, #0
    a93c:	e5843024 	str	r3, [r4, #36]	; 0x24
    a940:	e584302c 	str	r3, [r4, #44]	; 0x2c
    a944:	e5843028 	str	r3, [r4, #40]	; 0x28
    a948:	e8bd8010 	pop	{r4, pc}

0000a94c <__overflow>:
    a94c:	e92d4008 	push	{r3, lr}
    a950:	e590306c 	ldr	r3, [r0, #108]	; 0x6c
    a954:	e3530000 	cmp	r3, #0
    a958:	03e03000 	mvneq	r3, #0
    a95c:	0580306c 	streq	r3, [r0, #108]	; 0x6c
    a960:	e5903098 	ldr	r3, [r0, #152]	; 0x98
    a964:	e593300c 	ldr	r3, [r3, #12]
    a968:	e12fff33 	blx	r3
    a96c:	e8bd8008 	pop	{r3, pc}

0000a970 <__underflow>:
    a970:	e590306c 	ldr	r3, [r0, #108]	; 0x6c
    a974:	e92d4010 	push	{r4, lr}
    a978:	e3530000 	cmp	r3, #0
    a97c:	03e03000 	mvneq	r3, #0
    a980:	e1a04000 	mov	r4, r0
    a984:	0580306c 	streq	r3, [r0, #108]	; 0x6c
    a988:	1a000017 	bne	a9ec <__underflow+0x7c>
    a98c:	e5943000 	ldr	r3, [r4]
    a990:	e3130b02 	tst	r3, #2048	; 0x800
    a994:	1a000026 	bne	aa34 <__underflow+0xc4>
    a998:	e5943004 	ldr	r3, [r4, #4]
    a99c:	e5942008 	ldr	r2, [r4, #8]
    a9a0:	e1530002 	cmp	r3, r2
    a9a4:	35d30000 	ldrbcc	r0, [r3]
    a9a8:	38bd8010 	popcc	{r4, pc}
    a9ac:	e5943000 	ldr	r3, [r4]
    a9b0:	e3130c01 	tst	r3, #256	; 0x100
    a9b4:	1a000010 	bne	a9fc <__underflow+0x8c>
    a9b8:	e5943030 	ldr	r3, [r4, #48]	; 0x30
    a9bc:	e3530000 	cmp	r3, #0
    a9c0:	1a000020 	bne	aa48 <__underflow+0xd8>
    a9c4:	e5943024 	ldr	r3, [r4, #36]	; 0x24
    a9c8:	e3530000 	cmp	r3, #0
    a9cc:	0a000001 	beq	a9d8 <__underflow+0x68>
    a9d0:	e1a00004 	mov	r0, r4
    a9d4:	ebffffc5 	bl	a8f0 <_IO_free_backup_area>
    a9d8:	e5943098 	ldr	r3, [r4, #152]	; 0x98
    a9dc:	e1a00004 	mov	r0, r4
    a9e0:	e5933010 	ldr	r3, [r3, #16]
    a9e4:	e12fff33 	blx	r3
    a9e8:	e8bd8010 	pop	{r4, pc}
    a9ec:	e3730001 	cmn	r3, #1
    a9f0:	13e00000 	mvnne	r0, #0
    a9f4:	18bd8010 	popne	{r4, pc}
    a9f8:	eaffffe3 	b	a98c <__underflow+0x1c>
    a9fc:	e5941024 	ldr	r1, [r4, #36]	; 0x24
    aa00:	e594002c 	ldr	r0, [r4, #44]	; 0x2c
    aa04:	e594c00c 	ldr	ip, [r4, #12]
    aa08:	e3c33c01 	bic	r3, r3, #256	; 0x100
    aa0c:	e1500001 	cmp	r0, r1
    aa10:	e5843000 	str	r3, [r4]
    aa14:	e5840008 	str	r0, [r4, #8]
    aa18:	e584202c 	str	r2, [r4, #44]	; 0x2c
    aa1c:	e584100c 	str	r1, [r4, #12]
    aa20:	e584c024 	str	ip, [r4, #36]	; 0x24
    aa24:	e5841004 	str	r1, [r4, #4]
    aa28:	85d10000 	ldrbhi	r0, [r1]
    aa2c:	9affffe1 	bls	a9b8 <__underflow+0x48>
    aa30:	e8bd8010 	pop	{r4, pc}
    aa34:	e1a00004 	mov	r0, r4
    aa38:	ebffff8c 	bl	a870 <_IO_switch_to_get_mode>
    aa3c:	e3700001 	cmn	r0, #1
    aa40:	1affffd4 	bne	a998 <__underflow+0x28>
    aa44:	e8bd8010 	pop	{r4, pc}
    aa48:	e1a00004 	mov	r0, r4
    aa4c:	e5941008 	ldr	r1, [r4, #8]
    aa50:	ebfffd8f 	bl	a094 <save_for_backup>
    aa54:	e3500000 	cmp	r0, #0
    aa58:	0affffde 	beq	a9d8 <__underflow+0x68>
    aa5c:	e3e00000 	mvn	r0, #0
    aa60:	e8bd8010 	pop	{r4, pc}

0000aa64 <__uflow>:
    aa64:	e590306c 	ldr	r3, [r0, #108]	; 0x6c
    aa68:	e92d4010 	push	{r4, lr}
    aa6c:	e3530000 	cmp	r3, #0
    aa70:	03e03000 	mvneq	r3, #0
    aa74:	e1a04000 	mov	r4, r0
    aa78:	0580306c 	streq	r3, [r0, #108]	; 0x6c
    aa7c:	1a000016 	bne	aadc <__uflow+0x78>
    aa80:	e5943000 	ldr	r3, [r4]
    aa84:	e3130b02 	tst	r3, #2048	; 0x800
    aa88:	1a000029 	bne	ab34 <__uflow+0xd0>
    aa8c:	e5943004 	ldr	r3, [r4, #4]
    aa90:	e5942008 	ldr	r2, [r4, #8]
    aa94:	e1530002 	cmp	r3, r2
    aa98:	3a000022 	bcc	ab28 <__uflow+0xc4>
    aa9c:	e5943000 	ldr	r3, [r4]
    aaa0:	e3130c01 	tst	r3, #256	; 0x100
    aaa4:	1a000010 	bne	aaec <__uflow+0x88>
    aaa8:	e5943030 	ldr	r3, [r4, #48]	; 0x30
    aaac:	e3530000 	cmp	r3, #0
    aab0:	1a000024 	bne	ab48 <__uflow+0xe4>
    aab4:	e5943024 	ldr	r3, [r4, #36]	; 0x24
    aab8:	e3530000 	cmp	r3, #0
    aabc:	0a000001 	beq	aac8 <__uflow+0x64>
    aac0:	e1a00004 	mov	r0, r4
    aac4:	ebffff89 	bl	a8f0 <_IO_free_backup_area>
    aac8:	e5943098 	ldr	r3, [r4, #152]	; 0x98
    aacc:	e1a00004 	mov	r0, r4
    aad0:	e5933014 	ldr	r3, [r3, #20]
    aad4:	e12fff33 	blx	r3
    aad8:	e8bd8010 	pop	{r4, pc}
    aadc:	e3730001 	cmn	r3, #1
    aae0:	13e00000 	mvnne	r0, #0
    aae4:	18bd8010 	popne	{r4, pc}
    aae8:	eaffffe4 	b	aa80 <__uflow+0x1c>
    aaec:	e5941024 	ldr	r1, [r4, #36]	; 0x24
    aaf0:	e594002c 	ldr	r0, [r4, #44]	; 0x2c
    aaf4:	e594c00c 	ldr	ip, [r4, #12]
    aaf8:	e3c33c01 	bic	r3, r3, #256	; 0x100
    aafc:	e1500001 	cmp	r0, r1
    ab00:	e5843000 	str	r3, [r4]
    ab04:	e5840008 	str	r0, [r4, #8]
    ab08:	e584202c 	str	r2, [r4, #44]	; 0x2c
    ab0c:	e584100c 	str	r1, [r4, #12]
    ab10:	e584c024 	str	ip, [r4, #36]	; 0x24
    ab14:	e5841004 	str	r1, [r4, #4]
    ab18:	9affffe2 	bls	aaa8 <__uflow+0x44>
    ab1c:	e4d10001 	ldrb	r0, [r1], #1
    ab20:	e5841004 	str	r1, [r4, #4]
    ab24:	e8bd8010 	pop	{r4, pc}
    ab28:	e4d30001 	ldrb	r0, [r3], #1
    ab2c:	e5843004 	str	r3, [r4, #4]
    ab30:	e8bd8010 	pop	{r4, pc}
    ab34:	e1a00004 	mov	r0, r4
    ab38:	ebffff4c 	bl	a870 <_IO_switch_to_get_mode>
    ab3c:	e3700001 	cmn	r0, #1
    ab40:	1affffd1 	bne	aa8c <__uflow+0x28>
    ab44:	e8bd8010 	pop	{r4, pc}
    ab48:	e1a00004 	mov	r0, r4
    ab4c:	e5941008 	ldr	r1, [r4, #8]
    ab50:	ebfffd4f 	bl	a094 <save_for_backup>
    ab54:	e3500000 	cmp	r0, #0
    ab58:	0affffda 	beq	aac8 <__uflow+0x64>
    ab5c:	e3e00000 	mvn	r0, #0
    ab60:	e8bd8010 	pop	{r4, pc}

0000ab64 <_IO_setb>:
    ab64:	e590c01c 	ldr	ip, [r0, #28]
    ab68:	e92d40f8 	push	{r3, r4, r5, r6, r7, lr}
    ab6c:	e35c0000 	cmp	ip, #0
    ab70:	e1a04000 	mov	r4, r0
    ab74:	e1a05001 	mov	r5, r1
    ab78:	e1a06002 	mov	r6, r2
    ab7c:	e1a07003 	mov	r7, r3
    ab80:	0a000011 	beq	abcc <_IO_setb+0x68>
    ab84:	e5903000 	ldr	r3, [r0]
    ab88:	e3130001 	tst	r3, #1
    ab8c:	0a000006 	beq	abac <_IO_setb+0x48>
    ab90:	e3570000 	cmp	r7, #0
    ab94:	13c33001 	bicne	r3, r3, #1
    ab98:	03833001 	orreq	r3, r3, #1
    ab9c:	e584501c 	str	r5, [r4, #28]
    aba0:	e5846020 	str	r6, [r4, #32]
    aba4:	e5843000 	str	r3, [r4]
    aba8:	e8bd80f8 	pop	{r3, r4, r5, r6, r7, pc}
    abac:	e5903020 	ldr	r3, [r0, #32]
    abb0:	e1a0000c 	mov	r0, ip
    abb4:	e2833eff 	add	r3, r3, #4080	; 0xff0
    abb8:	e283300f 	add	r3, r3, #15
    abbc:	e06cc003 	rsb	ip, ip, r3
    abc0:	e3cc1eff 	bic	r1, ip, #4080	; 0xff0
    abc4:	e3c1100f 	bic	r1, r1, #15
    abc8:	eb002890 	bl	14e10 <__munmap>
    abcc:	e5943000 	ldr	r3, [r4]
    abd0:	eaffffee 	b	ab90 <_IO_setb+0x2c>

0000abd4 <_IO_doallocbuf>:
    abd4:	e590301c 	ldr	r3, [r0, #28]
    abd8:	e92d4010 	push	{r4, lr}
    abdc:	e3530000 	cmp	r3, #0
    abe0:	e1a04000 	mov	r4, r0
    abe4:	18bd8010 	popne	{r4, pc}
    abe8:	e5903000 	ldr	r3, [r0]
    abec:	e3130002 	tst	r3, #2
    abf0:	0a000002 	beq	ac00 <_IO_doallocbuf+0x2c>
    abf4:	e590306c 	ldr	r3, [r0, #108]	; 0x6c
    abf8:	e3530000 	cmp	r3, #0
    abfc:	da000005 	ble	ac18 <_IO_doallocbuf+0x44>
    ac00:	e5943098 	ldr	r3, [r4, #152]	; 0x98
    ac04:	e1a00004 	mov	r0, r4
    ac08:	e5933034 	ldr	r3, [r3, #52]	; 0x34
    ac0c:	e12fff33 	blx	r3
    ac10:	e3700001 	cmn	r0, #1
    ac14:	18bd8010 	popne	{r4, pc}
    ac18:	e1a00004 	mov	r0, r4
    ac1c:	e2841047 	add	r1, r4, #71	; 0x47
    ac20:	e2842048 	add	r2, r4, #72	; 0x48
    ac24:	e3a03000 	mov	r3, #0
    ac28:	e8bd4010 	pop	{r4, lr}
    ac2c:	eaffffcc 	b	ab64 <_IO_setb>

0000ac30 <_IO_default_underflow>:
    ac30:	e3e00000 	mvn	r0, #0
    ac34:	e12fff1e 	bx	lr

0000ac38 <_IO_default_uflow>:
    ac38:	e5903098 	ldr	r3, [r0, #152]	; 0x98
    ac3c:	e92d4010 	push	{r4, lr}
    ac40:	e5933010 	ldr	r3, [r3, #16]
    ac44:	e1a04000 	mov	r4, r0
    ac48:	e12fff33 	blx	r3
    ac4c:	e3700001 	cmn	r0, #1
    ac50:	15943004 	ldrne	r3, [r4, #4]
    ac54:	14d30001 	ldrbne	r0, [r3], #1
    ac58:	15843004 	strne	r3, [r4, #4]
    ac5c:	e8bd8010 	pop	{r4, pc}

0000ac60 <_IO_default_xsputn>:
    ac60:	e92d41f0 	push	{r4, r5, r6, r7, r8, lr}
    ac64:	e2528000 	subs	r8, r2, #0
    ac68:	e1a05000 	mov	r5, r0
    ac6c:	0a000029 	beq	ad18 <_IO_default_xsputn+0xb8>
    ac70:	e1a06001 	mov	r6, r1
    ac74:	e1a04008 	mov	r4, r8
    ac78:	e5950014 	ldr	r0, [r5, #20]
    ac7c:	e5957018 	ldr	r7, [r5, #24]
    ac80:	e1500007 	cmp	r0, r7
    ac84:	2a00000f 	bcs	acc8 <_IO_default_xsputn+0x68>
    ac88:	e0607007 	rsb	r7, r0, r7
    ac8c:	e1540007 	cmp	r4, r7
    ac90:	31a07004 	movcc	r7, r4
    ac94:	e3570014 	cmp	r7, #20
    ac98:	8a000016 	bhi	acf8 <_IO_default_xsputn+0x98>
    ac9c:	e3570000 	cmp	r7, #0
    aca0:	0a000007 	beq	acc4 <_IO_default_xsputn+0x64>
    aca4:	e1a03006 	mov	r3, r6
    aca8:	e0801007 	add	r1, r0, r7
    acac:	e4d32001 	ldrb	r2, [r3], #1
    acb0:	e4c02001 	strb	r2, [r0], #1
    acb4:	e1500001 	cmp	r0, r1
    acb8:	1afffffb 	bne	acac <_IO_default_xsputn+0x4c>
    acbc:	e0866007 	add	r6, r6, r7
    acc0:	e5850014 	str	r0, [r5, #20]
    acc4:	e0674004 	rsb	r4, r7, r4
    acc8:	e3540000 	cmp	r4, #0
    accc:	0a00000f 	beq	ad10 <_IO_default_xsputn+0xb0>
    acd0:	e5953098 	ldr	r3, [r5, #152]	; 0x98
    acd4:	e1a00005 	mov	r0, r5
    acd8:	e593300c 	ldr	r3, [r3, #12]
    acdc:	e5d61000 	ldrb	r1, [r6]
    ace0:	e12fff33 	blx	r3
    ace4:	e3700001 	cmn	r0, #1
    ace8:	0a000008 	beq	ad10 <_IO_default_xsputn+0xb0>
    acec:	e2866001 	add	r6, r6, #1
    acf0:	e2444001 	sub	r4, r4, #1
    acf4:	eaffffdf 	b	ac78 <_IO_default_xsputn+0x18>
    acf8:	e1a01006 	mov	r1, r6
    acfc:	e1a02007 	mov	r2, r7
    ad00:	eb00227e 	bl	13700 <__mempcpy>
    ad04:	e0866007 	add	r6, r6, r7
    ad08:	e5850014 	str	r0, [r5, #20]
    ad0c:	eaffffec 	b	acc4 <_IO_default_xsputn+0x64>
    ad10:	e0640008 	rsb	r0, r4, r8
    ad14:	e8bd81f0 	pop	{r4, r5, r6, r7, r8, pc}
    ad18:	e1a00008 	mov	r0, r8
    ad1c:	e8bd81f0 	pop	{r4, r5, r6, r7, r8, pc}

0000ad20 <_IO_sgetn>:
    ad20:	e92d4008 	push	{r3, lr}
    ad24:	e5903098 	ldr	r3, [r0, #152]	; 0x98
    ad28:	e5933020 	ldr	r3, [r3, #32]
    ad2c:	e12fff33 	blx	r3
    ad30:	e8bd8008 	pop	{r3, pc}

0000ad34 <_IO_default_xsgetn>:
    ad34:	e92d41f0 	push	{r4, r5, r6, r7, r8, lr}
    ad38:	e1a07002 	mov	r7, r2
    ad3c:	e1a04000 	mov	r4, r0
    ad40:	e1a08001 	mov	r8, r1
    ad44:	e1a05002 	mov	r5, r2
    ad48:	e9940048 	ldmib	r4, {r3, r6}
    ad4c:	e1530006 	cmp	r3, r6
    ad50:	2a00000f 	bcs	ad94 <_IO_default_xsgetn+0x60>
    ad54:	e0636006 	rsb	r6, r3, r6
    ad58:	e1550006 	cmp	r5, r6
    ad5c:	31a06005 	movcc	r6, r5
    ad60:	e3560014 	cmp	r6, #20
    ad64:	8a000012 	bhi	adb4 <_IO_default_xsgetn+0x80>
    ad68:	e3560000 	cmp	r6, #0
    ad6c:	0a000007 	beq	ad90 <_IO_default_xsgetn+0x5c>
    ad70:	e0830006 	add	r0, r3, r6
    ad74:	e1a02008 	mov	r2, r8
    ad78:	e4d31001 	ldrb	r1, [r3], #1
    ad7c:	e1530000 	cmp	r3, r0
    ad80:	e4c21001 	strb	r1, [r2], #1
    ad84:	1afffffb 	bne	ad78 <_IO_default_xsgetn+0x44>
    ad88:	e0888006 	add	r8, r8, r6
    ad8c:	e5843004 	str	r3, [r4, #4]
    ad90:	e0665005 	rsb	r5, r6, r5
    ad94:	e3550000 	cmp	r5, #0
    ad98:	0a000003 	beq	adac <_IO_default_xsgetn+0x78>
    ad9c:	e1a00004 	mov	r0, r4
    ada0:	ebfffef2 	bl	a970 <__underflow>
    ada4:	e3700001 	cmn	r0, #1
    ada8:	1affffe6 	bne	ad48 <_IO_default_xsgetn+0x14>
    adac:	e0650007 	rsb	r0, r5, r7
    adb0:	e8bd81f0 	pop	{r4, r5, r6, r7, r8, pc}
    adb4:	e1a00008 	mov	r0, r8
    adb8:	e1a01003 	mov	r1, r3
    adbc:	e1a02006 	mov	r2, r6
    adc0:	eb00224e 	bl	13700 <__mempcpy>
    adc4:	e5943004 	ldr	r3, [r4, #4]
    adc8:	e1a08000 	mov	r8, r0
    adcc:	e0833006 	add	r3, r3, r6
    add0:	e5843004 	str	r3, [r4, #4]
    add4:	eaffffed 	b	ad90 <_IO_default_xsgetn+0x5c>

0000add8 <_IO_default_setbuf>:
    add8:	e5903098 	ldr	r3, [r0, #152]	; 0x98
    addc:	e92d4070 	push	{r4, r5, r6, lr}
    ade0:	e5933030 	ldr	r3, [r3, #48]	; 0x30
    ade4:	e1a04000 	mov	r4, r0
    ade8:	e1a06001 	mov	r6, r1
    adec:	e1a05002 	mov	r5, r2
    adf0:	e12fff33 	blx	r3
    adf4:	e3700001 	cmn	r0, #1
    adf8:	03a04000 	moveq	r4, #0
    adfc:	0a000012 	beq	ae4c <_IO_default_setbuf+0x74>
    ae00:	e3560000 	cmp	r6, #0
    ae04:	13550000 	cmpne	r5, #0
    ae08:	13a03000 	movne	r3, #0
    ae0c:	03a03001 	moveq	r3, #1
    ae10:	0a00000f 	beq	ae54 <_IO_default_setbuf+0x7c>
    ae14:	e5942000 	ldr	r2, [r4]
    ae18:	e1a01006 	mov	r1, r6
    ae1c:	e3c22002 	bic	r2, r2, #2
    ae20:	e5842000 	str	r2, [r4]
    ae24:	e1a00004 	mov	r0, r4
    ae28:	e0862005 	add	r2, r6, r5
    ae2c:	ebffff4c 	bl	ab64 <_IO_setb>
    ae30:	e3a03000 	mov	r3, #0
    ae34:	e5843018 	str	r3, [r4, #24]
    ae38:	e5843014 	str	r3, [r4, #20]
    ae3c:	e5843010 	str	r3, [r4, #16]
    ae40:	e5843008 	str	r3, [r4, #8]
    ae44:	e5843004 	str	r3, [r4, #4]
    ae48:	e584300c 	str	r3, [r4, #12]
    ae4c:	e1a00004 	mov	r0, r4
    ae50:	e8bd8070 	pop	{r4, r5, r6, pc}
    ae54:	e5943000 	ldr	r3, [r4]
    ae58:	e1a01004 	mov	r1, r4
    ae5c:	e3833002 	orr	r3, r3, #2
    ae60:	e4813047 	str	r3, [r1], #71	; 0x47
    ae64:	e1a00004 	mov	r0, r4
    ae68:	e2842048 	add	r2, r4, #72	; 0x48
    ae6c:	e3a03000 	mov	r3, #0
    ae70:	ebffff3b 	bl	ab64 <_IO_setb>
    ae74:	eaffffed 	b	ae30 <_IO_default_setbuf+0x58>

0000ae78 <_IO_default_seekpos>:
    ae78:	e52de004 	push	{lr}		; (str lr, [sp, #-4]!)
    ae7c:	e3a0c000 	mov	ip, #0
    ae80:	e24dd00c 	sub	sp, sp, #12
    ae84:	e5901098 	ldr	r1, [r0, #152]	; 0x98
    ae88:	e58dc000 	str	ip, [sp]
    ae8c:	e59dc010 	ldr	ip, [sp, #16]
    ae90:	e58dc004 	str	ip, [sp, #4]
    ae94:	e5911024 	ldr	r1, [r1, #36]	; 0x24
    ae98:	e12fff31 	blx	r1
    ae9c:	e28dd00c 	add	sp, sp, #12
    aea0:	e8bd8000 	pop	{pc}

0000aea4 <_IO_default_doallocate>:
    aea4:	e92d4010 	push	{r4, lr}
    aea8:	e3a0c000 	mov	ip, #0
    aeac:	e24dd008 	sub	sp, sp, #8
    aeb0:	e3e0e000 	mvn	lr, #0
    aeb4:	e1a04000 	mov	r4, r0
    aeb8:	e3a01a02 	mov	r1, #8192	; 0x2000
    aebc:	e1a0000c 	mov	r0, ip
    aec0:	e3a02003 	mov	r2, #3
    aec4:	e3a03022 	mov	r3, #34	; 0x22
    aec8:	e58de000 	str	lr, [sp]
    aecc:	e58dc004 	str	ip, [sp, #4]
    aed0:	eb0027ba 	bl	14dc0 <__mmap>
    aed4:	e3700001 	cmn	r0, #1
    aed8:	0a000005 	beq	aef4 <_IO_default_doallocate+0x50>
    aedc:	e1a01000 	mov	r1, r0
    aee0:	e2812a02 	add	r2, r1, #8192	; 0x2000
    aee4:	e1a00004 	mov	r0, r4
    aee8:	e3a03001 	mov	r3, #1
    aeec:	ebffff1c 	bl	ab64 <_IO_setb>
    aef0:	e3a00001 	mov	r0, #1
    aef4:	e28dd008 	add	sp, sp, #8
    aef8:	e8bd8010 	pop	{r4, pc}

0000aefc <_IO_old_init>:
    aefc:	e5903048 	ldr	r3, [r0, #72]	; 0x48
    af00:	e3a02000 	mov	r2, #0
    af04:	e38114fb 	orr	r1, r1, #-83886080	; 0xfb000000
    af08:	e1530002 	cmp	r3, r2
    af0c:	e38118ad 	orr	r1, r1, #11337728	; 0xad0000
    af10:	e5801000 	str	r1, [r0]
    af14:	e580203c 	str	r2, [r0, #60]	; 0x3c
    af18:	e580201c 	str	r2, [r0, #28]
    af1c:	e5802020 	str	r2, [r0, #32]
    af20:	e580200c 	str	r2, [r0, #12]
    af24:	e5802004 	str	r2, [r0, #4]
    af28:	e5802008 	str	r2, [r0, #8]
    af2c:	e5802010 	str	r2, [r0, #16]
    af30:	e5802014 	str	r2, [r0, #20]
    af34:	e5802018 	str	r2, [r0, #24]
    af38:	e5802034 	str	r2, [r0, #52]	; 0x34
    af3c:	e5802024 	str	r2, [r0, #36]	; 0x24
    af40:	e5802028 	str	r2, [r0, #40]	; 0x28
    af44:	e580202c 	str	r2, [r0, #44]	; 0x2c
    af48:	e5802030 	str	r2, [r0, #48]	; 0x30
    af4c:	e1c024b4 	strh	r2, [r0, #68]	; 0x44
    af50:	15832000 	strne	r2, [r3]
    af54:	15832004 	strne	r2, [r3, #4]
    af58:	15832008 	strne	r2, [r3, #8]
    af5c:	e12fff1e 	bx	lr

0000af60 <_IO_no_init>:
    af60:	e590c048 	ldr	ip, [r0, #72]	; 0x48
    af64:	e52d4004 	push	{r4}		; (str r4, [sp, #-4]!)
    af68:	e38114fb 	orr	r1, r1, #-83886080	; 0xfb000000
    af6c:	e3a04000 	mov	r4, #0
    af70:	e15c0004 	cmp	ip, r4
    af74:	e38118ad 	orr	r1, r1, #11337728	; 0xad0000
    af78:	e5801000 	str	r1, [r0]
    af7c:	e580403c 	str	r4, [r0, #60]	; 0x3c
    af80:	e580401c 	str	r4, [r0, #28]
    af84:	e5804020 	str	r4, [r0, #32]
    af88:	e580400c 	str	r4, [r0, #12]
    af8c:	e5804004 	str	r4, [r0, #4]
    af90:	e5804008 	str	r4, [r0, #8]
    af94:	e5804010 	str	r4, [r0, #16]
    af98:	e5804014 	str	r4, [r0, #20]
    af9c:	e5804018 	str	r4, [r0, #24]
    afa0:	e5804034 	str	r4, [r0, #52]	; 0x34
    afa4:	e5804024 	str	r4, [r0, #36]	; 0x24
    afa8:	e5804028 	str	r4, [r0, #40]	; 0x28
    afac:	e580402c 	str	r4, [r0, #44]	; 0x2c
    afb0:	e5804030 	str	r4, [r0, #48]	; 0x30
    afb4:	e1c044b4 	strh	r4, [r0, #68]	; 0x44
    afb8:	158c4000 	strne	r4, [ip]
    afbc:	158c4004 	strne	r4, [ip, #4]
    afc0:	158c4008 	strne	r4, [ip, #8]
    afc4:	e3520000 	cmp	r2, #0
    afc8:	e580206c 	str	r2, [r0, #108]	; 0x6c
    afcc:	ba00000e 	blt	b00c <_IO_no_init+0xac>
    afd0:	e3a02000 	mov	r2, #0
    afd4:	e580305c 	str	r3, [r0, #92]	; 0x5c
    afd8:	e5832018 	str	r2, [r3, #24]
    afdc:	e583201c 	str	r2, [r3, #28]
    afe0:	e5832008 	str	r2, [r3, #8]
    afe4:	e5832000 	str	r2, [r3]
    afe8:	e5832004 	str	r2, [r3, #4]
    afec:	e583200c 	str	r2, [r3, #12]
    aff0:	e5832010 	str	r2, [r3, #16]
    aff4:	e5832014 	str	r2, [r3, #20]
    aff8:	e5832020 	str	r2, [r3, #32]
    affc:	e5832024 	str	r2, [r3, #36]	; 0x24
    b000:	e5832028 	str	r2, [r3, #40]	; 0x28
    b004:	e59d2004 	ldr	r2, [sp, #4]
    b008:	e58320b8 	str	r2, [r3, #184]	; 0xb8
    b00c:	e3a03000 	mov	r3, #0
    b010:	e5803060 	str	r3, [r0, #96]	; 0x60
    b014:	e8bd0010 	pop	{r4}
    b018:	e12fff1e 	bx	lr

0000b01c <_IO_init>:
    b01c:	e52de004 	push	{lr}		; (str lr, [sp, #-4]!)
    b020:	e3a0c000 	mov	ip, #0
    b024:	e24dd00c 	sub	sp, sp, #12
    b028:	e3e02000 	mvn	r2, #0
    b02c:	e1a0300c 	mov	r3, ip
    b030:	e58dc000 	str	ip, [sp]
    b034:	ebffffc9 	bl	af60 <_IO_no_init>
    b038:	e28dd00c 	add	sp, sp, #12
    b03c:	e8bd8000 	pop	{pc}

0000b040 <_IO_default_sync>:
    b040:	e3a00000 	mov	r0, #0
    b044:	e12fff1e 	bx	lr

0000b048 <_IO_default_finish>:
    b048:	e590301c 	ldr	r3, [r0, #28]
    b04c:	e92d4070 	push	{r4, r5, r6, lr}
    b050:	e3530000 	cmp	r3, #0
    b054:	e1a04000 	mov	r4, r0
    b058:	0a000002 	beq	b068 <_IO_default_finish+0x20>
    b05c:	e5905000 	ldr	r5, [r0]
    b060:	e2155001 	ands	r5, r5, #1
    b064:	0a000010 	beq	b0ac <_IO_default_finish+0x64>
    b068:	e5943030 	ldr	r3, [r4, #48]	; 0x30
    b06c:	e3530000 	cmp	r3, #0
    b070:	0a000004 	beq	b088 <_IO_default_finish+0x40>
    b074:	e3a02000 	mov	r2, #0
    b078:	e5832004 	str	r2, [r3, #4]
    b07c:	e5933000 	ldr	r3, [r3]
    b080:	e3530000 	cmp	r3, #0
    b084:	1afffffb 	bne	b078 <_IO_default_finish+0x30>
    b088:	e5940024 	ldr	r0, [r4, #36]	; 0x24
    b08c:	e3500000 	cmp	r0, #0
    b090:	0a000002 	beq	b0a0 <_IO_default_finish+0x58>
    b094:	eb001897 	bl	112f8 <__cfree>
    b098:	e3a03000 	mov	r3, #0
    b09c:	e5843024 	str	r3, [r4, #36]	; 0x24
    b0a0:	e1a00004 	mov	r0, r4
    b0a4:	e8bd4070 	pop	{r4, r5, r6, lr}
    b0a8:	eafffc5f 	b	a22c <_IO_un_link>
    b0ac:	e5902020 	ldr	r2, [r0, #32]
    b0b0:	e1a00003 	mov	r0, r3
    b0b4:	e2822eff 	add	r2, r2, #4080	; 0xff0
    b0b8:	e282200f 	add	r2, r2, #15
    b0bc:	e0633002 	rsb	r3, r3, r2
    b0c0:	e3c31eff 	bic	r1, r3, #4080	; 0xff0
    b0c4:	e3c1100f 	bic	r1, r1, #15
    b0c8:	eb002750 	bl	14e10 <__munmap>
    b0cc:	e5845020 	str	r5, [r4, #32]
    b0d0:	e584501c 	str	r5, [r4, #28]
    b0d4:	eaffffe3 	b	b068 <_IO_default_finish+0x20>

0000b0d8 <_IO_default_seekoff>:
    b0d8:	e3e00000 	mvn	r0, #0
    b0dc:	e3e01000 	mvn	r1, #0
    b0e0:	e12fff1e 	bx	lr

0000b0e4 <_IO_sputbackc>:
    b0e4:	e5903004 	ldr	r3, [r0, #4]
    b0e8:	e590200c 	ldr	r2, [r0, #12]
    b0ec:	e92d4010 	push	{r4, lr}
    b0f0:	e1530002 	cmp	r3, r2
    b0f4:	e1a04000 	mov	r4, r0
    b0f8:	9a000005 	bls	b114 <_IO_sputbackc+0x30>
    b0fc:	e5530001 	ldrb	r0, [r3, #-1]
    b100:	e20120ff 	and	r2, r1, #255	; 0xff
    b104:	e1500002 	cmp	r0, r2
    b108:	e2433001 	sub	r3, r3, #1
    b10c:	05843004 	streq	r3, [r4, #4]
    b110:	0a000005 	beq	b12c <_IO_sputbackc+0x48>
    b114:	e5943098 	ldr	r3, [r4, #152]	; 0x98
    b118:	e1a00004 	mov	r0, r4
    b11c:	e5933018 	ldr	r3, [r3, #24]
    b120:	e12fff33 	blx	r3
    b124:	e3700001 	cmn	r0, #1
    b128:	08bd8010 	popeq	{r4, pc}
    b12c:	e5943000 	ldr	r3, [r4]
    b130:	e3c33010 	bic	r3, r3, #16
    b134:	e5843000 	str	r3, [r4]
    b138:	e8bd8010 	pop	{r4, pc}

0000b13c <_IO_sungetc>:
    b13c:	e5903004 	ldr	r3, [r0, #4]
    b140:	e590200c 	ldr	r2, [r0, #12]
    b144:	e92d4010 	push	{r4, lr}
    b148:	e1530002 	cmp	r3, r2
    b14c:	e1a04000 	mov	r4, r0
    b150:	9a000006 	bls	b170 <_IO_sungetc+0x34>
    b154:	e2432001 	sub	r2, r3, #1
    b158:	e5802004 	str	r2, [r0, #4]
    b15c:	e5530001 	ldrb	r0, [r3, #-1]
    b160:	e5943000 	ldr	r3, [r4]
    b164:	e3c33010 	bic	r3, r3, #16
    b168:	e5843000 	str	r3, [r4]
    b16c:	e8bd8010 	pop	{r4, pc}
    b170:	e5903098 	ldr	r3, [r0, #152]	; 0x98
    b174:	e3e01000 	mvn	r1, #0
    b178:	e5933018 	ldr	r3, [r3, #24]
    b17c:	e12fff33 	blx	r3
    b180:	e3700001 	cmn	r0, #1
    b184:	08bd8010 	popeq	{r4, pc}
    b188:	eafffff4 	b	b160 <_IO_sungetc+0x24>

0000b18c <_IO_adjust_column>:
    b18c:	e0813002 	add	r3, r1, r2
    b190:	e1510003 	cmp	r1, r3
    b194:	e52d4004 	push	{r4}		; (str r4, [sp, #-4]!)
    b198:	2a00000a 	bcs	b1c8 <_IO_adjust_column+0x3c>
    b19c:	e5534001 	ldrb	r4, [r3, #-1]
    b1a0:	e2433001 	sub	r3, r3, #1
    b1a4:	e354000a 	cmp	r4, #10
    b1a8:	e1a0c003 	mov	ip, r3
    b1ac:	1a000003 	bne	b1c0 <_IO_adjust_column+0x34>
    b1b0:	ea000007 	b	b1d4 <_IO_adjust_column+0x48>
    b1b4:	e57c4001 	ldrb	r4, [ip, #-1]!
    b1b8:	e354000a 	cmp	r4, #10
    b1bc:	0a000004 	beq	b1d4 <_IO_adjust_column+0x48>
    b1c0:	e151000c 	cmp	r1, ip
    b1c4:	3afffffa 	bcc	b1b4 <_IO_adjust_column+0x28>
    b1c8:	e0820000 	add	r0, r2, r0
    b1cc:	e8bd0010 	pop	{r4}
    b1d0:	e12fff1e 	bx	lr
    b1d4:	e06c0003 	rsb	r0, ip, r3
    b1d8:	eafffffb 	b	b1cc <_IO_adjust_column+0x40>

0000b1dc <_IO_flush_all_lockp>:
    b1dc:	e92d4ff0 	push	{r4, r5, r6, r7, r8, r9, sl, fp, lr}
    b1e0:	e59f331c 	ldr	r3, [pc, #796]	; b504 <_IO_flush_all_lockp+0x328>
    b1e4:	e24dd01c 	sub	sp, sp, #28
    b1e8:	e2533000 	subs	r3, r3, #0
    b1ec:	13a03001 	movne	r3, #1
    b1f0:	e3530000 	cmp	r3, #0
    b1f4:	e1a0a000 	mov	sl, r0
    b1f8:	e58d3004 	str	r3, [sp, #4]
    b1fc:	1a0000a2 	bne	b48c <_IO_flush_all_lockp+0x2b0>
    b200:	e59d2004 	ldr	r2, [sp, #4]
    b204:	e59f32fc 	ldr	r3, [pc, #764]	; b508 <_IO_flush_all_lockp+0x32c>
    b208:	e58d200c 	str	r2, [sp, #12]
    b20c:	e58d3008 	str	r3, [sp, #8]
    b210:	e35a0000 	cmp	sl, #0
    b214:	059f82f0 	ldreq	r8, [pc, #752]	; b50c <_IO_flush_all_lockp+0x330>
    b218:	0a000017 	beq	b27c <_IO_flush_all_lockp+0xa0>
    b21c:	e59f82e8 	ldr	r8, [pc, #744]	; b50c <_IO_flush_all_lockp+0x330>
    b220:	ebfff632 	bl	8af0 <__aeabi_read_tp>
    b224:	e5983014 	ldr	r3, [r8, #20]
    b228:	e2405d13 	sub	r5, r0, #1216	; 0x4c0
    b22c:	e1530005 	cmp	r3, r5
    b230:	0a00000e 	beq	b270 <_IO_flush_all_lockp+0x94>
    b234:	e3a01001 	mov	r1, #1
    b238:	e288200c 	add	r2, r8, #12
    b23c:	e3a04000 	mov	r4, #0
    b240:	e5923000 	ldr	r3, [r2]
    b244:	e1530004 	cmp	r3, r4
    b248:	1a000005 	bne	b264 <_IO_flush_all_lockp+0x88>
    b24c:	e1a00004 	mov	r0, r4
    b250:	e3e03a0f 	mvn	r3, #61440	; 0xf000
    b254:	e1a0e00f 	mov	lr, pc
    b258:	e243f03f 	sub	pc, r3, #63	; 0x3f
    b25c:	3afffff7 	bcc	b240 <_IO_flush_all_lockp+0x64>
    b260:	e1a03004 	mov	r3, r4
    b264:	e1530004 	cmp	r3, r4
    b268:	1a000098 	bne	b4d0 <_IO_flush_all_lockp+0x2f4>
    b26c:	e5885014 	str	r5, [r8, #20]
    b270:	e5983010 	ldr	r3, [r8, #16]
    b274:	e2833001 	add	r3, r3, #1
    b278:	e5883010 	str	r3, [r8, #16]
    b27c:	e59f328c 	ldr	r3, [pc, #652]	; b510 <_IO_flush_all_lockp+0x334>
    b280:	e5989018 	ldr	r9, [r8, #24]
    b284:	e5936000 	ldr	r6, [r3]
    b288:	e3560000 	cmp	r6, #0
    b28c:	01a0b006 	moveq	fp, r6
    b290:	0a00005a 	beq	b400 <_IO_flush_all_lockp+0x224>
    b294:	e3a0b000 	mov	fp, #0
    b298:	ea000032 	b	b368 <_IO_flush_all_lockp+0x18c>
    b29c:	e596305c 	ldr	r3, [r6, #92]	; 0x5c
    b2a0:	e5932010 	ldr	r2, [r3, #16]
    b2a4:	e593300c 	ldr	r3, [r3, #12]
    b2a8:	e1520003 	cmp	r2, r3
    b2ac:	9a000006 	bls	b2cc <_IO_flush_all_lockp+0xf0>
    b2b0:	e5963098 	ldr	r3, [r6, #152]	; 0x98
    b2b4:	e1a00006 	mov	r0, r6
    b2b8:	e593300c 	ldr	r3, [r3, #12]
    b2bc:	e3e01000 	mvn	r1, #0
    b2c0:	e12fff33 	blx	r3
    b2c4:	e3700001 	cmn	r0, #1
    b2c8:	01a0b000 	moveq	fp, r0
    b2cc:	e35a0000 	cmp	sl, #0
    b2d0:	0a00001a 	beq	b340 <_IO_flush_all_lockp+0x164>
    b2d4:	e5963000 	ldr	r3, [r6]
    b2d8:	e3130902 	tst	r3, #32768	; 0x8000
    b2dc:	1a000017 	bne	b340 <_IO_flush_all_lockp+0x164>
    b2e0:	e5967048 	ldr	r7, [r6, #72]	; 0x48
    b2e4:	e5973004 	ldr	r3, [r7, #4]
    b2e8:	e2433001 	sub	r3, r3, #1
    b2ec:	e3530000 	cmp	r3, #0
    b2f0:	e5873004 	str	r3, [r7, #4]
    b2f4:	1a000011 	bne	b340 <_IO_flush_all_lockp+0x164>
    b2f8:	e5873008 	str	r3, [r7, #8]
    b2fc:	e5975000 	ldr	r5, [r7]
    b300:	e3a01000 	mov	r1, #0
    b304:	e1a02007 	mov	r2, r7
    b308:	e1a04005 	mov	r4, r5
    b30c:	e5923000 	ldr	r3, [r2]
    b310:	e1530004 	cmp	r3, r4
    b314:	1a000005 	bne	b330 <_IO_flush_all_lockp+0x154>
    b318:	e1a00004 	mov	r0, r4
    b31c:	e3e03a0f 	mvn	r3, #61440	; 0xf000
    b320:	e1a0e00f 	mov	lr, pc
    b324:	e243f03f 	sub	pc, r3, #63	; 0x3f
    b328:	3afffff7 	bcc	b30c <_IO_flush_all_lockp+0x130>
    b32c:	e1a03004 	mov	r3, r4
    b330:	e1550003 	cmp	r5, r3
    b334:	1afffff0 	bne	b2fc <_IO_flush_all_lockp+0x120>
    b338:	e3550001 	cmp	r5, #1
    b33c:	ca00005a 	bgt	b4ac <_IO_flush_all_lockp+0x2d0>
    b340:	e5983018 	ldr	r3, [r8, #24]
    b344:	e3a02000 	mov	r2, #0
    b348:	e1590003 	cmp	r9, r3
    b34c:	e5882008 	str	r2, [r8, #8]
    b350:	159f21b8 	ldrne	r2, [pc, #440]	; b510 <_IO_flush_all_lockp+0x334>
    b354:	05966034 	ldreq	r6, [r6, #52]	; 0x34
    b358:	15926000 	ldrne	r6, [r2]
    b35c:	11a09003 	movne	r9, r3
    b360:	e3560000 	cmp	r6, #0
    b364:	0a000025 	beq	b400 <_IO_flush_all_lockp+0x224>
    b368:	e35a0000 	cmp	sl, #0
    b36c:	e5886008 	str	r6, [r8, #8]
    b370:	0a00001a 	beq	b3e0 <_IO_flush_all_lockp+0x204>
    b374:	e5964000 	ldr	r4, [r6]
    b378:	e2144902 	ands	r4, r4, #32768	; 0x8000
    b37c:	1a000017 	bne	b3e0 <_IO_flush_all_lockp+0x204>
    b380:	e5965048 	ldr	r5, [r6, #72]	; 0x48
    b384:	ebfff5d9 	bl	8af0 <__aeabi_read_tp>
    b388:	e5953008 	ldr	r3, [r5, #8]
    b38c:	e2407d13 	sub	r7, r0, #1216	; 0x4c0
    b390:	e1530007 	cmp	r3, r7
    b394:	0a00000e 	beq	b3d4 <_IO_flush_all_lockp+0x1f8>
    b398:	e3a01001 	mov	r1, #1
    b39c:	e1a02005 	mov	r2, r5
    b3a0:	e5923000 	ldr	r3, [r2]
    b3a4:	e1530004 	cmp	r3, r4
    b3a8:	1a000005 	bne	b3c4 <_IO_flush_all_lockp+0x1e8>
    b3ac:	e1a00004 	mov	r0, r4
    b3b0:	e3e03a0f 	mvn	r3, #61440	; 0xf000
    b3b4:	e1a0e00f 	mov	lr, pc
    b3b8:	e243f03f 	sub	pc, r3, #63	; 0x3f
    b3bc:	3afffff7 	bcc	b3a0 <_IO_flush_all_lockp+0x1c4>
    b3c0:	e1a03004 	mov	r3, r4
    b3c4:	e3530000 	cmp	r3, #0
    b3c8:	1a000034 	bne	b4a0 <_IO_flush_all_lockp+0x2c4>
    b3cc:	e5965048 	ldr	r5, [r6, #72]	; 0x48
    b3d0:	e5857008 	str	r7, [r5, #8]
    b3d4:	e5953004 	ldr	r3, [r5, #4]
    b3d8:	e2833001 	add	r3, r3, #1
    b3dc:	e5853004 	str	r3, [r5, #4]
    b3e0:	e596306c 	ldr	r3, [r6, #108]	; 0x6c
    b3e4:	e3530000 	cmp	r3, #0
    b3e8:	caffffab 	bgt	b29c <_IO_flush_all_lockp+0xc0>
    b3ec:	e5962014 	ldr	r2, [r6, #20]
    b3f0:	e5963010 	ldr	r3, [r6, #16]
    b3f4:	e1520003 	cmp	r2, r3
    b3f8:	8affffac 	bhi	b2b0 <_IO_flush_all_lockp+0xd4>
    b3fc:	eaffffb2 	b	b2cc <_IO_flush_all_lockp+0xf0>
    b400:	e35a0000 	cmp	sl, #0
    b404:	0a000017 	beq	b468 <_IO_flush_all_lockp+0x28c>
    b408:	e5983010 	ldr	r3, [r8, #16]
    b40c:	e2433001 	sub	r3, r3, #1
    b410:	e3530000 	cmp	r3, #0
    b414:	e5883010 	str	r3, [r8, #16]
    b418:	1a000012 	bne	b468 <_IO_flush_all_lockp+0x28c>
    b41c:	e59f20e8 	ldr	r2, [pc, #232]	; b50c <_IO_flush_all_lockp+0x330>
    b420:	e5823014 	str	r3, [r2, #20]
    b424:	e598500c 	ldr	r5, [r8, #12]
    b428:	e3a01000 	mov	r1, #0
    b42c:	e59f20e0 	ldr	r2, [pc, #224]	; b514 <_IO_flush_all_lockp+0x338>
    b430:	e1a04005 	mov	r4, r5
    b434:	e5923000 	ldr	r3, [r2]
    b438:	e1530004 	cmp	r3, r4
    b43c:	1a000005 	bne	b458 <_IO_flush_all_lockp+0x27c>
    b440:	e1a00004 	mov	r0, r4
    b444:	e3e03a0f 	mvn	r3, #61440	; 0xf000
    b448:	e1a0e00f 	mov	lr, pc
    b44c:	e243f03f 	sub	pc, r3, #63	; 0x3f
    b450:	3afffff7 	bcc	b434 <_IO_flush_all_lockp+0x258>
    b454:	e1a03004 	mov	r3, r4
    b458:	e1550003 	cmp	r5, r3
    b45c:	1afffff0 	bne	b424 <_IO_flush_all_lockp+0x248>
    b460:	e3550001 	cmp	r5, #1
    b464:	ca00001d 	bgt	b4e0 <_IO_flush_all_lockp+0x304>
    b468:	e59d3004 	ldr	r3, [sp, #4]
    b46c:	e3530000 	cmp	r3, #0
    b470:	0a000002 	beq	b480 <_IO_flush_all_lockp+0x2a4>
    b474:	e28d0008 	add	r0, sp, #8
    b478:	e3a01000 	mov	r1, #0
    b47c:	e320f000 	nop	{0}
    b480:	e1a0000b 	mov	r0, fp
    b484:	e28dd01c 	add	sp, sp, #28
    b488:	e8bd8ff0 	pop	{r4, r5, r6, r7, r8, r9, sl, fp, pc}
    b48c:	e28d0008 	add	r0, sp, #8
    b490:	e59f1070 	ldr	r1, [pc, #112]	; b508 <_IO_flush_all_lockp+0x32c>
    b494:	e3a02000 	mov	r2, #0
    b498:	e320f000 	nop	{0}
    b49c:	eaffff5b 	b	b210 <_IO_flush_all_lockp+0x34>
    b4a0:	e1a00005 	mov	r0, r5
    b4a4:	eb0026e1 	bl	15030 <__lll_lock_wait_private>
    b4a8:	eaffffc7 	b	b3cc <_IO_flush_all_lockp+0x1f0>
    b4ac:	ebfff58f 	bl	8af0 <__aeabi_read_tp>
    b4b0:	e51014b8 	ldr	r1, [r0, #-1208]	; 0x4b8
    b4b4:	e3a02001 	mov	r2, #1
    b4b8:	e1a00007 	mov	r0, r7
    b4bc:	e1811002 	orr	r1, r1, r2
    b4c0:	e3a03000 	mov	r3, #0
    b4c4:	e3a070f0 	mov	r7, #240	; 0xf0
    b4c8:	ef000000 	svc	0x00000000
    b4cc:	eaffff9b 	b	b340 <_IO_flush_all_lockp+0x164>
    b4d0:	e1a00002 	mov	r0, r2
    b4d4:	eb0026d5 	bl	15030 <__lll_lock_wait_private>
    b4d8:	e5885014 	str	r5, [r8, #20]
    b4dc:	eaffff63 	b	b270 <_IO_flush_all_lockp+0x94>
    b4e0:	ebfff582 	bl	8af0 <__aeabi_read_tp>
    b4e4:	e51014b8 	ldr	r1, [r0, #-1208]	; 0x4b8
    b4e8:	e3a03000 	mov	r3, #0
    b4ec:	e1a00002 	mov	r0, r2
    b4f0:	e3811001 	orr	r1, r1, #1
    b4f4:	e3a02001 	mov	r2, #1
    b4f8:	e3a070f0 	mov	r7, #240	; 0xf0
    b4fc:	ef000000 	svc	0x00000000
    b500:	eaffffd8 	b	b468 <_IO_flush_all_lockp+0x28c>
    b504:	00000000 	.word	0x00000000
    b508:	00009f64 	.word	0x00009f64
    b50c:	00084920 	.word	0x00084920
    b510:	00083b90 	.word	0x00083b90
    b514:	0008492c 	.word	0x0008492c

0000b518 <_IO_cleanup>:
    b518:	e92d47f0 	push	{r4, r5, r6, r7, r8, r9, sl, lr}
    b51c:	e3a00000 	mov	r0, #0
    b520:	ebffff2d 	bl	b1dc <_IO_flush_all_lockp>
    b524:	e59f31ec 	ldr	r3, [pc, #492]	; b718 <_IO_cleanup+0x200>
    b528:	e1a09000 	mov	r9, r0
    b52c:	e5936000 	ldr	r6, [r3]
    b530:	e3560000 	cmp	r6, #0
    b534:	0a000034 	beq	b60c <_IO_cleanup+0xf4>
    b538:	e59f81dc 	ldr	r8, [pc, #476]	; b71c <_IO_cleanup+0x204>
    b53c:	e5963000 	ldr	r3, [r6]
    b540:	e2135002 	ands	r5, r3, #2
    b544:	1a00002b 	bne	b5f8 <_IO_cleanup+0xe0>
    b548:	e59f21d0 	ldr	r2, [pc, #464]	; b720 <_IO_cleanup+0x208>
    b54c:	e0032002 	and	r2, r3, r2
    b550:	e3520008 	cmp	r2, #8
    b554:	0a000027 	beq	b5f8 <_IO_cleanup+0xe0>
    b558:	e596306c 	ldr	r3, [r6, #108]	; 0x6c
    b55c:	e3530000 	cmp	r3, #0
    b560:	0a000024 	beq	b5f8 <_IO_cleanup+0xe0>
    b564:	e5963048 	ldr	r3, [r6, #72]	; 0x48
    b568:	ebfff560 	bl	8af0 <__aeabi_read_tp>
    b56c:	e2407d13 	sub	r7, r0, #1216	; 0x4c0
    b570:	e1a0a000 	mov	sl, r0
    b574:	e5930008 	ldr	r0, [r3, #8]
    b578:	e3a01001 	mov	r1, #1
    b57c:	e1500007 	cmp	r0, r7
    b580:	e1a02003 	mov	r2, r3
    b584:	e3a04000 	mov	r4, #0
    b588:	0a00002c 	beq	b640 <_IO_cleanup+0x128>
    b58c:	e5923000 	ldr	r3, [r2]
    b590:	e1530004 	cmp	r3, r4
    b594:	1a000005 	bne	b5b0 <_IO_cleanup+0x98>
    b598:	e1a00004 	mov	r0, r4
    b59c:	e3e03a0f 	mvn	r3, #61440	; 0xf000
    b5a0:	e1a0e00f 	mov	lr, pc
    b5a4:	e243f03f 	sub	pc, r3, #63	; 0x3f
    b5a8:	3afffff7 	bcc	b58c <_IO_cleanup+0x74>
    b5ac:	e1a03004 	mov	r3, r4
    b5b0:	e1530004 	cmp	r3, r4
    b5b4:	1a000016 	bne	b614 <_IO_cleanup+0xfc>
    b5b8:	e5963048 	ldr	r3, [r6, #72]	; 0x48
    b5bc:	e9830082 	stmib	r3, {r1, r7}
    b5c0:	e5d83000 	ldrb	r3, [r8]
    b5c4:	e3530000 	cmp	r3, #0
    b5c8:	1a000002 	bne	b5d8 <_IO_cleanup+0xc0>
    b5cc:	e5963000 	ldr	r3, [r6]
    b5d0:	e3130001 	tst	r3, #1
    b5d4:	0a00001d 	beq	b650 <_IO_cleanup+0x138>
    b5d8:	e5963098 	ldr	r3, [r6, #152]	; 0x98
    b5dc:	e3a01000 	mov	r1, #0
    b5e0:	e593302c 	ldr	r3, [r3, #44]	; 0x2c
    b5e4:	e1a00006 	mov	r0, r6
    b5e8:	e1a02001 	mov	r2, r1
    b5ec:	e12fff33 	blx	r3
    b5f0:	e3550001 	cmp	r5, #1
    b5f4:	da000027 	ble	b698 <_IO_cleanup+0x180>
    b5f8:	e3e03000 	mvn	r3, #0
    b5fc:	e586306c 	str	r3, [r6, #108]	; 0x6c
    b600:	e5966034 	ldr	r6, [r6, #52]	; 0x34
    b604:	e3560000 	cmp	r6, #0
    b608:	1affffcb 	bne	b53c <_IO_cleanup+0x24>
    b60c:	e1a00009 	mov	r0, r9
    b610:	e8bd87f0 	pop	{r4, r5, r6, r7, r8, r9, sl, pc}
    b614:	e2855001 	add	r5, r5, #1
    b618:	eb00228c 	bl	14050 <__sched_yield>
    b61c:	e3550002 	cmp	r5, #2
    b620:	0affffe6 	beq	b5c0 <_IO_cleanup+0xa8>
    b624:	e5963048 	ldr	r3, [r6, #72]	; 0x48
    b628:	e3a01001 	mov	r1, #1
    b62c:	e5930008 	ldr	r0, [r3, #8]
    b630:	e1a02003 	mov	r2, r3
    b634:	e1500007 	cmp	r0, r7
    b638:	e3a04000 	mov	r4, #0
    b63c:	1affffd2 	bne	b58c <_IO_cleanup+0x74>
    b640:	e5932004 	ldr	r2, [r3, #4]
    b644:	e2822001 	add	r2, r2, #1
    b648:	e5832004 	str	r2, [r3, #4]
    b64c:	eaffffdb 	b	b5c0 <_IO_cleanup+0xa8>
    b650:	e596201c 	ldr	r2, [r6, #28]
    b654:	e5961020 	ldr	r1, [r6, #32]
    b658:	e3833001 	orr	r3, r3, #1
    b65c:	e5980004 	ldr	r0, [r8, #4]
    b660:	e0621001 	rsb	r1, r2, r1
    b664:	e5863000 	str	r3, [r6]
    b668:	e5963098 	ldr	r3, [r6, #152]	; 0x98
    b66c:	e5861068 	str	r1, [r6, #104]	; 0x68
    b670:	e3a01000 	mov	r1, #0
    b674:	e5860060 	str	r0, [r6, #96]	; 0x60
    b678:	e5862064 	str	r2, [r6, #100]	; 0x64
    b67c:	e5886004 	str	r6, [r8, #4]
    b680:	e593302c 	ldr	r3, [r3, #44]	; 0x2c
    b684:	e1a00006 	mov	r0, r6
    b688:	e1a02001 	mov	r2, r1
    b68c:	e12fff33 	blx	r3
    b690:	e3550001 	cmp	r5, #1
    b694:	caffffd7 	bgt	b5f8 <_IO_cleanup+0xe0>
    b698:	e5967048 	ldr	r7, [r6, #72]	; 0x48
    b69c:	e5973004 	ldr	r3, [r7, #4]
    b6a0:	e2433001 	sub	r3, r3, #1
    b6a4:	e3530000 	cmp	r3, #0
    b6a8:	e5873004 	str	r3, [r7, #4]
    b6ac:	1affffd1 	bne	b5f8 <_IO_cleanup+0xe0>
    b6b0:	e5873008 	str	r3, [r7, #8]
    b6b4:	e5975000 	ldr	r5, [r7]
    b6b8:	e3a01000 	mov	r1, #0
    b6bc:	e1a02007 	mov	r2, r7
    b6c0:	e1a04005 	mov	r4, r5
    b6c4:	e5923000 	ldr	r3, [r2]
    b6c8:	e1530004 	cmp	r3, r4
    b6cc:	1a000005 	bne	b6e8 <_IO_cleanup+0x1d0>
    b6d0:	e1a00004 	mov	r0, r4
    b6d4:	e3e03a0f 	mvn	r3, #61440	; 0xf000
    b6d8:	e1a0e00f 	mov	lr, pc
    b6dc:	e243f03f 	sub	pc, r3, #63	; 0x3f
    b6e0:	3afffff7 	bcc	b6c4 <_IO_cleanup+0x1ac>
    b6e4:	e1a03004 	mov	r3, r4
    b6e8:	e1550003 	cmp	r5, r3
    b6ec:	1afffff0 	bne	b6b4 <_IO_cleanup+0x19c>
    b6f0:	e3550001 	cmp	r5, #1
    b6f4:	daffffbf 	ble	b5f8 <_IO_cleanup+0xe0>
    b6f8:	e51a14b8 	ldr	r1, [sl, #-1208]	; 0x4b8
    b6fc:	e1a00007 	mov	r0, r7
    b700:	e3811001 	orr	r1, r1, #1
    b704:	e3a02001 	mov	r2, #1
    b708:	e3a03000 	mov	r3, #0
    b70c:	e3a070f0 	mov	r7, #240	; 0xf0
    b710:	ef000000 	svc	0x00000000
    b714:	eaffffb7 	b	b5f8 <_IO_cleanup+0xe0>
    b718:	00083b90 	.word	0x00083b90
    b71c:	00084920 	.word	0x00084920
    b720:	00001008 	.word	0x00001008

0000b724 <_IO_flush_all>:
    b724:	e3a00001 	mov	r0, #1
    b728:	eafffeab 	b	b1dc <_IO_flush_all_lockp>

0000b72c <_IO_flush_all_linebuffered>:
    b72c:	e92d4ff0 	push	{r4, r5, r6, r7, r8, r9, sl, fp, lr}
    b730:	e59f32b8 	ldr	r3, [pc, #696]	; b9f0 <_IO_flush_all_linebuffered+0x2c4>
    b734:	e24dd01c 	sub	sp, sp, #28
    b738:	e2533000 	subs	r3, r3, #0
    b73c:	13a03001 	movne	r3, #1
    b740:	e3530000 	cmp	r3, #0
    b744:	e58d3000 	str	r3, [sp]
    b748:	1a00008b 	bne	b97c <_IO_flush_all_linebuffered+0x250>
    b74c:	e59d2000 	ldr	r2, [sp]
    b750:	e59f329c 	ldr	r3, [pc, #668]	; b9f4 <_IO_flush_all_linebuffered+0x2c8>
    b754:	e58d200c 	str	r2, [sp, #12]
    b758:	e58d3008 	str	r3, [sp, #8]
    b75c:	e59f8294 	ldr	r8, [pc, #660]	; b9f8 <_IO_flush_all_linebuffered+0x2cc>
    b760:	ebfff4e2 	bl	8af0 <__aeabi_read_tp>
    b764:	e5983014 	ldr	r3, [r8, #20]
    b768:	e2409d13 	sub	r9, r0, #1216	; 0x4c0
    b76c:	e1530009 	cmp	r3, r9
    b770:	e58d0004 	str	r0, [sp, #4]
    b774:	0a00000e 	beq	b7b4 <_IO_flush_all_linebuffered+0x88>
    b778:	e3a01001 	mov	r1, #1
    b77c:	e288200c 	add	r2, r8, #12
    b780:	e3a04000 	mov	r4, #0
    b784:	e5923000 	ldr	r3, [r2]
    b788:	e1530004 	cmp	r3, r4
    b78c:	1a000005 	bne	b7a8 <_IO_flush_all_linebuffered+0x7c>
    b790:	e1a00004 	mov	r0, r4
    b794:	e3e03a0f 	mvn	r3, #61440	; 0xf000
    b798:	e1a0e00f 	mov	lr, pc
    b79c:	e243f03f 	sub	pc, r3, #63	; 0x3f
    b7a0:	3afffff7 	bcc	b784 <_IO_flush_all_linebuffered+0x58>
    b7a4:	e1a03004 	mov	r3, r4
    b7a8:	e1530004 	cmp	r3, r4
    b7ac:	1a00008c 	bne	b9e4 <_IO_flush_all_linebuffered+0x2b8>
    b7b0:	e5889014 	str	r9, [r8, #20]
    b7b4:	e59f2240 	ldr	r2, [pc, #576]	; b9fc <_IO_flush_all_linebuffered+0x2d0>
    b7b8:	e5983010 	ldr	r3, [r8, #16]
    b7bc:	e5926000 	ldr	r6, [r2]
    b7c0:	e2833001 	add	r3, r3, #1
    b7c4:	e3560000 	cmp	r6, #0
    b7c8:	e5883010 	str	r3, [r8, #16]
    b7cc:	e598a018 	ldr	sl, [r8, #24]
    b7d0:	0a00004a 	beq	b900 <_IO_flush_all_linebuffered+0x1d4>
    b7d4:	e3a0b000 	mov	fp, #0
    b7d8:	ea000023 	b	b86c <_IO_flush_all_linebuffered+0x140>
    b7dc:	e5963000 	ldr	r3, [r6]
    b7e0:	e3130902 	tst	r3, #32768	; 0x8000
    b7e4:	1a000017 	bne	b848 <_IO_flush_all_linebuffered+0x11c>
    b7e8:	e5967048 	ldr	r7, [r6, #72]	; 0x48
    b7ec:	e5973004 	ldr	r3, [r7, #4]
    b7f0:	e2433001 	sub	r3, r3, #1
    b7f4:	e3530000 	cmp	r3, #0
    b7f8:	e5873004 	str	r3, [r7, #4]
    b7fc:	1a000011 	bne	b848 <_IO_flush_all_linebuffered+0x11c>
    b800:	e5873008 	str	r3, [r7, #8]
    b804:	e5975000 	ldr	r5, [r7]
    b808:	e3a01000 	mov	r1, #0
    b80c:	e1a02007 	mov	r2, r7
    b810:	e1a04005 	mov	r4, r5
    b814:	e5923000 	ldr	r3, [r2]
    b818:	e1530004 	cmp	r3, r4
    b81c:	1a000005 	bne	b838 <_IO_flush_all_linebuffered+0x10c>
    b820:	e1a00004 	mov	r0, r4
    b824:	e3e03a0f 	mvn	r3, #61440	; 0xf000
    b828:	e1a0e00f 	mov	lr, pc
    b82c:	e243f03f 	sub	pc, r3, #63	; 0x3f
    b830:	3afffff7 	bcc	b814 <_IO_flush_all_linebuffered+0xe8>
    b834:	e1a03004 	mov	r3, r4
    b838:	e1550003 	cmp	r5, r3
    b83c:	1afffff0 	bne	b804 <_IO_flush_all_linebuffered+0xd8>
    b840:	e3550001 	cmp	r5, #1
    b844:	ca000054 	bgt	b99c <_IO_flush_all_linebuffered+0x270>
    b848:	e5983018 	ldr	r3, [r8, #24]
    b84c:	e588b008 	str	fp, [r8, #8]
    b850:	e15a0003 	cmp	sl, r3
    b854:	159f21a0 	ldrne	r2, [pc, #416]	; b9fc <_IO_flush_all_linebuffered+0x2d0>
    b858:	05966034 	ldreq	r6, [r6, #52]	; 0x34
    b85c:	15926000 	ldrne	r6, [r2]
    b860:	11a0a003 	movne	sl, r3
    b864:	e3560000 	cmp	r6, #0
    b868:	0a000023 	beq	b8fc <_IO_flush_all_linebuffered+0x1d0>
    b86c:	e5964000 	ldr	r4, [r6]
    b870:	e5886008 	str	r6, [r8, #8]
    b874:	e2144902 	ands	r4, r4, #32768	; 0x8000
    b878:	1a000015 	bne	b8d4 <_IO_flush_all_linebuffered+0x1a8>
    b87c:	e5965048 	ldr	r5, [r6, #72]	; 0x48
    b880:	e5953008 	ldr	r3, [r5, #8]
    b884:	e1590003 	cmp	r9, r3
    b888:	0a00000e 	beq	b8c8 <_IO_flush_all_linebuffered+0x19c>
    b88c:	e3a01001 	mov	r1, #1
    b890:	e1a02005 	mov	r2, r5
    b894:	e5923000 	ldr	r3, [r2]
    b898:	e1530004 	cmp	r3, r4
    b89c:	1a000005 	bne	b8b8 <_IO_flush_all_linebuffered+0x18c>
    b8a0:	e1a00004 	mov	r0, r4
    b8a4:	e3e03a0f 	mvn	r3, #61440	; 0xf000
    b8a8:	e1a0e00f 	mov	lr, pc
    b8ac:	e243f03f 	sub	pc, r3, #63	; 0x3f
    b8b0:	3afffff7 	bcc	b894 <_IO_flush_all_linebuffered+0x168>
    b8b4:	e1a03004 	mov	r3, r4
    b8b8:	e3530000 	cmp	r3, #0
    b8bc:	1a000033 	bne	b990 <_IO_flush_all_linebuffered+0x264>
    b8c0:	e5965048 	ldr	r5, [r6, #72]	; 0x48
    b8c4:	e5859008 	str	r9, [r5, #8]
    b8c8:	e5953004 	ldr	r3, [r5, #4]
    b8cc:	e2833001 	add	r3, r3, #1
    b8d0:	e5853004 	str	r3, [r5, #4]
    b8d4:	e5963000 	ldr	r3, [r6]
    b8d8:	e2033f82 	and	r3, r3, #520	; 0x208
    b8dc:	e3530c02 	cmp	r3, #512	; 0x200
    b8e0:	1affffbd 	bne	b7dc <_IO_flush_all_linebuffered+0xb0>
    b8e4:	e5963098 	ldr	r3, [r6, #152]	; 0x98
    b8e8:	e1a00006 	mov	r0, r6
    b8ec:	e593300c 	ldr	r3, [r3, #12]
    b8f0:	e3e01000 	mvn	r1, #0
    b8f4:	e12fff33 	blx	r3
    b8f8:	eaffffb7 	b	b7dc <_IO_flush_all_linebuffered+0xb0>
    b8fc:	e5983010 	ldr	r3, [r8, #16]
    b900:	e2433001 	sub	r3, r3, #1
    b904:	e3530000 	cmp	r3, #0
    b908:	e5883010 	str	r3, [r8, #16]
    b90c:	1a000012 	bne	b95c <_IO_flush_all_linebuffered+0x230>
    b910:	e59f20e0 	ldr	r2, [pc, #224]	; b9f8 <_IO_flush_all_linebuffered+0x2cc>
    b914:	e5823014 	str	r3, [r2, #20]
    b918:	e598500c 	ldr	r5, [r8, #12]
    b91c:	e3a01000 	mov	r1, #0
    b920:	e59f20d8 	ldr	r2, [pc, #216]	; ba00 <_IO_flush_all_linebuffered+0x2d4>
    b924:	e1a04005 	mov	r4, r5
    b928:	e5923000 	ldr	r3, [r2]
    b92c:	e1530004 	cmp	r3, r4
    b930:	1a000005 	bne	b94c <_IO_flush_all_linebuffered+0x220>
    b934:	e1a00004 	mov	r0, r4
    b938:	e3e03a0f 	mvn	r3, #61440	; 0xf000
    b93c:	e1a0e00f 	mov	lr, pc
    b940:	e243f03f 	sub	pc, r3, #63	; 0x3f
    b944:	3afffff7 	bcc	b928 <_IO_flush_all_linebuffered+0x1fc>
    b948:	e1a03004 	mov	r3, r4
    b94c:	e1550003 	cmp	r5, r3
    b950:	1afffff0 	bne	b918 <_IO_flush_all_linebuffered+0x1ec>
    b954:	e3550001 	cmp	r5, #1
    b958:	ca000018 	bgt	b9c0 <_IO_flush_all_linebuffered+0x294>
    b95c:	e59d2000 	ldr	r2, [sp]
    b960:	e3520000 	cmp	r2, #0
    b964:	0a000002 	beq	b974 <_IO_flush_all_linebuffered+0x248>
    b968:	e28d0008 	add	r0, sp, #8
    b96c:	e3a01000 	mov	r1, #0
    b970:	e320f000 	nop	{0}
    b974:	e28dd01c 	add	sp, sp, #28
    b978:	e8bd8ff0 	pop	{r4, r5, r6, r7, r8, r9, sl, fp, pc}
    b97c:	e28d0008 	add	r0, sp, #8
    b980:	e59f106c 	ldr	r1, [pc, #108]	; b9f4 <_IO_flush_all_linebuffered+0x2c8>
    b984:	e3a02000 	mov	r2, #0
    b988:	e320f000 	nop	{0}
    b98c:	eaffff72 	b	b75c <_IO_flush_all_linebuffered+0x30>
    b990:	e1a00005 	mov	r0, r5
    b994:	eb0025a5 	bl	15030 <__lll_lock_wait_private>
    b998:	eaffffc8 	b	b8c0 <_IO_flush_all_linebuffered+0x194>
    b99c:	e59d3004 	ldr	r3, [sp, #4]
    b9a0:	e1a00007 	mov	r0, r7
    b9a4:	e51314b8 	ldr	r1, [r3, #-1208]	; 0x4b8
    b9a8:	e3a02001 	mov	r2, #1
    b9ac:	e3811001 	orr	r1, r1, #1
    b9b0:	e3a03000 	mov	r3, #0
    b9b4:	e3a070f0 	mov	r7, #240	; 0xf0
    b9b8:	ef000000 	svc	0x00000000
    b9bc:	eaffffa1 	b	b848 <_IO_flush_all_linebuffered+0x11c>
    b9c0:	e59d3004 	ldr	r3, [sp, #4]
    b9c4:	e1a00002 	mov	r0, r2
    b9c8:	e51314b8 	ldr	r1, [r3, #-1208]	; 0x4b8
    b9cc:	e3a02001 	mov	r2, #1
    b9d0:	e3811001 	orr	r1, r1, #1
    b9d4:	e3a03000 	mov	r3, #0
    b9d8:	e3a070f0 	mov	r7, #240	; 0xf0
    b9dc:	ef000000 	svc	0x00000000
    b9e0:	eaffffdd 	b	b95c <_IO_flush_all_linebuffered+0x230>
    b9e4:	e1a00002 	mov	r0, r2
    b9e8:	eb002590 	bl	15030 <__lll_lock_wait_private>
    b9ec:	eaffff6f 	b	b7b0 <_IO_flush_all_linebuffered+0x84>
    b9f0:	00000000 	.word	0x00000000
    b9f4:	00009f64 	.word	0x00009f64
    b9f8:	00084920 	.word	0x00084920
    b9fc:	00083b90 	.word	0x00083b90
    ba00:	0008492c 	.word	0x0008492c

0000ba04 <_IO_init_marker>:
    ba04:	e92d4038 	push	{r3, r4, r5, lr}
    ba08:	e5913000 	ldr	r3, [r1]
    ba0c:	e1a05000 	mov	r5, r0
    ba10:	e3130b02 	tst	r3, #2048	; 0x800
    ba14:	e1a04001 	mov	r4, r1
    ba18:	e5851004 	str	r1, [r5, #4]
    ba1c:	1a000009 	bne	ba48 <_IO_init_marker+0x44>
    ba20:	e3130c01 	tst	r3, #256	; 0x100
    ba24:	e5942004 	ldr	r2, [r4, #4]
    ba28:	15943008 	ldrne	r3, [r4, #8]
    ba2c:	0594300c 	ldreq	r3, [r4, #12]
    ba30:	e0633002 	rsb	r3, r3, r2
    ba34:	e5853008 	str	r3, [r5, #8]
    ba38:	e5943030 	ldr	r3, [r4, #48]	; 0x30
    ba3c:	e5853000 	str	r3, [r5]
    ba40:	e5845030 	str	r5, [r4, #48]	; 0x30
    ba44:	e8bd8038 	pop	{r3, r4, r5, pc}
    ba48:	e1a00001 	mov	r0, r1
    ba4c:	ebfffb87 	bl	a870 <_IO_switch_to_get_mode>
    ba50:	e5943000 	ldr	r3, [r4]
    ba54:	eafffff1 	b	ba20 <_IO_init_marker+0x1c>

0000ba58 <_IO_remove_marker>:
    ba58:	e5902004 	ldr	r2, [r0, #4]
    ba5c:	e5923030 	ldr	r3, [r2, #48]	; 0x30
    ba60:	e3530000 	cmp	r3, #0
    ba64:	012fff1e 	bxeq	lr
    ba68:	e1500003 	cmp	r0, r3
    ba6c:	02822030 	addeq	r2, r2, #48	; 0x30
    ba70:	1a000002 	bne	ba80 <_IO_remove_marker+0x28>
    ba74:	ea000006 	b	ba94 <_IO_remove_marker+0x3c>
    ba78:	e1500003 	cmp	r0, r3
    ba7c:	0a000004 	beq	ba94 <_IO_remove_marker+0x3c>
    ba80:	e1a02003 	mov	r2, r3
    ba84:	e5933000 	ldr	r3, [r3]
    ba88:	e3530000 	cmp	r3, #0
    ba8c:	1afffff9 	bne	ba78 <_IO_remove_marker+0x20>
    ba90:	e12fff1e 	bx	lr
    ba94:	e5903000 	ldr	r3, [r0]
    ba98:	e5823000 	str	r3, [r2]
    ba9c:	e12fff1e 	bx	lr

0000baa0 <_IO_marker_difference>:
    baa0:	e5903008 	ldr	r3, [r0, #8]
    baa4:	e5910008 	ldr	r0, [r1, #8]
    baa8:	e0600003 	rsb	r0, r0, r3
    baac:	e12fff1e 	bx	lr

0000bab0 <_IO_marker_delta>:
    bab0:	e5903004 	ldr	r3, [r0, #4]
    bab4:	e3530000 	cmp	r3, #0
    bab8:	0a000008 	beq	bae0 <_IO_marker_delta+0x30>
    babc:	e5932000 	ldr	r2, [r3]
    bac0:	e5900008 	ldr	r0, [r0, #8]
    bac4:	e3120c01 	tst	r2, #256	; 0x100
    bac8:	e5932004 	ldr	r2, [r3, #4]
    bacc:	15933008 	ldrne	r3, [r3, #8]
    bad0:	0593300c 	ldreq	r3, [r3, #12]
    bad4:	e0633002 	rsb	r3, r3, r2
    bad8:	e0630000 	rsb	r0, r3, r0
    badc:	e12fff1e 	bx	lr
    bae0:	e3e00000 	mvn	r0, #0
    bae4:	e12fff1e 	bx	lr

0000bae8 <_IO_seekmark>:
    bae8:	e5913004 	ldr	r3, [r1, #4]
    baec:	e92d0030 	push	{r4, r5}
    baf0:	e1530000 	cmp	r3, r0
    baf4:	13e00000 	mvnne	r0, #0
    baf8:	0a000001 	beq	bb04 <_IO_seekmark+0x1c>
    bafc:	e8bd0030 	pop	{r4, r5}
    bb00:	e12fff1e 	bx	lr
    bb04:	e5912008 	ldr	r2, [r1, #8]
    bb08:	e3520000 	cmp	r2, #0
    bb0c:	ba000011 	blt	bb58 <_IO_seekmark+0x70>
    bb10:	e5930000 	ldr	r0, [r3]
    bb14:	e3100c01 	tst	r0, #256	; 0x100
    bb18:	0593100c 	ldreq	r1, [r3, #12]
    bb1c:	0a000009 	beq	bb48 <_IO_seekmark+0x60>
    bb20:	e5934008 	ldr	r4, [r3, #8]
    bb24:	e593502c 	ldr	r5, [r3, #44]	; 0x2c
    bb28:	e593c00c 	ldr	ip, [r3, #12]
    bb2c:	e5931024 	ldr	r1, [r3, #36]	; 0x24
    bb30:	e3c00c01 	bic	r0, r0, #256	; 0x100
    bb34:	e5830000 	str	r0, [r3]
    bb38:	e5835008 	str	r5, [r3, #8]
    bb3c:	e583402c 	str	r4, [r3, #44]	; 0x2c
    bb40:	e583100c 	str	r1, [r3, #12]
    bb44:	e583c024 	str	ip, [r3, #36]	; 0x24
    bb48:	e0812002 	add	r2, r1, r2
    bb4c:	e5832004 	str	r2, [r3, #4]
    bb50:	e3a00000 	mov	r0, #0
    bb54:	eaffffe8 	b	bafc <_IO_seekmark+0x14>
    bb58:	e5930000 	ldr	r0, [r3]
    bb5c:	e3100c01 	tst	r0, #256	; 0x100
    bb60:	15931008 	ldrne	r1, [r3, #8]
    bb64:	1afffff7 	bne	bb48 <_IO_seekmark+0x60>
    bb68:	e5935008 	ldr	r5, [r3, #8]
    bb6c:	e593102c 	ldr	r1, [r3, #44]	; 0x2c
    bb70:	e593c00c 	ldr	ip, [r3, #12]
    bb74:	e5934024 	ldr	r4, [r3, #36]	; 0x24
    bb78:	e3800c01 	orr	r0, r0, #256	; 0x100
    bb7c:	e5830000 	str	r0, [r3]
    bb80:	e5831008 	str	r1, [r3, #8]
    bb84:	e583502c 	str	r5, [r3, #44]	; 0x2c
    bb88:	e583400c 	str	r4, [r3, #12]
    bb8c:	e583c024 	str	ip, [r3, #36]	; 0x24
    bb90:	eaffffec 	b	bb48 <_IO_seekmark+0x60>

0000bb94 <_IO_unsave_markers>:
    bb94:	e5903030 	ldr	r3, [r0, #48]	; 0x30
    bb98:	e3530000 	cmp	r3, #0
    bb9c:	13a03000 	movne	r3, #0
    bba0:	15803030 	strne	r3, [r0, #48]	; 0x30
    bba4:	e5903024 	ldr	r3, [r0, #36]	; 0x24
    bba8:	e3530000 	cmp	r3, #0
    bbac:	012fff1e 	bxeq	lr
    bbb0:	eafffb4e 	b	a8f0 <_IO_free_backup_area>

0000bbb4 <_IO_default_pbackfail>:
    bbb4:	e92d47f0 	push	{r4, r5, r6, r7, r8, r9, sl, lr}
    bbb8:	e5908004 	ldr	r8, [r0, #4]
    bbbc:	e590a00c 	ldr	sl, [r0, #12]
    bbc0:	e1a04000 	mov	r4, r0
    bbc4:	e158000a 	cmp	r8, sl
    bbc8:	e1a05001 	mov	r5, r1
    bbcc:	9a000015 	bls	bc28 <_IO_default_pbackfail+0x74>
    bbd0:	e5903000 	ldr	r3, [r0]
    bbd4:	e3130c01 	tst	r3, #256	; 0x100
    bbd8:	1a000021 	bne	bc64 <_IO_default_pbackfail+0xb0>
    bbdc:	e5583001 	ldrb	r3, [r8, #-1]
    bbe0:	e2482001 	sub	r2, r8, #1
    bbe4:	e1530001 	cmp	r3, r1
    bbe8:	05802004 	streq	r2, [r0, #4]
    bbec:	020300ff 	andeq	r0, r3, #255	; 0xff
    bbf0:	08bd87f0 	popeq	{r4, r5, r6, r7, r8, r9, sl, pc}
    bbf4:	e5943024 	ldr	r3, [r4, #36]	; 0x24
    bbf8:	e3530000 	cmp	r3, #0
    bbfc:	1a000032 	bne	bccc <_IO_default_pbackfail+0x118>
    bc00:	e3a00080 	mov	r0, #128	; 0x80
    bc04:	eb0013fc 	bl	10bfc <__libc_malloc>
    bc08:	e3500000 	cmp	r0, #0
    bc0c:	0a00002c 	beq	bcc4 <_IO_default_pbackfail+0x110>
    bc10:	e2802080 	add	r2, r0, #128	; 0x80
    bc14:	e1a01008 	mov	r1, r8
    bc18:	e5943000 	ldr	r3, [r4]
    bc1c:	e5842028 	str	r2, [r4, #40]	; 0x28
    bc20:	e1a08002 	mov	r8, r2
    bc24:	ea000007 	b	bc48 <_IO_default_pbackfail+0x94>
    bc28:	e5903000 	ldr	r3, [r0]
    bc2c:	e3130c01 	tst	r3, #256	; 0x100
    bc30:	1a000010 	bne	bc78 <_IO_default_pbackfail+0xc4>
    bc34:	e5900024 	ldr	r0, [r0, #36]	; 0x24
    bc38:	e3500000 	cmp	r0, #0
    bc3c:	0affffef 	beq	bc00 <_IO_default_pbackfail+0x4c>
    bc40:	e1a01008 	mov	r1, r8
    bc44:	e594802c 	ldr	r8, [r4, #44]	; 0x2c
    bc48:	e5942008 	ldr	r2, [r4, #8]
    bc4c:	e3833c01 	orr	r3, r3, #256	; 0x100
    bc50:	e5843000 	str	r3, [r4]
    bc54:	e5848008 	str	r8, [r4, #8]
    bc58:	e584202c 	str	r2, [r4, #44]	; 0x2c
    bc5c:	e584000c 	str	r0, [r4, #12]
    bc60:	e5841024 	str	r1, [r4, #36]	; 0x24
    bc64:	e2483001 	sub	r3, r8, #1
    bc68:	e20500ff 	and	r0, r5, #255	; 0xff
    bc6c:	e5843004 	str	r3, [r4, #4]
    bc70:	e5480001 	strb	r0, [r8, #-1]
    bc74:	e8bd87f0 	pop	{r4, r5, r6, r7, r8, r9, sl, pc}
    bc78:	e5909008 	ldr	r9, [r0, #8]
    bc7c:	e06a9009 	rsb	r9, sl, r9
    bc80:	e1a07089 	lsl	r7, r9, #1
    bc84:	e1a00007 	mov	r0, r7
    bc88:	eb0013db 	bl	10bfc <__libc_malloc>
    bc8c:	e2506000 	subs	r6, r0, #0
    bc90:	0a000016 	beq	bcf0 <_IO_default_pbackfail+0x13c>
    bc94:	e0868009 	add	r8, r6, r9
    bc98:	e1a0100a 	mov	r1, sl
    bc9c:	e1a02009 	mov	r2, r9
    bca0:	e1a00008 	mov	r0, r8
    bca4:	eb001ec5 	bl	137c0 <memcpy>
    bca8:	e0867007 	add	r7, r6, r7
    bcac:	e594000c 	ldr	r0, [r4, #12]
    bcb0:	eb001590 	bl	112f8 <__cfree>
    bcb4:	e584600c 	str	r6, [r4, #12]
    bcb8:	e5847008 	str	r7, [r4, #8]
    bcbc:	e5848028 	str	r8, [r4, #40]	; 0x28
    bcc0:	eaffffe7 	b	bc64 <_IO_default_pbackfail+0xb0>
    bcc4:	e3e00000 	mvn	r0, #0
    bcc8:	e8bd87f0 	pop	{r4, r5, r6, r7, r8, r9, sl, pc}
    bccc:	e1a01008 	mov	r1, r8
    bcd0:	ebfff8ef 	bl	a094 <save_for_backup>
    bcd4:	e3500000 	cmp	r0, #0
    bcd8:	1afffff9 	bne	bcc4 <_IO_default_pbackfail+0x110>
    bcdc:	e5941004 	ldr	r1, [r4, #4]
    bce0:	e594802c 	ldr	r8, [r4, #44]	; 0x2c
    bce4:	e5940024 	ldr	r0, [r4, #36]	; 0x24
    bce8:	e5943000 	ldr	r3, [r4]
    bcec:	eaffffd5 	b	bc48 <_IO_default_pbackfail+0x94>
    bcf0:	e3e00000 	mvn	r0, #0
    bcf4:	e8bd87f0 	pop	{r4, r5, r6, r7, r8, r9, sl, pc}

0000bcf8 <_IO_default_seek>:
    bcf8:	e3e00000 	mvn	r0, #0
    bcfc:	e3e01000 	mvn	r1, #0
    bd00:	e12fff1e 	bx	lr

0000bd04 <_IO_default_stat>:
    bd04:	e3e00000 	mvn	r0, #0
    bd08:	e12fff1e 	bx	lr

0000bd0c <_IO_default_read>:
    bd0c:	e3e00000 	mvn	r0, #0
    bd10:	e12fff1e 	bx	lr

0000bd14 <_IO_default_write>:
    bd14:	e3a00000 	mov	r0, #0
    bd18:	e12fff1e 	bx	lr

0000bd1c <_IO_default_showmanyc>:
    bd1c:	e3e00000 	mvn	r0, #0
    bd20:	e12fff1e 	bx	lr

0000bd24 <_IO_default_imbue>:
    bd24:	e12fff1e 	bx	lr

0000bd28 <_IO_iter_begin>:
    bd28:	e59f3004 	ldr	r3, [pc, #4]	; bd34 <_IO_iter_begin+0xc>
    bd2c:	e5930000 	ldr	r0, [r3]
    bd30:	e12fff1e 	bx	lr
    bd34:	00083b90 	.word	0x00083b90

0000bd38 <_IO_iter_end>:
    bd38:	e3a00000 	mov	r0, #0
    bd3c:	e12fff1e 	bx	lr

0000bd40 <_IO_iter_next>:
    bd40:	e5900034 	ldr	r0, [r0, #52]	; 0x34
    bd44:	e12fff1e 	bx	lr

0000bd48 <_IO_iter_file>:
    bd48:	e12fff1e 	bx	lr

0000bd4c <_IO_list_lock>:
    bd4c:	e92d4070 	push	{r4, r5, r6, lr}
    bd50:	e59f6068 	ldr	r6, [pc, #104]	; bdc0 <_IO_list_lock+0x74>
    bd54:	ebfff365 	bl	8af0 <__aeabi_read_tp>
    bd58:	e5963014 	ldr	r3, [r6, #20]
    bd5c:	e2405d13 	sub	r5, r0, #1216	; 0x4c0
    bd60:	e1530005 	cmp	r3, r5
    bd64:	0a00000e 	beq	bda4 <_IO_list_lock+0x58>
    bd68:	e3a01001 	mov	r1, #1
    bd6c:	e286200c 	add	r2, r6, #12
    bd70:	e3a04000 	mov	r4, #0
    bd74:	e5923000 	ldr	r3, [r2]
    bd78:	e1530004 	cmp	r3, r4
    bd7c:	1a000005 	bne	bd98 <_IO_list_lock+0x4c>
    bd80:	e1a00004 	mov	r0, r4
    bd84:	e3e03a0f 	mvn	r3, #61440	; 0xf000
    bd88:	e1a0e00f 	mov	lr, pc
    bd8c:	e243f03f 	sub	pc, r3, #63	; 0x3f
    bd90:	3afffff7 	bcc	bd74 <_IO_list_lock+0x28>
    bd94:	e1a03004 	mov	r3, r4
    bd98:	e1530004 	cmp	r3, r4
    bd9c:	1a000004 	bne	bdb4 <_IO_list_lock+0x68>
    bda0:	e5865014 	str	r5, [r6, #20]
    bda4:	e5963010 	ldr	r3, [r6, #16]
    bda8:	e2833001 	add	r3, r3, #1
    bdac:	e5863010 	str	r3, [r6, #16]
    bdb0:	e8bd8070 	pop	{r4, r5, r6, pc}
    bdb4:	e1a00002 	mov	r0, r2
    bdb8:	eb00249c 	bl	15030 <__lll_lock_wait_private>
    bdbc:	eafffff7 	b	bda0 <_IO_list_lock+0x54>
    bdc0:	00084920 	.word	0x00084920

0000bdc4 <_IO_list_unlock>:
    bdc4:	e92d40f0 	push	{r4, r5, r6, r7, lr}
    bdc8:	e59f607c 	ldr	r6, [pc, #124]	; be4c <_IO_list_unlock+0x88>
    bdcc:	e5963010 	ldr	r3, [r6, #16]
    bdd0:	e2433001 	sub	r3, r3, #1
    bdd4:	e3530000 	cmp	r3, #0
    bdd8:	e5863010 	str	r3, [r6, #16]
    bddc:	18bd80f0 	popne	{r4, r5, r6, r7, pc}
    bde0:	e5863014 	str	r3, [r6, #20]
    bde4:	e596500c 	ldr	r5, [r6, #12]
    bde8:	e3a01000 	mov	r1, #0
    bdec:	e59f205c 	ldr	r2, [pc, #92]	; be50 <_IO_list_unlock+0x8c>
    bdf0:	e1a04005 	mov	r4, r5
    bdf4:	e5923000 	ldr	r3, [r2]
    bdf8:	e1530004 	cmp	r3, r4
    bdfc:	1a000005 	bne	be18 <_IO_list_unlock+0x54>
    be00:	e1a00004 	mov	r0, r4
    be04:	e3e03a0f 	mvn	r3, #61440	; 0xf000
    be08:	e1a0e00f 	mov	lr, pc
    be0c:	e243f03f 	sub	pc, r3, #63	; 0x3f
    be10:	3afffff7 	bcc	bdf4 <_IO_list_unlock+0x30>
    be14:	e1a03004 	mov	r3, r4
    be18:	e1550003 	cmp	r5, r3
    be1c:	1afffff0 	bne	bde4 <_IO_list_unlock+0x20>
    be20:	e3550001 	cmp	r5, #1
    be24:	d8bd80f0 	pople	{r4, r5, r6, r7, pc}
    be28:	ebfff330 	bl	8af0 <__aeabi_read_tp>
    be2c:	e51014b8 	ldr	r1, [r0, #-1208]	; 0x4b8
    be30:	e3a03000 	mov	r3, #0
    be34:	e1a00002 	mov	r0, r2
    be38:	e3811001 	orr	r1, r1, #1
    be3c:	e3a02001 	mov	r2, #1
    be40:	e3a070f0 	mov	r7, #240	; 0xf0
    be44:	ef000000 	svc	0x00000000
    be48:	e8bd80f0 	pop	{r4, r5, r6, r7, pc}
    be4c:	00084920 	.word	0x00084920
    be50:	0008492c 	.word	0x0008492c

0000be54 <_IO_list_resetlock>:
    be54:	e59f3010 	ldr	r3, [pc, #16]	; be6c <_IO_list_resetlock+0x18>
    be58:	e3a02000 	mov	r2, #0
    be5c:	e583200c 	str	r2, [r3, #12]
    be60:	e5832010 	str	r2, [r3, #16]
    be64:	e5832014 	str	r2, [r3, #20]
    be68:	e12fff1e 	bx	lr
    be6c:	00084920 	.word	0x00084920

0000be70 <ptmalloc_unlock_all2>:
    be70:	e59f3060 	ldr	r3, [pc, #96]	; bed8 <ptmalloc_unlock_all2+0x68>
    be74:	e92d4030 	push	{r4, r5, lr}
    be78:	e5933000 	ldr	r3, [r3]
    be7c:	e3530000 	cmp	r3, #0
    be80:	d8bd8030 	pople	{r4, r5, pc}
    be84:	e59f3050 	ldr	r3, [pc, #80]	; bedc <ptmalloc_unlock_all2+0x6c>
    be88:	e59f2050 	ldr	r2, [pc, #80]	; bee0 <ptmalloc_unlock_all2+0x70>
    be8c:	e593544c 	ldr	r5, [r3, #1100]	; 0x44c
    be90:	e79f2002 	ldr	r2, [pc, r2]
    be94:	ebfff315 	bl	8af0 <__aeabi_read_tp>
    be98:	e5934450 	ldr	r4, [r3, #1104]	; 0x450
    be9c:	e7805002 	str	r5, [r0, r2]
    bea0:	e59f203c 	ldr	r2, [pc, #60]	; bee4 <ptmalloc_unlock_all2+0x74>
    bea4:	e5931454 	ldr	r1, [r3, #1108]	; 0x454
    bea8:	e5824000 	str	r4, [r2]
    beac:	e59f2034 	ldr	r2, [pc, #52]	; bee8 <ptmalloc_unlock_all2+0x78>
    beb0:	e5821000 	str	r1, [r2]
    beb4:	e1a02003 	mov	r2, r3
    beb8:	e3a01000 	mov	r1, #0
    bebc:	e5821000 	str	r1, [r2]
    bec0:	e5922440 	ldr	r2, [r2, #1088]	; 0x440
    bec4:	e1520003 	cmp	r2, r3
    bec8:	1afffffb 	bne	bebc <ptmalloc_unlock_all2+0x4c>
    becc:	e5821458 	str	r1, [r2, #1112]	; 0x458
    bed0:	e582145c 	str	r1, [r2, #1116]	; 0x45c
    bed4:	e8bd8030 	pop	{r4, r5, pc}
    bed8:	00083dd4 	.word	0x00083dd4
    bedc:	00084960 	.word	0x00084960
    bee0:	00077aa0 	.word	0x00077aa0
    bee4:	00083de0 	.word	0x00083de0
    bee8:	00084e28 	.word	0x00084e28

0000beec <mem2mem_check>:
    beec:	e3500000 	cmp	r0, #0
    bef0:	e52d4004 	push	{r4}		; (str r4, [sp, #-4]!)
    bef4:	0a000018 	beq	bf5c <mem2mem_check+0x70>
    bef8:	e2404008 	sub	r4, r0, #8
    befc:	e5942004 	ldr	r2, [r4, #4]
    bf00:	e3120002 	tst	r2, #2
    bf04:	03a0c005 	moveq	ip, #5
    bf08:	13a0c009 	movne	ip, #9
    bf0c:	e3c23007 	bic	r3, r2, #7
    bf10:	e06c3003 	rsb	r3, ip, r3
    bf14:	e1530001 	cmp	r3, r1
    bf18:	9a00000c 	bls	bf50 <mem2mem_check+0x64>
    bf1c:	e0612003 	rsb	r2, r1, r3
    bf20:	e35200ff 	cmp	r2, #255	; 0xff
    bf24:	e1a0c002 	mov	ip, r2
    bf28:	83e0c000 	mvnhi	ip, #0
    bf2c:	8a000002 	bhi	bf3c <mem2mem_check+0x50>
    bf30:	ea00000c 	b	bf68 <mem2mem_check+0x7c>
    bf34:	e35200ff 	cmp	r2, #255	; 0xff
    bf38:	9a000009 	bls	bf64 <mem2mem_check+0x78>
    bf3c:	e7c0c003 	strb	ip, [r0, r3]
    bf40:	e24330ff 	sub	r3, r3, #255	; 0xff
    bf44:	e1510003 	cmp	r1, r3
    bf48:	e24220ff 	sub	r2, r2, #255	; 0xff
    bf4c:	3afffff8 	bcc	bf34 <mem2mem_check+0x48>
    bf50:	e1a031a4 	lsr	r3, r4, #3
    bf54:	e02345a4 	eor	r4, r3, r4, lsr #11
    bf58:	e7c04001 	strb	r4, [r0, r1]
    bf5c:	e8bd0010 	pop	{r4}
    bf60:	e12fff1e 	bx	lr
    bf64:	e061c003 	rsb	ip, r1, r3
    bf68:	e7c0c003 	strb	ip, [r0, r3]
    bf6c:	eafffff7 	b	bf50 <mem2mem_check+0x64>

0000bf70 <mem2chunk_check>:
    bf70:	e92d45f8 	push	{r3, r4, r5, r6, r7, r8, sl, lr}
    bf74:	e2105007 	ands	r5, r0, #7
    bf78:	e1a04000 	mov	r4, r0
    bf7c:	e1a08001 	mov	r8, r1
    bf80:	1a000021 	bne	c00c <mem2chunk_check+0x9c>
    bf84:	e2406008 	sub	r6, r0, #8
    bf88:	e5967004 	ldr	r7, [r6, #4]
    bf8c:	e2172002 	ands	r2, r7, #2
    bf90:	0a000020 	beq	c018 <mem2chunk_check+0xa8>
    bf94:	eb00212f 	bl	14458 <__getpagesize>
    bf98:	e2400001 	sub	r0, r0, #1
    bf9c:	e0103004 	ands	r3, r0, r4
    bfa0:	03a02000 	moveq	r2, #0
    bfa4:	13a02001 	movne	r2, #1
    bfa8:	e3530008 	cmp	r3, #8
    bfac:	03a02000 	moveq	r2, #0
    bfb0:	12022001 	andne	r2, r2, #1
    bfb4:	e3520000 	cmp	r2, #0
    bfb8:	0a00000f 	beq	bffc <mem2chunk_check+0x8c>
    bfbc:	e3530020 	cmp	r3, #32
    bfc0:	13530010 	cmpne	r3, #16
    bfc4:	0a00000c 	beq	bffc <mem2chunk_check+0x8c>
    bfc8:	e3530080 	cmp	r3, #128	; 0x80
    bfcc:	13530040 	cmpne	r3, #64	; 0x40
    bfd0:	0a000009 	beq	bffc <mem2chunk_check+0x8c>
    bfd4:	e3530c02 	cmp	r3, #512	; 0x200
    bfd8:	13530c01 	cmpne	r3, #256	; 0x100
    bfdc:	0a000006 	beq	bffc <mem2chunk_check+0x8c>
    bfe0:	e3530b02 	cmp	r3, #2048	; 0x800
    bfe4:	13530b01 	cmpne	r3, #1024	; 0x400
    bfe8:	0a000003 	beq	bffc <mem2chunk_check+0x8c>
    bfec:	e3530a01 	cmp	r3, #4096	; 0x1000
    bff0:	13530a02 	cmpne	r3, #8192	; 0x2000
    bff4:	31a06005 	movcc	r6, r5
    bff8:	3a000004 	bcc	c010 <mem2chunk_check+0xa0>
    bffc:	e5963004 	ldr	r3, [r6, #4]
    c000:	e2033003 	and	r3, r3, #3
    c004:	e3530002 	cmp	r3, #2
    c008:	0a000039 	beq	c0f4 <mem2chunk_check+0x184>
    c00c:	e3a06000 	mov	r6, #0
    c010:	e1a00006 	mov	r0, r6
    c014:	e8bd85f8 	pop	{r3, r4, r5, r6, r7, r8, sl, pc}
    c018:	e59f31a8 	ldr	r3, [pc, #424]	; c1c8 <mem2chunk_check+0x258>
    c01c:	e3c70007 	bic	r0, r7, #7
    c020:	e5931004 	ldr	r1, [r3, #4]
    c024:	e3110002 	tst	r1, #2
    c028:	13a01000 	movne	r1, #0
    c02c:	03a01001 	moveq	r1, #1
    c030:	e3510000 	cmp	r1, #0
    c034:	0a00000a 	beq	c064 <mem2chunk_check+0xf4>
    c038:	e593c48c 	ldr	ip, [r3, #1164]	; 0x48c
    c03c:	e15c0006 	cmp	ip, r6
    c040:	9a000002 	bls	c050 <mem2chunk_check+0xe0>
    c044:	e1a06002 	mov	r6, r2
    c048:	e1a00006 	mov	r0, r6
    c04c:	e8bd85f8 	pop	{r3, r4, r5, r6, r7, r8, sl, pc}
    c050:	e593a444 	ldr	sl, [r3, #1092]	; 0x444
    c054:	e0865000 	add	r5, r6, r0
    c058:	e08cc00a 	add	ip, ip, sl
    c05c:	e155000c 	cmp	r5, ip
    c060:	2afffff7 	bcs	c044 <mem2chunk_check+0xd4>
    c064:	e350000f 	cmp	r0, #15
    c068:	9affffe7 	bls	c00c <mem2chunk_check+0x9c>
    c06c:	e0862000 	add	r2, r6, r0
    c070:	e5922004 	ldr	r2, [r2, #4]
    c074:	e2122001 	ands	r2, r2, #1
    c078:	0afffff1 	beq	c044 <mem2chunk_check+0xd4>
    c07c:	e2177001 	ands	r7, r7, #1
    c080:	0a00003b 	beq	c174 <mem2chunk_check+0x204>
    c084:	e2802003 	add	r2, r0, #3
    c088:	e1a001a6 	lsr	r0, r6, #3
    c08c:	e7d63002 	ldrb	r3, [r6, r2]
    c090:	e02005a6 	eor	r0, r0, r6, lsr #11
    c094:	e20000ff 	and	r0, r0, #255	; 0xff
    c098:	e1530000 	cmp	r3, r0
    c09c:	0a00000e 	beq	c0dc <mem2chunk_check+0x16c>
    c0a0:	e3530000 	cmp	r3, #0
    c0a4:	0a000030 	beq	c16c <mem2chunk_check+0x1fc>
    c0a8:	e2831008 	add	r1, r3, #8
    c0ac:	e1520001 	cmp	r2, r1
    c0b0:	2a000004 	bcs	c0c8 <mem2chunk_check+0x158>
    c0b4:	eaffffd4 	b	c00c <mem2chunk_check+0x9c>
    c0b8:	e3530000 	cmp	r3, #0
    c0bc:	0a00002a 	beq	c16c <mem2chunk_check+0x1fc>
    c0c0:	e1510002 	cmp	r1, r2
    c0c4:	8affffd0 	bhi	c00c <mem2chunk_check+0x9c>
    c0c8:	e0632002 	rsb	r2, r3, r2
    c0cc:	e7d63002 	ldrb	r3, [r6, r2]
    c0d0:	e1530000 	cmp	r3, r0
    c0d4:	e2831008 	add	r1, r3, #8
    c0d8:	1afffff6 	bne	c0b8 <mem2chunk_check+0x148>
    c0dc:	e1e03003 	mvn	r3, r3
    c0e0:	e3580000 	cmp	r8, #0
    c0e4:	e0861002 	add	r1, r6, r2
    c0e8:	e7c63002 	strb	r3, [r6, r2]
    c0ec:	15881000 	strne	r1, [r8]
    c0f0:	eaffffc6 	b	c010 <mem2chunk_check+0xa0>
    c0f4:	e5141008 	ldr	r1, [r4, #-8]
    c0f8:	e3c72007 	bic	r2, r7, #7
    c0fc:	e0613006 	rsb	r3, r1, r6
    c100:	e0821001 	add	r1, r2, r1
    c104:	e1833001 	orr	r3, r3, r1
    c108:	e0100003 	ands	r0, r0, r3
    c10c:	1affffbe 	bne	c00c <mem2chunk_check+0x9c>
    c110:	e2422001 	sub	r2, r2, #1
    c114:	e1a0c1a6 	lsr	ip, r6, #3
    c118:	e7d63002 	ldrb	r3, [r6, r2]
    c11c:	e02cc5a6 	eor	ip, ip, r6, lsr #11
    c120:	e20cc0ff 	and	ip, ip, #255	; 0xff
    c124:	e153000c 	cmp	r3, ip
    c128:	0affffeb 	beq	c0dc <mem2chunk_check+0x16c>
    c12c:	e3530000 	cmp	r3, #0
    c130:	0a00000d 	beq	c16c <mem2chunk_check+0x1fc>
    c134:	e2831008 	add	r1, r3, #8
    c138:	e1520001 	cmp	r2, r1
    c13c:	2a000004 	bcs	c154 <mem2chunk_check+0x1e4>
    c140:	ea00001e 	b	c1c0 <mem2chunk_check+0x250>
    c144:	e3530000 	cmp	r3, #0
    c148:	0a000007 	beq	c16c <mem2chunk_check+0x1fc>
    c14c:	e1510002 	cmp	r1, r2
    c150:	8affffad 	bhi	c00c <mem2chunk_check+0x9c>
    c154:	e0632002 	rsb	r2, r3, r2
    c158:	e7d63002 	ldrb	r3, [r6, r2]
    c15c:	e153000c 	cmp	r3, ip
    c160:	e2831008 	add	r1, r3, #8
    c164:	1afffff6 	bne	c144 <mem2chunk_check+0x1d4>
    c168:	eaffffdb 	b	c0dc <mem2chunk_check+0x16c>
    c16c:	e1a06003 	mov	r6, r3
    c170:	eaffffa6 	b	c010 <mem2chunk_check+0xa0>
    c174:	e5142008 	ldr	r2, [r4, #-8]
    c178:	e212c007 	ands	ip, r2, #7
    c17c:	11a06007 	movne	r6, r7
    c180:	1affffa2 	bne	c010 <mem2chunk_check+0xa0>
    c184:	e3510000 	cmp	r1, #0
    c188:	02621000 	rsbeq	r1, r2, #0
    c18c:	0a000005 	beq	c1a8 <mem2chunk_check+0x238>
    c190:	e593448c 	ldr	r4, [r3, #1164]	; 0x48c
    c194:	e2621000 	rsb	r1, r2, #0
    c198:	e0863001 	add	r3, r6, r1
    c19c:	e1540003 	cmp	r4, r3
    c1a0:	81a0600c 	movhi	r6, ip
    c1a4:	8affff99 	bhi	c010 <mem2chunk_check+0xa0>
    c1a8:	e0861001 	add	r1, r6, r1
    c1ac:	e5913004 	ldr	r3, [r1, #4]
    c1b0:	e3c33007 	bic	r3, r3, #7
    c1b4:	e1520003 	cmp	r2, r3
    c1b8:	1affff93 	bne	c00c <mem2chunk_check+0x9c>
    c1bc:	eaffffb0 	b	c084 <mem2chunk_check+0x114>
    c1c0:	e1a06000 	mov	r6, r0
    c1c4:	eaffff91 	b	c010 <mem2chunk_check+0xa0>
    c1c8:	00084960 	.word	0x00084960

0000c1cc <ptmalloc_lock_all>:
    c1cc:	e59f3148 	ldr	r3, [pc, #328]	; c31c <ptmalloc_lock_all+0x150>
    c1d0:	e92d4070 	push	{r4, r5, r6, lr}
    c1d4:	e5933000 	ldr	r3, [r3]
    c1d8:	e3530000 	cmp	r3, #0
    c1dc:	d8bd8070 	pople	{r4, r5, r6, pc}
    c1e0:	e3a01001 	mov	r1, #1
    c1e4:	e59f2134 	ldr	r2, [pc, #308]	; c320 <ptmalloc_lock_all+0x154>
    c1e8:	e3a04000 	mov	r4, #0
    c1ec:	e5923000 	ldr	r3, [r2]
    c1f0:	e1530004 	cmp	r3, r4
    c1f4:	1a000005 	bne	c210 <ptmalloc_lock_all+0x44>
    c1f8:	e1a00004 	mov	r0, r4
    c1fc:	e3e03a0f 	mvn	r3, #61440	; 0xf000
    c200:	e1a0e00f 	mov	lr, pc
    c204:	e243f03f 	sub	pc, r3, #63	; 0x3f
    c208:	3afffff7 	bcc	c1ec <ptmalloc_lock_all+0x20>
    c20c:	e1a03004 	mov	r3, r4
    c210:	e1530004 	cmp	r3, r4
    c214:	1a000027 	bne	c2b8 <ptmalloc_lock_all+0xec>
    c218:	e59f6104 	ldr	r6, [pc, #260]	; c324 <ptmalloc_lock_all+0x158>
    c21c:	e1a05006 	mov	r5, r6
    c220:	e3a01001 	mov	r1, #1
    c224:	e1a02005 	mov	r2, r5
    c228:	e3a04000 	mov	r4, #0
    c22c:	e5923000 	ldr	r3, [r2]
    c230:	e1530004 	cmp	r3, r4
    c234:	1a000005 	bne	c250 <ptmalloc_lock_all+0x84>
    c238:	e1a00004 	mov	r0, r4
    c23c:	e3e03a0f 	mvn	r3, #61440	; 0xf000
    c240:	e1a0e00f 	mov	lr, pc
    c244:	e243f03f 	sub	pc, r3, #63	; 0x3f
    c248:	3afffff7 	bcc	c22c <ptmalloc_lock_all+0x60>
    c24c:	e1a03004 	mov	r3, r4
    c250:	e1530004 	cmp	r3, r4
    c254:	1a00002d 	bne	c310 <ptmalloc_lock_all+0x144>
    c258:	e5955440 	ldr	r5, [r5, #1088]	; 0x440
    c25c:	e1550006 	cmp	r5, r6
    c260:	1affffee 	bne	c220 <ptmalloc_lock_all+0x54>
    c264:	e59f20bc 	ldr	r2, [pc, #188]	; c328 <ptmalloc_lock_all+0x15c>
    c268:	e59f10bc 	ldr	r1, [pc, #188]	; c32c <ptmalloc_lock_all+0x160>
    c26c:	e5920000 	ldr	r0, [r2]
    c270:	e591c000 	ldr	ip, [r1]
    c274:	e5860454 	str	r0, [r6, #1108]	; 0x454
    c278:	e59f00b0 	ldr	r0, [pc, #176]	; c330 <ptmalloc_lock_all+0x164>
    c27c:	e59f30b0 	ldr	r3, [pc, #176]	; c334 <ptmalloc_lock_all+0x168>
    c280:	e5810000 	str	r0, [r1]
    c284:	e59f10ac 	ldr	r1, [pc, #172]	; c338 <ptmalloc_lock_all+0x16c>
    c288:	e586c450 	str	ip, [r6, #1104]	; 0x450
    c28c:	e5821000 	str	r1, [r2]
    c290:	e79f3003 	ldr	r3, [pc, r3]
    c294:	ebfff215 	bl	8af0 <__aeabi_read_tp>
    c298:	e7902003 	ldr	r2, [r0, r3]
    c29c:	e586244c 	str	r2, [r6, #1100]	; 0x44c
    c2a0:	e3e02000 	mvn	r2, #0
    c2a4:	e7802003 	str	r2, [r0, r3]
    c2a8:	e596345c 	ldr	r3, [r6, #1116]	; 0x45c
    c2ac:	e2833001 	add	r3, r3, #1
    c2b0:	e586345c 	str	r3, [r6, #1116]	; 0x45c
    c2b4:	e8bd8070 	pop	{r4, r5, r6, pc}
    c2b8:	e59f307c 	ldr	r3, [pc, #124]	; c33c <ptmalloc_lock_all+0x170>
    c2bc:	ebfff20b 	bl	8af0 <__aeabi_read_tp>
    c2c0:	e79f3003 	ldr	r3, [pc, r3]
    c2c4:	e7903003 	ldr	r3, [r0, r3]
    c2c8:	e3730001 	cmn	r3, #1
    c2cc:	02426e45 	subeq	r6, r2, #1104	; 0x450
    c2d0:	02466008 	subeq	r6, r6, #8
    c2d4:	0afffff3 	beq	c2a8 <ptmalloc_lock_all+0xdc>
    c2d8:	e5923000 	ldr	r3, [r2]
    c2dc:	e1530004 	cmp	r3, r4
    c2e0:	1a000005 	bne	c2fc <ptmalloc_lock_all+0x130>
    c2e4:	e1a00004 	mov	r0, r4
    c2e8:	e3e03a0f 	mvn	r3, #61440	; 0xf000
    c2ec:	e1a0e00f 	mov	lr, pc
    c2f0:	e243f03f 	sub	pc, r3, #63	; 0x3f
    c2f4:	3afffff7 	bcc	c2d8 <ptmalloc_lock_all+0x10c>
    c2f8:	e1a03004 	mov	r3, r4
    c2fc:	e3530000 	cmp	r3, #0
    c300:	0affffc4 	beq	c218 <ptmalloc_lock_all+0x4c>
    c304:	e1a00002 	mov	r0, r2
    c308:	eb002348 	bl	15030 <__lll_lock_wait_private>
    c30c:	eaffffc1 	b	c218 <ptmalloc_lock_all+0x4c>
    c310:	e1a00005 	mov	r0, r5
    c314:	eb002345 	bl	15030 <__lll_lock_wait_private>
    c318:	eaffffce 	b	c258 <ptmalloc_lock_all+0x8c>
    c31c:	00083dd4 	.word	0x00083dd4
    c320:	00084db8 	.word	0x00084db8
    c324:	00084960 	.word	0x00084960
    c328:	00084e28 	.word	0x00084e28
    c32c:	00083de0 	.word	0x00083de0
    c330:	00010fc4 	.word	0x00010fc4
    c334:	000776a0 	.word	0x000776a0
    c338:	0000e6c4 	.word	0x0000e6c4
    c33c:	00077670 	.word	0x00077670

0000c340 <ptmalloc_unlock_all>:
    c340:	e59f3130 	ldr	r3, [pc, #304]	; c478 <ptmalloc_unlock_all+0x138>
    c344:	e92d41f0 	push	{r4, r5, r6, r7, r8, lr}
    c348:	e5933000 	ldr	r3, [r3]
    c34c:	e3530000 	cmp	r3, #0
    c350:	d8bd81f0 	pople	{r4, r5, r6, r7, r8, pc}
    c354:	e59f8120 	ldr	r8, [pc, #288]	; c47c <ptmalloc_unlock_all+0x13c>
    c358:	e598345c 	ldr	r3, [r8, #1116]	; 0x45c
    c35c:	e2433001 	sub	r3, r3, #1
    c360:	e3530000 	cmp	r3, #0
    c364:	e588345c 	str	r3, [r8, #1116]	; 0x45c
    c368:	18bd81f0 	popne	{r4, r5, r6, r7, r8, pc}
    c36c:	e59f310c 	ldr	r3, [pc, #268]	; c480 <ptmalloc_unlock_all+0x140>
    c370:	e598444c 	ldr	r4, [r8, #1100]	; 0x44c
    c374:	e79f3003 	ldr	r3, [pc, r3]
    c378:	ebfff1dc 	bl	8af0 <__aeabi_read_tp>
    c37c:	e5981450 	ldr	r1, [r8, #1104]	; 0x450
    c380:	e7804003 	str	r4, [r0, r3]
    c384:	e59f30f8 	ldr	r3, [pc, #248]	; c484 <ptmalloc_unlock_all+0x144>
    c388:	e5982454 	ldr	r2, [r8, #1108]	; 0x454
    c38c:	e5831000 	str	r1, [r3]
    c390:	e59f30f0 	ldr	r3, [pc, #240]	; c488 <ptmalloc_unlock_all+0x148>
    c394:	e1a06008 	mov	r6, r8
    c398:	e5832000 	str	r2, [r3]
    c39c:	e5965000 	ldr	r5, [r6]
    c3a0:	e3a01000 	mov	r1, #0
    c3a4:	e1a02006 	mov	r2, r6
    c3a8:	e1a04005 	mov	r4, r5
    c3ac:	e5923000 	ldr	r3, [r2]
    c3b0:	e1530004 	cmp	r3, r4
    c3b4:	1a000005 	bne	c3d0 <ptmalloc_unlock_all+0x90>
    c3b8:	e1a00004 	mov	r0, r4
    c3bc:	e3e03a0f 	mvn	r3, #61440	; 0xf000
    c3c0:	e1a0e00f 	mov	lr, pc
    c3c4:	e243f03f 	sub	pc, r3, #63	; 0x3f
    c3c8:	3afffff7 	bcc	c3ac <ptmalloc_unlock_all+0x6c>
    c3cc:	e1a03004 	mov	r3, r4
    c3d0:	e1550003 	cmp	r5, r3
    c3d4:	1afffff0 	bne	c39c <ptmalloc_unlock_all+0x5c>
    c3d8:	e3550001 	cmp	r5, #1
    c3dc:	ca00001c 	bgt	c454 <ptmalloc_unlock_all+0x114>
    c3e0:	e5966440 	ldr	r6, [r6, #1088]	; 0x440
    c3e4:	e1560008 	cmp	r6, r8
    c3e8:	1affffeb 	bne	c39c <ptmalloc_unlock_all+0x5c>
    c3ec:	e5985458 	ldr	r5, [r8, #1112]	; 0x458
    c3f0:	e3a01000 	mov	r1, #0
    c3f4:	e59f2090 	ldr	r2, [pc, #144]	; c48c <ptmalloc_unlock_all+0x14c>
    c3f8:	e1a04005 	mov	r4, r5
    c3fc:	e5923000 	ldr	r3, [r2]
    c400:	e1530004 	cmp	r3, r4
    c404:	1a000005 	bne	c420 <ptmalloc_unlock_all+0xe0>
    c408:	e1a00004 	mov	r0, r4
    c40c:	e3e03a0f 	mvn	r3, #61440	; 0xf000
    c410:	e1a0e00f 	mov	lr, pc
    c414:	e243f03f 	sub	pc, r3, #63	; 0x3f
    c418:	3afffff7 	bcc	c3fc <ptmalloc_unlock_all+0xbc>
    c41c:	e1a03004 	mov	r3, r4
    c420:	e1550003 	cmp	r5, r3
    c424:	1afffff0 	bne	c3ec <ptmalloc_unlock_all+0xac>
    c428:	e3550001 	cmp	r5, #1
    c42c:	d8bd81f0 	pople	{r4, r5, r6, r7, r8, pc}
    c430:	ebfff1ae 	bl	8af0 <__aeabi_read_tp>
    c434:	e51014b8 	ldr	r1, [r0, #-1208]	; 0x4b8
    c438:	e3a03000 	mov	r3, #0
    c43c:	e1a00002 	mov	r0, r2
    c440:	e3811001 	orr	r1, r1, #1
    c444:	e3a02001 	mov	r2, #1
    c448:	e3a070f0 	mov	r7, #240	; 0xf0
    c44c:	ef000000 	svc	0x00000000
    c450:	e8bd81f0 	pop	{r4, r5, r6, r7, r8, pc}
    c454:	ebfff1a5 	bl	8af0 <__aeabi_read_tp>
    c458:	e51014b8 	ldr	r1, [r0, #-1208]	; 0x4b8
    c45c:	e3a02001 	mov	r2, #1
    c460:	e1a00006 	mov	r0, r6
    c464:	e1811002 	orr	r1, r1, r2
    c468:	e3a03000 	mov	r3, #0
    c46c:	e3a070f0 	mov	r7, #240	; 0xf0
    c470:	ef000000 	svc	0x00000000
    c474:	eaffffd9 	b	c3e0 <ptmalloc_unlock_all+0xa0>
    c478:	00083dd4 	.word	0x00083dd4
    c47c:	00084960 	.word	0x00084960
    c480:	000775bc 	.word	0x000775bc
    c484:	00083de0 	.word	0x00083de0
    c488:	00084e28 	.word	0x00084e28
    c48c:	00084db8 	.word	0x00084db8

0000c490 <malloc_printerr>:
    c490:	e92d4070 	push	{r4, r5, r6, lr}
    c494:	e2003005 	and	r3, r0, #5
    c498:	e3530005 	cmp	r3, #5
    c49c:	e24dd018 	sub	sp, sp, #24
    c4a0:	e1a04000 	mov	r4, r0
    c4a4:	e1a06001 	mov	r6, r1
    c4a8:	0a000021 	beq	c534 <malloc_printerr+0xa4>
    c4ac:	e3100001 	tst	r0, #1
    c4b0:	1a000003 	bne	c4c4 <malloc_printerr+0x34>
    c4b4:	e3100002 	tst	r0, #2
    c4b8:	1a000022 	bne	c548 <malloc_printerr+0xb8>
    c4bc:	e28dd018 	add	sp, sp, #24
    c4c0:	e8bd8070 	pop	{r4, r5, r6, pc}
    c4c4:	e3a0c000 	mov	ip, #0
    c4c8:	e28d500c 	add	r5, sp, #12
    c4cc:	e1a00002 	mov	r0, r2
    c4d0:	e1a0300c 	mov	r3, ip
    c4d4:	e2851008 	add	r1, r5, #8
    c4d8:	e3a02010 	mov	r2, #16
    c4dc:	e5cdc014 	strb	ip, [sp, #20]
    c4e0:	eb004145 	bl	1c9fc <_itoa_word>
    c4e4:	e1500005 	cmp	r0, r5
    c4e8:	e1a0c000 	mov	ip, r0
    c4ec:	9a000004 	bls	c504 <malloc_printerr+0x74>
    c4f0:	e3a03030 	mov	r3, #48	; 0x30
    c4f4:	e56c3001 	strb	r3, [ip, #-1]!
    c4f8:	e155000c 	cmp	r5, ip
    c4fc:	3afffffc 	bcc	c4f4 <malloc_printerr+0x64>
    c500:	e1a0c005 	mov	ip, r5
    c504:	e59f3040 	ldr	r3, [pc, #64]	; c54c <malloc_printerr+0xbc>
    c508:	e2040002 	and	r0, r4, #2
    c50c:	e5933000 	ldr	r3, [r3]
    c510:	e59f1038 	ldr	r1, [pc, #56]	; c550 <malloc_printerr+0xc0>
    c514:	e5932000 	ldr	r2, [r3]
    c518:	e59f3034 	ldr	r3, [pc, #52]	; c554 <malloc_printerr+0xc4>
    c51c:	e3520000 	cmp	r2, #0
    c520:	01a02003 	moveq	r2, r3
    c524:	e1a03006 	mov	r3, r6
    c528:	e58dc000 	str	ip, [sp]
    c52c:	ebfff57d 	bl	9b28 <__libc_message>
    c530:	eaffffe1 	b	c4bc <malloc_printerr+0x2c>
    c534:	e2000002 	and	r0, r0, #2
    c538:	e59f1018 	ldr	r1, [pc, #24]	; c558 <malloc_printerr+0xc8>
    c53c:	e1a02006 	mov	r2, r6
    c540:	ebfff578 	bl	9b28 <__libc_message>
    c544:	eaffffdc 	b	c4bc <malloc_printerr+0x2c>
    c548:	ebfff17b 	bl	8b3c <abort>
    c54c:	000858a0 	.word	0x000858a0
    c550:	00065ad0 	.word	0x00065ad0
    c554:	00065ac4 	.word	0x00065ac4
    c558:	0007a25c 	.word	0x0007a25c

0000c55c <__malloc_assert>:
    c55c:	e92d41f0 	push	{r4, r5, r6, r7, r8, lr}
    c560:	e59fc068 	ldr	ip, [pc, #104]	; c5d0 <__malloc_assert+0x74>
    c564:	e59fe068 	ldr	lr, [pc, #104]	; c5d4 <__malloc_assert+0x78>
    c568:	e59cc000 	ldr	ip, [ip]
    c56c:	e59f4064 	ldr	r4, [pc, #100]	; c5d8 <__malloc_assert+0x7c>
    c570:	e5dc6000 	ldrb	r6, [ip]
    c574:	e1a05000 	mov	r5, r0
    c578:	e3560000 	cmp	r6, #0
    c57c:	11a0000e 	movne	r0, lr
    c580:	01a00004 	moveq	r0, r4
    c584:	e2538000 	subs	r8, r3, #0
    c588:	01a08004 	moveq	r8, r4
    c58c:	e24dd018 	sub	sp, sp, #24
    c590:	01a0e008 	moveq	lr, r8
    c594:	e1a03000 	mov	r3, r0
    c598:	e1a07001 	mov	r7, r1
    c59c:	e1a06002 	mov	r6, r2
    c5a0:	e59f1034 	ldr	r1, [pc, #52]	; c5dc <__malloc_assert+0x80>
    c5a4:	e1a0200c 	mov	r2, ip
    c5a8:	e3a00000 	mov	r0, #0
    c5ac:	e58de00c 	str	lr, [sp, #12]
    c5b0:	e58d7000 	str	r7, [sp]
    c5b4:	e98d0140 	stmib	sp, {r6, r8}
    c5b8:	e58d5010 	str	r5, [sp, #16]
    c5bc:	eb0066b5 	bl	26098 <__fxprintf>
    c5c0:	e59f3018 	ldr	r3, [pc, #24]	; c5e0 <__malloc_assert+0x84>
    c5c4:	e5930000 	ldr	r0, [r3]
    c5c8:	eb0067bb 	bl	264bc <_IO_fflush>
    c5cc:	ebfff15a 	bl	8b3c <abort>
    c5d0:	00083dfc 	.word	0x00083dfc
    c5d4:	0006a990 	.word	0x0006a990
    c5d8:	0007a4bc 	.word	0x0007a4bc
    c5dc:	00065afc 	.word	0x00065afc
    c5e0:	00083dd0 	.word	0x00083dd0

0000c5e4 <malloc_consolidate>:
    c5e4:	e92d4ff0 	push	{r4, r5, r6, r7, r8, r9, sl, fp, lr}
    c5e8:	e59f3368 	ldr	r3, [pc, #872]	; c958 <malloc_consolidate+0x374>
    c5ec:	e1a09000 	mov	r9, r0
    c5f0:	e5932490 	ldr	r2, [r3, #1168]	; 0x490
    c5f4:	e24dd014 	sub	sp, sp, #20
    c5f8:	e3520000 	cmp	r2, #0
    c5fc:	03e01007 	mvneq	r1, #7
    c600:	02800038 	addeq	r0, r0, #56	; 0x38
    c604:	0a000054 	beq	c75c <malloc_consolidate+0x178>
    c608:	e5993004 	ldr	r3, [r9, #4]
    c60c:	e289202c 	add	r2, r9, #44	; 0x2c
    c610:	e3833001 	orr	r3, r3, #1
    c614:	e5893004 	str	r3, [r9, #4]
    c618:	e59fc33c 	ldr	ip, [pc, #828]	; c95c <malloc_consolidate+0x378>
    c61c:	e2893004 	add	r3, r9, #4
    c620:	e2898030 	add	r8, r9, #48	; 0x30
    c624:	e58d200c 	str	r2, [sp, #12]
    c628:	e58d3008 	str	r3, [sp, #8]
    c62c:	e1a0b009 	mov	fp, r9
    c630:	e59d2008 	ldr	r2, [sp, #8]
    c634:	e5b24004 	ldr	r4, [r2, #4]!
    c638:	e3540000 	cmp	r4, #0
    c63c:	13a03000 	movne	r3, #0
    c640:	e58d2008 	str	r2, [sp, #8]
    c644:	15823000 	strne	r3, [r2]
    c648:	1a00001e 	bne	c6c8 <malloc_consolidate+0xe4>
    c64c:	ea000053 	b	c7a0 <malloc_consolidate+0x1bc>
    c650:	e596a008 	ldr	sl, [r6, #8]
    c654:	e0855009 	add	r5, r5, r9
    c658:	e59a200c 	ldr	r2, [sl, #12]
    c65c:	e596300c 	ldr	r3, [r6, #12]
    c660:	e1560002 	cmp	r6, r2
    c664:	1a00005f 	bne	c7e8 <malloc_consolidate+0x204>
    c668:	e5932008 	ldr	r2, [r3, #8]
    c66c:	e1560002 	cmp	r6, r2
    c670:	1a00005c 	bne	c7e8 <malloc_consolidate+0x204>
    c674:	e5962004 	ldr	r2, [r6, #4]
    c678:	e58a300c 	str	r3, [sl, #12]
    c67c:	e152000c 	cmp	r2, ip
    c680:	e583a008 	str	sl, [r3, #8]
    c684:	9a000002 	bls	c694 <malloc_consolidate+0xb0>
    c688:	e5963010 	ldr	r3, [r6, #16]
    c68c:	e3530000 	cmp	r3, #0
    c690:	1a00005c 	bne	c808 <malloc_consolidate+0x224>
    c694:	e155000c 	cmp	r5, ip
    c698:	e5983008 	ldr	r3, [r8, #8]
    c69c:	83a02000 	movhi	r2, #0
    c6a0:	85842010 	strhi	r2, [r4, #16]
    c6a4:	85842014 	strhi	r2, [r4, #20]
    c6a8:	e3852001 	orr	r2, r5, #1
    c6ac:	e5884008 	str	r4, [r8, #8]
    c6b0:	e583400c 	str	r4, [r3, #12]
    c6b4:	e984010c 	stmib	r4, {r2, r3, r8}
    c6b8:	e7845005 	str	r5, [r4, r5]
    c6bc:	e3570000 	cmp	r7, #0
    c6c0:	0a000036 	beq	c7a0 <malloc_consolidate+0x1bc>
    c6c4:	e1a04007 	mov	r4, r7
    c6c8:	e9940088 	ldmib	r4, {r3, r7}
    c6cc:	e3c35005 	bic	r5, r3, #5
    c6d0:	e0846005 	add	r6, r4, r5
    c6d4:	e5969004 	ldr	r9, [r6, #4]
    c6d8:	e3130001 	tst	r3, #1
    c6dc:	e3c99007 	bic	r9, r9, #7
    c6e0:	1a000012 	bne	c730 <malloc_consolidate+0x14c>
    c6e4:	e5943000 	ldr	r3, [r4]
    c6e8:	e0634004 	rsb	r4, r3, r4
    c6ec:	e594a008 	ldr	sl, [r4, #8]
    c6f0:	e0855003 	add	r5, r5, r3
    c6f4:	e59a200c 	ldr	r2, [sl, #12]
    c6f8:	e594300c 	ldr	r3, [r4, #12]
    c6fc:	e1540002 	cmp	r4, r2
    c700:	1a000030 	bne	c7c8 <malloc_consolidate+0x1e4>
    c704:	e5932008 	ldr	r2, [r3, #8]
    c708:	e1540002 	cmp	r4, r2
    c70c:	1a00002d 	bne	c7c8 <malloc_consolidate+0x1e4>
    c710:	e5942004 	ldr	r2, [r4, #4]
    c714:	e58a300c 	str	r3, [sl, #12]
    c718:	e152000c 	cmp	r2, ip
    c71c:	e583a008 	str	sl, [r3, #8]
    c720:	9a000002 	bls	c730 <malloc_consolidate+0x14c>
    c724:	e5943010 	ldr	r3, [r4, #16]
    c728:	e3530000 	cmp	r3, #0
    c72c:	1a000053 	bne	c880 <malloc_consolidate+0x29c>
    c730:	e59b3030 	ldr	r3, [fp, #48]	; 0x30
    c734:	e1530006 	cmp	r3, r6
    c738:	0a00001d 	beq	c7b4 <malloc_consolidate+0x1d0>
    c73c:	e0863009 	add	r3, r6, r9
    c740:	e5933004 	ldr	r3, [r3, #4]
    c744:	e3130001 	tst	r3, #1
    c748:	0affffc0 	beq	c650 <malloc_consolidate+0x6c>
    c74c:	e5963004 	ldr	r3, [r6, #4]
    c750:	e3c33001 	bic	r3, r3, #1
    c754:	e5863004 	str	r3, [r6, #4]
    c758:	eaffffcd 	b	c694 <malloc_consolidate+0xb0>
    c75c:	e0802001 	add	r2, r0, r1
    c760:	e2811008 	add	r1, r1, #8
    c764:	e3510e3f 	cmp	r1, #1008	; 0x3f0
    c768:	e582200c 	str	r2, [r2, #12]
    c76c:	e5822008 	str	r2, [r2, #8]
    c770:	1afffff9 	bne	c75c <malloc_consolidate+0x178>
    c774:	e1590003 	cmp	r9, r3
    c778:	e5993004 	ldr	r3, [r9, #4]
    c77c:	03a02040 	moveq	r2, #64	; 0x40
    c780:	13833002 	orrne	r3, r3, #2
    c784:	e3833001 	orr	r3, r3, #1
    c788:	e2400008 	sub	r0, r0, #8
    c78c:	05892490 	streq	r2, [r9, #1168]	; 0x490
    c790:	e5893004 	str	r3, [r9, #4]
    c794:	e5890030 	str	r0, [r9, #48]	; 0x30
    c798:	e28dd014 	add	sp, sp, #20
    c79c:	e8bd8ff0 	pop	{r4, r5, r6, r7, r8, r9, sl, fp, pc}
    c7a0:	e59d300c 	ldr	r3, [sp, #12]
    c7a4:	e59d2008 	ldr	r2, [sp, #8]
    c7a8:	e1530002 	cmp	r3, r2
    c7ac:	1affff9f 	bne	c630 <malloc_consolidate+0x4c>
    c7b0:	eafffff8 	b	c798 <malloc_consolidate+0x1b4>
    c7b4:	e0855009 	add	r5, r5, r9
    c7b8:	e3855001 	orr	r5, r5, #1
    c7bc:	e5845004 	str	r5, [r4, #4]
    c7c0:	e58b4030 	str	r4, [fp, #48]	; 0x30
    c7c4:	eaffffbc 	b	c6bc <malloc_consolidate+0xd8>
    c7c8:	e59f3190 	ldr	r3, [pc, #400]	; c960 <malloc_consolidate+0x37c>
    c7cc:	e59f1190 	ldr	r1, [pc, #400]	; c964 <malloc_consolidate+0x380>
    c7d0:	e5930004 	ldr	r0, [r3, #4]
    c7d4:	e1a02004 	mov	r2, r4
    c7d8:	e58dc004 	str	ip, [sp, #4]
    c7dc:	ebffff2b 	bl	c490 <malloc_printerr>
    c7e0:	e59dc004 	ldr	ip, [sp, #4]
    c7e4:	eaffffd1 	b	c730 <malloc_consolidate+0x14c>
    c7e8:	e59f2170 	ldr	r2, [pc, #368]	; c960 <malloc_consolidate+0x37c>
    c7ec:	e59f1170 	ldr	r1, [pc, #368]	; c964 <malloc_consolidate+0x380>
    c7f0:	e5920004 	ldr	r0, [r2, #4]
    c7f4:	e1a02006 	mov	r2, r6
    c7f8:	e58dc004 	str	ip, [sp, #4]
    c7fc:	ebffff23 	bl	c490 <malloc_printerr>
    c800:	e59dc004 	ldr	ip, [sp, #4]
    c804:	eaffffa2 	b	c694 <malloc_consolidate+0xb0>
    c808:	e5933014 	ldr	r3, [r3, #20]
    c80c:	e1530006 	cmp	r3, r6
    c810:	0a000006 	beq	c830 <malloc_consolidate+0x24c>
    c814:	e59f014c 	ldr	r0, [pc, #332]	; c968 <malloc_consolidate+0x384>
    c818:	e59f114c 	ldr	r1, [pc, #332]	; c96c <malloc_consolidate+0x388>
    c81c:	e59f214c 	ldr	r2, [pc, #332]	; c970 <malloc_consolidate+0x38c>
    c820:	e59f314c 	ldr	r3, [pc, #332]	; c974 <malloc_consolidate+0x390>
    c824:	e58dc004 	str	ip, [sp, #4]
    c828:	ebffff4b 	bl	c55c <__malloc_assert>
    c82c:	e59dc004 	ldr	ip, [sp, #4]
    c830:	e5963014 	ldr	r3, [r6, #20]
    c834:	e5933010 	ldr	r3, [r3, #16]
    c838:	e1530006 	cmp	r3, r6
    c83c:	0a000006 	beq	c85c <malloc_consolidate+0x278>
    c840:	e59f0130 	ldr	r0, [pc, #304]	; c978 <malloc_consolidate+0x394>
    c844:	e59f1120 	ldr	r1, [pc, #288]	; c96c <malloc_consolidate+0x388>
    c848:	e59f2120 	ldr	r2, [pc, #288]	; c970 <malloc_consolidate+0x38c>
    c84c:	e59f3120 	ldr	r3, [pc, #288]	; c974 <malloc_consolidate+0x390>
    c850:	e58dc004 	str	ip, [sp, #4]
    c854:	ebffff40 	bl	c55c <__malloc_assert>
    c858:	e59dc004 	ldr	ip, [sp, #4]
    c85c:	e59a3010 	ldr	r3, [sl, #16]
    c860:	e3530000 	cmp	r3, #0
    c864:	0a000023 	beq	c8f8 <malloc_consolidate+0x314>
    c868:	e5963010 	ldr	r3, [r6, #16]
    c86c:	e5962014 	ldr	r2, [r6, #20]
    c870:	e5832014 	str	r2, [r3, #20]
    c874:	e5962014 	ldr	r2, [r6, #20]
    c878:	e5823010 	str	r3, [r2, #16]
    c87c:	eaffff84 	b	c694 <malloc_consolidate+0xb0>
    c880:	e5933014 	ldr	r3, [r3, #20]
    c884:	e1530004 	cmp	r3, r4
    c888:	0a000006 	beq	c8a8 <malloc_consolidate+0x2c4>
    c88c:	e59f00e8 	ldr	r0, [pc, #232]	; c97c <malloc_consolidate+0x398>
    c890:	e59f10d4 	ldr	r1, [pc, #212]	; c96c <malloc_consolidate+0x388>
    c894:	e59f20e4 	ldr	r2, [pc, #228]	; c980 <malloc_consolidate+0x39c>
    c898:	e59f30d4 	ldr	r3, [pc, #212]	; c974 <malloc_consolidate+0x390>
    c89c:	e58dc004 	str	ip, [sp, #4]
    c8a0:	ebffff2d 	bl	c55c <__malloc_assert>
    c8a4:	e59dc004 	ldr	ip, [sp, #4]
    c8a8:	e5943014 	ldr	r3, [r4, #20]
    c8ac:	e5933010 	ldr	r3, [r3, #16]
    c8b0:	e1530004 	cmp	r3, r4
    c8b4:	0a000006 	beq	c8d4 <malloc_consolidate+0x2f0>
    c8b8:	e59f00c4 	ldr	r0, [pc, #196]	; c984 <malloc_consolidate+0x3a0>
    c8bc:	e59f10a8 	ldr	r1, [pc, #168]	; c96c <malloc_consolidate+0x388>
    c8c0:	e59f20b8 	ldr	r2, [pc, #184]	; c980 <malloc_consolidate+0x39c>
    c8c4:	e59f30a8 	ldr	r3, [pc, #168]	; c974 <malloc_consolidate+0x390>
    c8c8:	e58dc004 	str	ip, [sp, #4]
    c8cc:	ebffff22 	bl	c55c <__malloc_assert>
    c8d0:	e59dc004 	ldr	ip, [sp, #4]
    c8d4:	e59a3010 	ldr	r3, [sl, #16]
    c8d8:	e3530000 	cmp	r3, #0
    c8dc:	0a000011 	beq	c928 <malloc_consolidate+0x344>
    c8e0:	e5943010 	ldr	r3, [r4, #16]
    c8e4:	e5942014 	ldr	r2, [r4, #20]
    c8e8:	e5832014 	str	r2, [r3, #20]
    c8ec:	e5942014 	ldr	r2, [r4, #20]
    c8f0:	e5823010 	str	r3, [r2, #16]
    c8f4:	eaffff8d 	b	c730 <malloc_consolidate+0x14c>
    c8f8:	e5963010 	ldr	r3, [r6, #16]
    c8fc:	e1530006 	cmp	r3, r6
    c900:	158a3010 	strne	r3, [sl, #16]
    c904:	15963010 	ldrne	r3, [r6, #16]
    c908:	15962014 	ldrne	r2, [r6, #20]
    c90c:	058aa014 	streq	sl, [sl, #20]
    c910:	158a2014 	strne	r2, [sl, #20]
    c914:	1583a014 	strne	sl, [r3, #20]
    c918:	15963014 	ldrne	r3, [r6, #20]
    c91c:	058aa010 	streq	sl, [sl, #16]
    c920:	1583a010 	strne	sl, [r3, #16]
    c924:	eaffff5a 	b	c694 <malloc_consolidate+0xb0>
    c928:	e5943010 	ldr	r3, [r4, #16]
    c92c:	e1530004 	cmp	r3, r4
    c930:	158a3010 	strne	r3, [sl, #16]
    c934:	15943010 	ldrne	r3, [r4, #16]
    c938:	15942014 	ldrne	r2, [r4, #20]
    c93c:	058aa014 	streq	sl, [sl, #20]
    c940:	158a2014 	strne	r2, [sl, #20]
    c944:	1583a014 	strne	sl, [r3, #20]
    c948:	15943014 	ldrne	r3, [r4, #20]
    c94c:	058aa010 	streq	sl, [sl, #16]
    c950:	1583a010 	strne	sl, [r3, #16]
    c954:	eaffff75 	b	c730 <malloc_consolidate+0x14c>
    c958:	00084960 	.word	0x00084960
    c95c:	000001ff 	.word	0x000001ff
    c960:	00083dd4 	.word	0x00083dd4
    c964:	00065b24 	.word	0x00065b24
    c968:	00065b98 	.word	0x00065b98
    c96c:	00065b68 	.word	0x00065b68
    c970:	00001431 	.word	0x00001431
    c974:	00066ee4 	.word	0x00066ee4
    c978:	00065bcc 	.word	0x00065bcc
    c97c:	00065b44 	.word	0x00065b44
    c980:	00001429 	.word	0x00001429
    c984:	00065b74 	.word	0x00065b74

0000c988 <mALLINFo>:
    c988:	e5913030 	ldr	r3, [r1, #48]	; 0x30
    c98c:	e92d47f0 	push	{r4, r5, r6, r7, r8, r9, sl, lr}
    c990:	e3530000 	cmp	r3, #0
    c994:	e1a05001 	mov	r5, r1
    c998:	e1a04000 	mov	r4, r0
    c99c:	0a000033 	beq	ca70 <mALLINFo+0xe8>
    c9a0:	e5939004 	ldr	r9, [r3, #4]
    c9a4:	e3a07000 	mov	r7, #0
    c9a8:	e3c99007 	bic	r9, r9, #7
    c9ac:	e2850004 	add	r0, r5, #4
    c9b0:	e1a08007 	mov	r8, r7
    c9b4:	e1a01007 	mov	r1, r7
    c9b8:	e5b03004 	ldr	r3, [r0, #4]!
    c9bc:	e3530000 	cmp	r3, #0
    c9c0:	0a000005 	beq	c9dc <mALLINFo+0x54>
    c9c4:	e993000c 	ldmib	r3, {r2, r3}
    c9c8:	e3c22007 	bic	r2, r2, #7
    c9cc:	e3530000 	cmp	r3, #0
    c9d0:	e2877001 	add	r7, r7, #1
    c9d4:	e0888002 	add	r8, r8, r2
    c9d8:	1afffff9 	bne	c9c4 <mALLINFo+0x3c>
    c9dc:	e2811001 	add	r1, r1, #1
    c9e0:	e351000a 	cmp	r1, #10
    c9e4:	1afffff3 	bne	c9b8 <mALLINFo+0x30>
    c9e8:	e0882009 	add	r2, r8, r9
    c9ec:	e3e06007 	mvn	r6, #7
    c9f0:	e3a01001 	mov	r1, #1
    c9f4:	e285a038 	add	sl, r5, #56	; 0x38
    c9f8:	e08ac006 	add	ip, sl, r6
    c9fc:	e59c300c 	ldr	r3, [ip, #12]
    ca00:	e15c0003 	cmp	ip, r3
    ca04:	0a000006 	beq	ca24 <mALLINFo+0x9c>
    ca08:	e5930004 	ldr	r0, [r3, #4]
    ca0c:	e593300c 	ldr	r3, [r3, #12]
    ca10:	e3c00007 	bic	r0, r0, #7
    ca14:	e15c0003 	cmp	ip, r3
    ca18:	e2811001 	add	r1, r1, #1
    ca1c:	e0822000 	add	r2, r2, r0
    ca20:	1afffff8 	bne	ca08 <mALLINFo+0x80>
    ca24:	e2866008 	add	r6, r6, #8
    ca28:	e3560e3f 	cmp	r6, #1008	; 0x3f0
    ca2c:	1afffff1 	bne	c9f8 <mALLINFo+0x70>
    ca30:	e59f3048 	ldr	r3, [pc, #72]	; ca80 <mALLINFo+0xf8>
    ca34:	e5950444 	ldr	r0, [r5, #1092]	; 0x444
    ca38:	e593646c 	ldr	r6, [r3, #1132]	; 0x46c
    ca3c:	e5935480 	ldr	r5, [r3, #1152]	; 0x480
    ca40:	e593c488 	ldr	ip, [r3, #1160]	; 0x488
    ca44:	e0623000 	rsb	r3, r2, r0
    ca48:	e8840083 	stm	r4, {r0, r1, r7}
    ca4c:	e584600c 	str	r6, [r4, #12]
    ca50:	e5845010 	str	r5, [r4, #16]
    ca54:	e584c014 	str	ip, [r4, #20]
    ca58:	e5848018 	str	r8, [r4, #24]
    ca5c:	e584301c 	str	r3, [r4, #28]
    ca60:	e5842020 	str	r2, [r4, #32]
    ca64:	e5849024 	str	r9, [r4, #36]	; 0x24
    ca68:	e1a00004 	mov	r0, r4
    ca6c:	e8bd87f0 	pop	{r4, r5, r6, r7, r8, r9, sl, pc}
    ca70:	e1a00001 	mov	r0, r1
    ca74:	ebfffeda 	bl	c5e4 <malloc_consolidate>
    ca78:	e5953030 	ldr	r3, [r5, #48]	; 0x30
    ca7c:	eaffffc7 	b	c9a0 <mALLINFo+0x18>
    ca80:	00084960 	.word	0x00084960

0000ca84 <mALLOPt>:
    ca84:	e92d41f0 	push	{r4, r5, r6, r7, r8, lr}
    ca88:	e59f5198 	ldr	r5, [pc, #408]	; cc28 <mALLOPt+0x1a4>
    ca8c:	e1a08000 	mov	r8, r0
    ca90:	e5953000 	ldr	r3, [r5]
    ca94:	e1a07001 	mov	r7, r1
    ca98:	e3530000 	cmp	r3, #0
    ca9c:	ba000053 	blt	cbf0 <mALLOPt+0x16c>
    caa0:	e59f6184 	ldr	r6, [pc, #388]	; cc2c <mALLOPt+0x1a8>
    caa4:	e3a01001 	mov	r1, #1
    caa8:	e1a02006 	mov	r2, r6
    caac:	e3a04000 	mov	r4, #0
    cab0:	e5923000 	ldr	r3, [r2]
    cab4:	e1530004 	cmp	r3, r4
    cab8:	1a000005 	bne	cad4 <mALLOPt+0x50>
    cabc:	e1a00004 	mov	r0, r4
    cac0:	e3e03a0f 	mvn	r3, #61440	; 0xf000
    cac4:	e1a0e00f 	mov	lr, pc
    cac8:	e243f03f 	sub	pc, r3, #63	; 0x3f
    cacc:	3afffff7 	bcc	cab0 <mALLOPt+0x2c>
    cad0:	e1a03004 	mov	r3, r4
    cad4:	e1530004 	cmp	r3, r4
    cad8:	1a00004f 	bne	cc1c <mALLOPt+0x198>
    cadc:	e59f0148 	ldr	r0, [pc, #328]	; cc2c <mALLOPt+0x1a8>
    cae0:	e2888006 	add	r8, r8, #6
    cae4:	ebfffebe 	bl	c5e4 <malloc_consolidate>
    cae8:	e3580007 	cmp	r8, #7
    caec:	979ff108 	ldrls	pc, [pc, r8, lsl #2]
    caf0:	ea000023 	b	cb84 <mALLOPt+0x100>
    caf4:	0000cb8c 	.word	0x0000cb8c
    caf8:	0000cb98 	.word	0x0000cb98
    cafc:	0000cba4 	.word	0x0000cba4
    cb00:	0000cbb4 	.word	0x0000cbb4
    cb04:	0000cbd0 	.word	0x0000cbd0
    cb08:	0000cbe0 	.word	0x0000cbe0
    cb0c:	0000cb84 	.word	0x0000cb84
    cb10:	0000cb14 	.word	0x0000cb14
    cb14:	e3570050 	cmp	r7, #80	; 0x50
    cb18:	83a08000 	movhi	r8, #0
    cb1c:	8a000005 	bhi	cb38 <mALLOPt+0xb4>
    cb20:	e3570000 	cmp	r7, #0
    cb24:	12877004 	addne	r7, r7, #4
    cb28:	13c77007 	bicne	r7, r7, #7
    cb2c:	03a07008 	moveq	r7, #8
    cb30:	e5867490 	str	r7, [r6, #1168]	; 0x490
    cb34:	e3a08001 	mov	r8, #1
    cb38:	e5965000 	ldr	r5, [r6]
    cb3c:	e3a01000 	mov	r1, #0
    cb40:	e59f20e4 	ldr	r2, [pc, #228]	; cc2c <mALLOPt+0x1a8>
    cb44:	e1a04005 	mov	r4, r5
    cb48:	e5923000 	ldr	r3, [r2]
    cb4c:	e1530004 	cmp	r3, r4
    cb50:	1a000005 	bne	cb6c <mALLOPt+0xe8>
    cb54:	e1a00004 	mov	r0, r4
    cb58:	e3e03a0f 	mvn	r3, #61440	; 0xf000
    cb5c:	e1a0e00f 	mov	lr, pc
    cb60:	e243f03f 	sub	pc, r3, #63	; 0x3f
    cb64:	3afffff7 	bcc	cb48 <mALLOPt+0xc4>
    cb68:	e1a03004 	mov	r3, r4
    cb6c:	e1550003 	cmp	r5, r3
    cb70:	1afffff0 	bne	cb38 <mALLOPt+0xb4>
    cb74:	e3550001 	cmp	r5, #1
    cb78:	ca00001e 	bgt	cbf8 <mALLOPt+0x174>
    cb7c:	e1a00008 	mov	r0, r8
    cb80:	e8bd81f0 	pop	{r4, r5, r6, r7, r8, pc}
    cb84:	e3a08001 	mov	r8, #1
    cb88:	eaffffea 	b	cb38 <mALLOPt+0xb4>
    cb8c:	e5867494 	str	r7, [r6, #1172]	; 0x494
    cb90:	e3a08001 	mov	r8, #1
    cb94:	eaffffe7 	b	cb38 <mALLOPt+0xb4>
    cb98:	e5857004 	str	r7, [r5, #4]
    cb9c:	e3a08001 	mov	r8, #1
    cba0:	eaffffe4 	b	cb38 <mALLOPt+0xb4>
    cba4:	e3a08001 	mov	r8, #1
    cba8:	e5867470 	str	r7, [r6, #1136]	; 0x470
    cbac:	e5868478 	str	r8, [r6, #1144]	; 0x478
    cbb0:	eaffffe0 	b	cb38 <mALLOPt+0xb4>
    cbb4:	e3570702 	cmp	r7, #524288	; 0x80000
    cbb8:	e3a03001 	mov	r3, #1
    cbbc:	95867468 	strls	r7, [r6, #1128]	; 0x468
    cbc0:	93a08001 	movls	r8, #1
    cbc4:	83a08000 	movhi	r8, #0
    cbc8:	e5863478 	str	r3, [r6, #1144]	; 0x478
    cbcc:	eaffffd9 	b	cb38 <mALLOPt+0xb4>
    cbd0:	e3a08001 	mov	r8, #1
    cbd4:	e5867464 	str	r7, [r6, #1124]	; 0x464
    cbd8:	e5868478 	str	r8, [r6, #1144]	; 0x478
    cbdc:	eaffffd5 	b	cb38 <mALLOPt+0xb4>
    cbe0:	e3a08001 	mov	r8, #1
    cbe4:	e5867460 	str	r7, [r6, #1120]	; 0x460
    cbe8:	e5868478 	str	r8, [r6, #1144]	; 0x478
    cbec:	eaffffd1 	b	cb38 <mALLOPt+0xb4>
    cbf0:	eb00000e 	bl	cc30 <ptmalloc_init>
    cbf4:	eaffffa9 	b	caa0 <mALLOPt+0x1c>
    cbf8:	ebffefbc 	bl	8af0 <__aeabi_read_tp>
    cbfc:	e51014b8 	ldr	r1, [r0, #-1208]	; 0x4b8
    cc00:	e3a03000 	mov	r3, #0
    cc04:	e1a00002 	mov	r0, r2
    cc08:	e3811001 	orr	r1, r1, #1
    cc0c:	e3a02001 	mov	r2, #1
    cc10:	e3a070f0 	mov	r7, #240	; 0xf0
    cc14:	ef000000 	svc	0x00000000
    cc18:	eaffffd7 	b	cb7c <mALLOPt+0xf8>
    cc1c:	e1a00006 	mov	r0, r6
    cc20:	eb002102 	bl	15030 <__lll_lock_wait_private>
    cc24:	eaffffac 	b	cadc <mALLOPt+0x58>
    cc28:	00083dd4 	.word	0x00083dd4
    cc2c:	00084960 	.word	0x00084960

0000cc30 <ptmalloc_init>:
    cc30:	e92d45f8 	push	{r3, r4, r5, r6, r7, r8, sl, lr}
    cc34:	e59f5368 	ldr	r5, [pc, #872]	; cfa4 <ptmalloc_init+0x374>
    cc38:	e5953000 	ldr	r3, [r5]
    cc3c:	e3530000 	cmp	r3, #0
    cc40:	a8bd85f8 	popge	{r3, r4, r5, r6, r7, r8, sl, pc}
    cc44:	e59f435c 	ldr	r4, [pc, #860]	; cfa8 <ptmalloc_init+0x378>
    cc48:	e3a06000 	mov	r6, #0
    cc4c:	e3a03802 	mov	r3, #131072	; 0x20000
    cc50:	e3a02801 	mov	r2, #65536	; 0x10000
    cc54:	e5856000 	str	r6, [r5]
    cc58:	e5843464 	str	r3, [r4, #1124]	; 0x464
    cc5c:	e5842470 	str	r2, [r4, #1136]	; 0x470
    cc60:	e5843468 	str	r3, [r4, #1128]	; 0x468
    cc64:	e5843460 	str	r3, [r4, #1120]	; 0x460
    cc68:	eb001dfa 	bl	14458 <__getpagesize>
    cc6c:	e59f3338 	ldr	r3, [pc, #824]	; cfac <ptmalloc_init+0x37c>
    cc70:	e584047c 	str	r0, [r4, #1148]	; 0x47c
    cc74:	e5846000 	str	r6, [r4]
    cc78:	e5846458 	str	r6, [r4, #1112]	; 0x458
    cc7c:	e5844440 	str	r4, [r4, #1088]	; 0x440
    cc80:	e79f3003 	ldr	r3, [pc, r3]
    cc84:	ebffef99 	bl	8af0 <__aeabi_read_tp>
    cc88:	e7804003 	str	r4, [r0, r3]
    cc8c:	e59f331c 	ldr	r3, [pc, #796]	; cfb0 <ptmalloc_init+0x380>
    cc90:	e59f231c 	ldr	r2, [pc, #796]	; cfb4 <ptmalloc_init+0x384>
    cc94:	e584349c 	str	r3, [r4, #1180]	; 0x49c
    cc98:	e59f3318 	ldr	r3, [pc, #792]	; cfb8 <ptmalloc_init+0x388>
    cc9c:	e1520006 	cmp	r2, r6
    cca0:	e58434a0 	str	r3, [r4, #1184]	; 0x4a0
    cca4:	e59f3310 	ldr	r3, [pc, #784]	; cfbc <ptmalloc_init+0x38c>
    cca8:	15922000 	ldrne	r2, [r2]
    ccac:	e58434a4 	str	r3, [r4, #1188]	; 0x4a4
    ccb0:	e59f0308 	ldr	r0, [pc, #776]	; cfc0 <ptmalloc_init+0x390>
    ccb4:	e3a03001 	mov	r3, #1
    ccb8:	e58434ac 	str	r3, [r4, #1196]	; 0x4ac
    ccbc:	e58424a8 	str	r2, [r4, #1192]	; 0x4a8
    ccc0:	eb002157 	bl	15224 <__linkin_atfork>
    ccc4:	e59f32f8 	ldr	r3, [pc, #760]	; cfc4 <ptmalloc_init+0x394>
    ccc8:	e5936000 	ldr	r6, [r3]
    cccc:	e59f32f4 	ldr	r3, [pc, #756]	; cfc8 <ptmalloc_init+0x398>
    ccd0:	e3560000 	cmp	r6, #0
    ccd4:	e5938000 	ldr	r8, [r3]
    ccd8:	13a07000 	movne	r7, #0
    ccdc:	0a00000d 	beq	cd18 <ptmalloc_init+0xe8>
    cce0:	e5963000 	ldr	r3, [r6]
    cce4:	e3530000 	cmp	r3, #0
    cce8:	0a000005 	beq	cd04 <ptmalloc_init+0xd4>
    ccec:	e5d32000 	ldrb	r2, [r3]
    ccf0:	e352004d 	cmp	r2, #77	; 0x4d
    ccf4:	0a00002a 	beq	cda4 <ptmalloc_init+0x174>
    ccf8:	e5b63004 	ldr	r3, [r6, #4]!
    ccfc:	e3530000 	cmp	r3, #0
    cd00:	1afffff9 	bne	ccec <ptmalloc_init+0xbc>
    cd04:	e3570000 	cmp	r7, #0
    cd08:	0a000002 	beq	cd18 <ptmalloc_init+0xe8>
    cd0c:	e5d71000 	ldrb	r1, [r7]
    cd10:	e3510000 	cmp	r1, #0
    cd14:	1a000007 	bne	cd38 <ptmalloc_init+0x108>
    cd18:	e59f32ac 	ldr	r3, [pc, #684]	; cfcc <ptmalloc_init+0x39c>
    cd1c:	e5933000 	ldr	r3, [r3]
    cd20:	e3530000 	cmp	r3, #0
    cd24:	0a000000 	beq	cd2c <ptmalloc_init+0xfc>
    cd28:	e12fff33 	blx	r3
    cd2c:	e3a03001 	mov	r3, #1
    cd30:	e5853000 	str	r3, [r5]
    cd34:	e8bd85f8 	pop	{r3, r4, r5, r6, r7, r8, sl, pc}
    cd38:	e3e00004 	mvn	r0, #4
    cd3c:	e2411030 	sub	r1, r1, #48	; 0x30
    cd40:	ebffff4f 	bl	ca84 <mALLOPt>
    cd44:	e5953004 	ldr	r3, [r5, #4]
    cd48:	e3530000 	cmp	r3, #0
    cd4c:	0afffff1 	beq	cd18 <ptmalloc_init+0xe8>
    cd50:	e59434b4 	ldr	r3, [r4, #1204]	; 0x4b4
    cd54:	e59f224c 	ldr	r2, [pc, #588]	; cfa8 <ptmalloc_init+0x378>
    cd58:	e3530000 	cmp	r3, #0
    cd5c:	13a03000 	movne	r3, #0
    cd60:	158234b4 	strne	r3, [r2, #1204]	; 0x4b4
    cd64:	1affffeb 	bne	cd18 <ptmalloc_init+0xe8>
    cd68:	e3a03001 	mov	r3, #1
    cd6c:	e58234b8 	str	r3, [r2, #1208]	; 0x4b8
    cd70:	e59f2258 	ldr	r2, [pc, #600]	; cfd0 <ptmalloc_init+0x3a0>
    cd74:	e59f3258 	ldr	r3, [pc, #600]	; cfd4 <ptmalloc_init+0x3a4>
    cd78:	e5832000 	str	r2, [r3]
    cd7c:	e59f2254 	ldr	r2, [pc, #596]	; cfd8 <ptmalloc_init+0x3a8>
    cd80:	e59f3254 	ldr	r3, [pc, #596]	; cfdc <ptmalloc_init+0x3ac>
    cd84:	e5832000 	str	r2, [r3]
    cd88:	e59f2250 	ldr	r2, [pc, #592]	; cfe0 <ptmalloc_init+0x3b0>
    cd8c:	e59f3250 	ldr	r3, [pc, #592]	; cfe4 <ptmalloc_init+0x3b4>
    cd90:	e5832000 	str	r2, [r3]
    cd94:	e59f224c 	ldr	r2, [pc, #588]	; cfe8 <ptmalloc_init+0x3b8>
    cd98:	e59f324c 	ldr	r3, [pc, #588]	; cfec <ptmalloc_init+0x3bc>
    cd9c:	e5832000 	str	r2, [r3]
    cda0:	eaffffdc 	b	cd18 <ptmalloc_init+0xe8>
    cda4:	e5d32001 	ldrb	r2, [r3, #1]
    cda8:	e3520041 	cmp	r2, #65	; 0x41
    cdac:	1affffd1 	bne	ccf8 <ptmalloc_init+0xc8>
    cdb0:	e5d32002 	ldrb	r2, [r3, #2]
    cdb4:	e352004c 	cmp	r2, #76	; 0x4c
    cdb8:	1affffce 	bne	ccf8 <ptmalloc_init+0xc8>
    cdbc:	e5d32003 	ldrb	r2, [r3, #3]
    cdc0:	e352004c 	cmp	r2, #76	; 0x4c
    cdc4:	1affffcb 	bne	ccf8 <ptmalloc_init+0xc8>
    cdc8:	e5d32004 	ldrb	r2, [r3, #4]
    cdcc:	e352004f 	cmp	r2, #79	; 0x4f
    cdd0:	1affffc8 	bne	ccf8 <ptmalloc_init+0xc8>
    cdd4:	e5d32005 	ldrb	r2, [r3, #5]
    cdd8:	e3520043 	cmp	r2, #67	; 0x43
    cddc:	1affffc5 	bne	ccf8 <ptmalloc_init+0xc8>
    cde0:	e5d32006 	ldrb	r2, [r3, #6]
    cde4:	e352005f 	cmp	r2, #95	; 0x5f
    cde8:	1affffc2 	bne	ccf8 <ptmalloc_init+0xc8>
    cdec:	e293a007 	adds	sl, r3, #7
    cdf0:	0affffc3 	beq	cd04 <ptmalloc_init+0xd4>
    cdf4:	e3a02000 	mov	r2, #0
    cdf8:	ea000002 	b	ce08 <ptmalloc_init+0x1d8>
    cdfc:	e351003d 	cmp	r1, #61	; 0x3d
    ce00:	0a000006 	beq	ce20 <ptmalloc_init+0x1f0>
    ce04:	e2822001 	add	r2, r2, #1
    ce08:	e5d31007 	ldrb	r1, [r3, #7]
    ce0c:	e2833001 	add	r3, r3, #1
    ce10:	e3510000 	cmp	r1, #0
    ce14:	1afffff8 	bne	cdfc <ptmalloc_init+0x1cc>
    ce18:	e2866004 	add	r6, r6, #4
    ce1c:	eaffffaf 	b	cce0 <ptmalloc_init+0xb0>
    ce20:	e2422006 	sub	r2, r2, #6
    ce24:	e3520009 	cmp	r2, #9
    ce28:	979ff102 	ldrls	pc, [pc, r2, lsl #2]
    ce2c:	eafffff9 	b	ce18 <ptmalloc_init+0x1e8>
    ce30:	0000ce58 	.word	0x0000ce58
    ce34:	0000ce18 	.word	0x0000ce18
    ce38:	0000cf0c 	.word	0x0000cf0c
    ce3c:	0000cecc 	.word	0x0000cecc
    ce40:	0000ce18 	.word	0x0000ce18
    ce44:	0000ce18 	.word	0x0000ce18
    ce48:	0000ce18 	.word	0x0000ce18
    ce4c:	0000ce18 	.word	0x0000ce18
    ce50:	0000ce18 	.word	0x0000ce18
    ce54:	0000ce74 	.word	0x0000ce74
    ce58:	e1a0000a 	mov	r0, sl
    ce5c:	e59f118c 	ldr	r1, [pc, #396]	; cff0 <ptmalloc_init+0x3c0>
    ce60:	e3a02006 	mov	r2, #6
    ce64:	eb001855 	bl	12fc0 <memcmp>
    ce68:	e3500000 	cmp	r0, #0
    ce6c:	028a7007 	addeq	r7, sl, #7
    ce70:	eaffffe8 	b	ce18 <ptmalloc_init+0x1e8>
    ce74:	e3580000 	cmp	r8, #0
    ce78:	1affffe6 	bne	ce18 <ptmalloc_init+0x1e8>
    ce7c:	e1a0000a 	mov	r0, sl
    ce80:	e59f116c 	ldr	r1, [pc, #364]	; cff4 <ptmalloc_init+0x3c4>
    ce84:	e3a0200f 	mov	r2, #15
    ce88:	eb00184c 	bl	12fc0 <memcmp>
    ce8c:	e3500000 	cmp	r0, #0
    ce90:	0a000033 	beq	cf64 <ptmalloc_init+0x334>
    ce94:	e1a0000a 	mov	r0, sl
    ce98:	e59f1158 	ldr	r1, [pc, #344]	; cff8 <ptmalloc_init+0x3c8>
    ce9c:	e3a0200f 	mov	r2, #15
    cea0:	eb001846 	bl	12fc0 <memcmp>
    cea4:	e3500000 	cmp	r0, #0
    cea8:	1affffda 	bne	ce18 <ptmalloc_init+0x1e8>
    ceac:	e1a01008 	mov	r1, r8
    ceb0:	e28a0010 	add	r0, sl, #16
    ceb4:	e3a0200a 	mov	r2, #10
    ceb8:	ebfff0a6 	bl	9158 <strtol>
    cebc:	e1a01000 	mov	r1, r0
    cec0:	e3e00002 	mvn	r0, #2
    cec4:	ebfffeee 	bl	ca84 <mALLOPt>
    cec8:	eaffffd2 	b	ce18 <ptmalloc_init+0x1e8>
    cecc:	e3580000 	cmp	r8, #0
    ced0:	1affffd0 	bne	ce18 <ptmalloc_init+0x1e8>
    ced4:	e1a0000a 	mov	r0, sl
    ced8:	e59f111c 	ldr	r1, [pc, #284]	; cffc <ptmalloc_init+0x3cc>
    cedc:	e3a02009 	mov	r2, #9
    cee0:	eb001836 	bl	12fc0 <memcmp>
    cee4:	e3500000 	cmp	r0, #0
    cee8:	1affffca 	bne	ce18 <ptmalloc_init+0x1e8>
    ceec:	e1a01008 	mov	r1, r8
    cef0:	e28a000a 	add	r0, sl, #10
    cef4:	e3a0200a 	mov	r2, #10
    cef8:	ebfff096 	bl	9158 <strtol>
    cefc:	e1a01000 	mov	r1, r0
    cf00:	e3e00003 	mvn	r0, #3
    cf04:	ebfffede 	bl	ca84 <mALLOPt>
    cf08:	eaffffc2 	b	ce18 <ptmalloc_init+0x1e8>
    cf0c:	e3580000 	cmp	r8, #0
    cf10:	1affffc0 	bne	ce18 <ptmalloc_init+0x1e8>
    cf14:	e1a0000a 	mov	r0, sl
    cf18:	e59f10e0 	ldr	r1, [pc, #224]	; d000 <ptmalloc_init+0x3d0>
    cf1c:	e3a02008 	mov	r2, #8
    cf20:	eb001826 	bl	12fc0 <memcmp>
    cf24:	e3500000 	cmp	r0, #0
    cf28:	0a000015 	beq	cf84 <ptmalloc_init+0x354>
    cf2c:	e1a0000a 	mov	r0, sl
    cf30:	e59f10cc 	ldr	r1, [pc, #204]	; d004 <ptmalloc_init+0x3d4>
    cf34:	e3a02008 	mov	r2, #8
    cf38:	eb001820 	bl	12fc0 <memcmp>
    cf3c:	e3500000 	cmp	r0, #0
    cf40:	1affffb4 	bne	ce18 <ptmalloc_init+0x1e8>
    cf44:	e1a01008 	mov	r1, r8
    cf48:	e28a0009 	add	r0, sl, #9
    cf4c:	e3a0200a 	mov	r2, #10
    cf50:	ebfff080 	bl	9158 <strtol>
    cf54:	e1a01000 	mov	r1, r0
    cf58:	e3e00005 	mvn	r0, #5
    cf5c:	ebfffec8 	bl	ca84 <mALLOPt>
    cf60:	eaffffac 	b	ce18 <ptmalloc_init+0x1e8>
    cf64:	e1a01008 	mov	r1, r8
    cf68:	e28a0010 	add	r0, sl, #16
    cf6c:	e3a0200a 	mov	r2, #10
    cf70:	ebfff078 	bl	9158 <strtol>
    cf74:	e1a01000 	mov	r1, r0
    cf78:	e3e00000 	mvn	r0, #0
    cf7c:	ebfffec0 	bl	ca84 <mALLOPt>
    cf80:	eaffffa4 	b	ce18 <ptmalloc_init+0x1e8>
    cf84:	e1a01008 	mov	r1, r8
    cf88:	e28a0009 	add	r0, sl, #9
    cf8c:	e3a0200a 	mov	r2, #10
    cf90:	ebfff070 	bl	9158 <strtol>
    cf94:	e1a01000 	mov	r1, r0
    cf98:	e3e00001 	mvn	r0, #1
    cf9c:	ebfffeb8 	bl	ca84 <mALLOPt>
    cfa0:	eaffff9c 	b	ce18 <ptmalloc_init+0x1e8>
    cfa4:	00083dd4 	.word	0x00083dd4
    cfa8:	00084960 	.word	0x00084960
    cfac:	00076cb0 	.word	0x00076cb0
    cfb0:	0000c1cc 	.word	0x0000c1cc
    cfb4:	000839a4 	.word	0x000839a4
    cfb8:	0000c340 	.word	0x0000c340
    cfbc:	0000be70 	.word	0x0000be70
    cfc0:	00084df8 	.word	0x00084df8
    cfc4:	00084e30 	.word	0x00084e30
    cfc8:	00083908 	.word	0x00083908
    cfcc:	00084e24 	.word	0x00084e24
    cfd0:	0000fb90 	.word	0x0000fb90
    cfd4:	00083de0 	.word	0x00083de0
    cfd8:	0000e7e8 	.word	0x0000e7e8
    cfdc:	00084e28 	.word	0x00084e28
    cfe0:	00010404 	.word	0x00010404
    cfe4:	00083de4 	.word	0x00083de4
    cfe8:	0000fec0 	.word	0x0000fec0
    cfec:	00083de8 	.word	0x00083de8
    cff0:	00065c00 	.word	0x00065c00
    cff4:	00065c2c 	.word	0x00065c2c
    cff8:	00065c3c 	.word	0x00065c3c
    cffc:	00065c20 	.word	0x00065c20
    d000:	00065c08 	.word	0x00065c08
    d004:	00065c14 	.word	0x00065c14

0000d008 <munmap_chunk>:
    d008:	e92d4070 	push	{r4, r5, r6, lr}
    d00c:	e5905004 	ldr	r5, [r0, #4]
    d010:	e1a04000 	mov	r4, r0
    d014:	e3150002 	tst	r5, #2
    d018:	e3c55007 	bic	r5, r5, #7
    d01c:	0a000017 	beq	d080 <munmap_chunk+0x78>
    d020:	e59f3088 	ldr	r3, [pc, #136]	; d0b0 <munmap_chunk+0xa8>
    d024:	e5941000 	ldr	r1, [r4]
    d028:	e593247c 	ldr	r2, [r3, #1148]	; 0x47c
    d02c:	e0610004 	rsb	r0, r1, r4
    d030:	e0851001 	add	r1, r5, r1
    d034:	e180c001 	orr	ip, r0, r1
    d038:	e2422001 	sub	r2, r2, #1
    d03c:	e11c0002 	tst	ip, r2
    d040:	1a000014 	bne	d098 <munmap_chunk+0x90>
    d044:	e593c46c 	ldr	ip, [r3, #1132]	; 0x46c
    d048:	e5932480 	ldr	r2, [r3, #1152]	; 0x480
    d04c:	e24cc001 	sub	ip, ip, #1
    d050:	e0612002 	rsb	r2, r1, r2
    d054:	e583c46c 	str	ip, [r3, #1132]	; 0x46c
    d058:	e5832480 	str	r2, [r3, #1152]	; 0x480
    d05c:	eb001f6b 	bl	14e10 <__munmap>
    d060:	e3500000 	cmp	r0, #0
    d064:	08bd8070 	popeq	{r4, r5, r6, pc}
    d068:	e59f0044 	ldr	r0, [pc, #68]	; d0b4 <munmap_chunk+0xac>
    d06c:	e59f1044 	ldr	r1, [pc, #68]	; d0b8 <munmap_chunk+0xb0>
    d070:	e59f2044 	ldr	r2, [pc, #68]	; d0bc <munmap_chunk+0xb4>
    d074:	e59f3044 	ldr	r3, [pc, #68]	; d0c0 <munmap_chunk+0xb8>
    d078:	e8bd4070 	pop	{r4, r5, r6, lr}
    d07c:	eafffd36 	b	c55c <__malloc_assert>
    d080:	e59f003c 	ldr	r0, [pc, #60]	; d0c4 <munmap_chunk+0xbc>
    d084:	e59f102c 	ldr	r1, [pc, #44]	; d0b8 <munmap_chunk+0xb0>
    d088:	e59f2038 	ldr	r2, [pc, #56]	; d0c8 <munmap_chunk+0xc0>
    d08c:	e59f302c 	ldr	r3, [pc, #44]	; d0c0 <munmap_chunk+0xb8>
    d090:	ebfffd31 	bl	c55c <__malloc_assert>
    d094:	eaffffe1 	b	d020 <munmap_chunk+0x18>
    d098:	e59f302c 	ldr	r3, [pc, #44]	; d0cc <munmap_chunk+0xc4>
    d09c:	e59f102c 	ldr	r1, [pc, #44]	; d0d0 <munmap_chunk+0xc8>
    d0a0:	e5930004 	ldr	r0, [r3, #4]
    d0a4:	e2842008 	add	r2, r4, #8
    d0a8:	e8bd4070 	pop	{r4, r5, r6, lr}
    d0ac:	eafffcf7 	b	c490 <malloc_printerr>
    d0b0:	00084960 	.word	0x00084960
    d0b4:	00065c80 	.word	0x00065c80
    d0b8:	00065b68 	.word	0x00065b68
    d0bc:	00000ddf 	.word	0x00000ddf
    d0c0:	00066ef8 	.word	0x00066ef8
    d0c4:	00065c4c 	.word	0x00065c4c
    d0c8:	00000dc5 	.word	0x00000dc5
    d0cc:	00083dd4 	.word	0x00083dd4
    d0d0:	00065c60 	.word	0x00065c60

0000d0d4 <top_check>:
    d0d4:	e92d41f0 	push	{r4, r5, r6, r7, r8, lr}
    d0d8:	eb001cde 	bl	14458 <__getpagesize>
    d0dc:	e59f4110 	ldr	r4, [pc, #272]	; d1f4 <top_check+0x120>
    d0e0:	e1a06000 	mov	r6, r0
    d0e4:	e1a03004 	mov	r3, r4
    d0e8:	e5b32030 	ldr	r2, [r3, #48]!	; 0x30
    d0ec:	e1520003 	cmp	r2, r3
    d0f0:	03a00000 	moveq	r0, #0
    d0f4:	08bd81f0 	popeq	{r4, r5, r6, r7, r8, pc}
    d0f8:	e5923004 	ldr	r3, [r2, #4]
    d0fc:	e2130002 	ands	r0, r3, #2
    d100:	1a000002 	bne	d110 <top_check+0x3c>
    d104:	e3c31007 	bic	r1, r3, #7
    d108:	e351000f 	cmp	r1, #15
    d10c:	8a000026 	bhi	d1ac <top_check+0xd8>
    d110:	e59f50e0 	ldr	r5, [pc, #224]	; d1f8 <top_check+0x124>
    d114:	e59f10e0 	ldr	r1, [pc, #224]	; d1fc <top_check+0x128>
    d118:	e5950004 	ldr	r0, [r5, #4]
    d11c:	ebfffcdb 	bl	c490 <malloc_printerr>
    d120:	e5953008 	ldr	r3, [r5, #8]
    d124:	e3a00000 	mov	r0, #0
    d128:	e12fff33 	blx	r3
    d12c:	e5943464 	ldr	r3, [r4, #1124]	; 0x464
    d130:	e2108007 	ands	r8, r0, #7
    d134:	12688008 	rsbne	r8, r8, #8
    d138:	e2833010 	add	r3, r3, #16
    d13c:	e0833008 	add	r3, r3, r8
    d140:	e0801003 	add	r1, r0, r3
    d144:	e2462001 	sub	r2, r6, #1
    d148:	e0012002 	and	r2, r1, r2
    d14c:	e0836006 	add	r6, r3, r6
    d150:	e0626006 	rsb	r6, r2, r6
    d154:	e5953008 	ldr	r3, [r5, #8]
    d158:	e1a07000 	mov	r7, r0
    d15c:	e1a00006 	mov	r0, r6
    d160:	e12fff33 	blx	r3
    d164:	e2505000 	subs	r5, r0, #0
    d168:	0a00001c 	beq	d1e0 <top_check+0x10c>
    d16c:	e59f308c 	ldr	r3, [pc, #140]	; d200 <top_check+0x12c>
    d170:	e5933000 	ldr	r3, [r3]
    d174:	e3530000 	cmp	r3, #0
    d178:	0a000000 	beq	d180 <top_check+0xac>
    d17c:	e12fff33 	blx	r3
    d180:	e594248c 	ldr	r2, [r4, #1164]	; 0x48c
    d184:	e0683006 	rsb	r3, r8, r6
    d188:	e0625005 	rsb	r5, r2, r5
    d18c:	e0877008 	add	r7, r7, r8
    d190:	e0866005 	add	r6, r6, r5
    d194:	e3833001 	orr	r3, r3, #1
    d198:	e5846444 	str	r6, [r4, #1092]	; 0x444
    d19c:	e5847030 	str	r7, [r4, #48]	; 0x30
    d1a0:	e3a00000 	mov	r0, #0
    d1a4:	e5873004 	str	r3, [r7, #4]
    d1a8:	e8bd81f0 	pop	{r4, r5, r6, r7, r8, pc}
    d1ac:	e3130001 	tst	r3, #1
    d1b0:	0affffd6 	beq	d110 <top_check+0x3c>
    d1b4:	e5943004 	ldr	r3, [r4, #4]
    d1b8:	e2133002 	ands	r3, r3, #2
    d1bc:	18bd81f0 	popne	{r4, r5, r6, r7, r8, pc}
    d1c0:	e594548c 	ldr	r5, [r4, #1164]	; 0x48c
    d1c4:	e594c444 	ldr	ip, [r4, #1092]	; 0x444
    d1c8:	e0821001 	add	r1, r2, r1
    d1cc:	e085c00c 	add	ip, r5, ip
    d1d0:	e151000c 	cmp	r1, ip
    d1d4:	1affffcd 	bne	d110 <top_check+0x3c>
    d1d8:	e1a00003 	mov	r0, r3
    d1dc:	e8bd81f0 	pop	{r4, r5, r6, r7, r8, pc}
    d1e0:	ebffee46 	bl	8b00 <__errno_location>
    d1e4:	e3a0300c 	mov	r3, #12
    d1e8:	e5803000 	str	r3, [r0]
    d1ec:	e3e00000 	mvn	r0, #0
    d1f0:	e8bd81f0 	pop	{r4, r5, r6, r7, r8, pc}
    d1f4:	00084960 	.word	0x00084960
    d1f8:	00083dd4 	.word	0x00083dd4
    d1fc:	00065c8c 	.word	0x00065c8c
    d200:	00084e2c 	.word	0x00084e2c

0000d204 <new_heap>:
    d204:	e92d41f0 	push	{r4, r5, r6, r7, r8, lr}
    d208:	e24dd008 	sub	sp, sp, #8
    d20c:	e0814000 	add	r4, r1, r0
    d210:	e1a05000 	mov	r5, r0
    d214:	eb001c8f 	bl	14458 <__getpagesize>
    d218:	e3540902 	cmp	r4, #32768	; 0x8000
    d21c:	e1a07000 	mov	r7, r0
    d220:	33a04902 	movcc	r4, #32768	; 0x8000
    d224:	3a000001 	bcc	d230 <new_heap+0x2c>
    d228:	e3540601 	cmp	r4, #1048576	; 0x100000
    d22c:	8a00003a 	bhi	d31c <new_heap+0x118>
    d230:	e59f516c 	ldr	r5, [pc, #364]	; d3a4 <new_heap+0x1a0>
    d234:	e59504bc 	ldr	r0, [r5, #1212]	; 0x4bc
    d238:	e3500000 	cmp	r0, #0
    d23c:	0a00001f 	beq	d2c0 <new_heap+0xbc>
    d240:	e3a06000 	mov	r6, #0
    d244:	e3e0c000 	mvn	ip, #0
    d248:	e3a01601 	mov	r1, #1048576	; 0x100000
    d24c:	e1a02006 	mov	r2, r6
    d250:	e59f3150 	ldr	r3, [pc, #336]	; d3a8 <new_heap+0x1a4>
    d254:	e58dc000 	str	ip, [sp]
    d258:	e58d6004 	str	r6, [sp, #4]
    d25c:	eb001ed7 	bl	14dc0 <__mmap>
    d260:	e3700001 	cmn	r0, #1
    d264:	e1a08000 	mov	r8, r0
    d268:	e58564bc 	str	r6, [r5, #1212]	; 0x4bc
    d26c:	0a000013 	beq	d2c0 <new_heap+0xbc>
    d270:	e3c034ff 	bic	r3, r0, #-16777216	; 0xff000000
    d274:	e3c3360f 	bic	r3, r3, #15728640	; 0xf00000
    d278:	e1530006 	cmp	r3, r6
    d27c:	1a00000d 	bne	d2b8 <new_heap+0xb4>
    d280:	e2477001 	sub	r7, r7, #1
    d284:	e0844007 	add	r4, r4, r7
    d288:	e1c44007 	bic	r4, r4, r7
    d28c:	e1a00008 	mov	r0, r8
    d290:	e1a01004 	mov	r1, r4
    d294:	e3a02003 	mov	r2, #3
    d298:	eb001ee4 	bl	14e30 <__mprotect>
    d29c:	e3500000 	cmp	r0, #0
    d2a0:	01a00008 	moveq	r0, r8
    d2a4:	05804008 	streq	r4, [r0, #8]
    d2a8:	0580400c 	streq	r4, [r0, #12]
    d2ac:	1a000023 	bne	d340 <new_heap+0x13c>
    d2b0:	e28dd008 	add	sp, sp, #8
    d2b4:	e8bd81f0 	pop	{r4, r5, r6, r7, r8, pc}
    d2b8:	e3a01601 	mov	r1, #1048576	; 0x100000
    d2bc:	eb001ed3 	bl	14e10 <__munmap>
    d2c0:	e3a06000 	mov	r6, #0
    d2c4:	e3e0c000 	mvn	ip, #0
    d2c8:	e1a00006 	mov	r0, r6
    d2cc:	e3a01602 	mov	r1, #2097152	; 0x200000
    d2d0:	e1a02006 	mov	r2, r6
    d2d4:	e59f30cc 	ldr	r3, [pc, #204]	; d3a8 <new_heap+0x1a4>
    d2d8:	e58dc000 	str	ip, [sp]
    d2dc:	e58d6004 	str	r6, [sp, #4]
    d2e0:	eb001eb6 	bl	14dc0 <__mmap>
    d2e4:	e3700001 	cmn	r0, #1
    d2e8:	e1a0c000 	mov	ip, r0
    d2ec:	0a000018 	beq	d354 <new_heap+0x150>
    d2f0:	e240837f 	sub	r8, r0, #-67108863	; 0xfc000001
    d2f4:	e248863f 	sub	r8, r8, #66060288	; 0x3f00000
    d2f8:	e1a08a28 	lsr	r8, r8, #20
    d2fc:	e1a08a08 	lsl	r8, r8, #20
    d300:	e0586000 	subs	r6, r8, r0
    d304:	02880601 	addeq	r0, r8, #1048576	; 0x100000
    d308:	058504bc 	streq	r0, [r5, #1212]	; 0x4bc
    d30c:	1a000007 	bne	d330 <new_heap+0x12c>
    d310:	e2661601 	rsb	r1, r6, #1048576	; 0x100000
    d314:	eb001ebd 	bl	14e10 <__munmap>
    d318:	eaffffd8 	b	d280 <new_heap+0x7c>
    d31c:	e3550601 	cmp	r5, #1048576	; 0x100000
    d320:	93a04601 	movls	r4, #1048576	; 0x100000
    d324:	9affffc1 	bls	d230 <new_heap+0x2c>
    d328:	e3a00000 	mov	r0, #0
    d32c:	eaffffdf 	b	d2b0 <new_heap+0xac>
    d330:	e1a01006 	mov	r1, r6
    d334:	eb001eb5 	bl	14e10 <__munmap>
    d338:	e2880601 	add	r0, r8, #1048576	; 0x100000
    d33c:	eafffff3 	b	d310 <new_heap+0x10c>
    d340:	e1a00008 	mov	r0, r8
    d344:	e3a01601 	mov	r1, #1048576	; 0x100000
    d348:	eb001eb0 	bl	14e10 <__munmap>
    d34c:	e3a00000 	mov	r0, #0
    d350:	eaffffd6 	b	d2b0 <new_heap+0xac>
    d354:	e59f304c 	ldr	r3, [pc, #76]	; d3a8 <new_heap+0x1a4>
    d358:	e1a00006 	mov	r0, r6
    d35c:	e3a01601 	mov	r1, #1048576	; 0x100000
    d360:	e1a02006 	mov	r2, r6
    d364:	e58dc000 	str	ip, [sp]
    d368:	e58d6004 	str	r6, [sp, #4]
    d36c:	eb001e93 	bl	14dc0 <__mmap>
    d370:	e3700001 	cmn	r0, #1
    d374:	e1a03000 	mov	r3, r0
    d378:	e1a08000 	mov	r8, r0
    d37c:	01a00006 	moveq	r0, r6
    d380:	0affffca 	beq	d2b0 <new_heap+0xac>
    d384:	e3c334ff 	bic	r3, r3, #-16777216	; 0xff000000
    d388:	e3c3360f 	bic	r3, r3, #15728640	; 0xf00000
    d38c:	e3530000 	cmp	r3, #0
    d390:	0affffba 	beq	d280 <new_heap+0x7c>
    d394:	e3a01601 	mov	r1, #1048576	; 0x100000
    d398:	eb001e9c 	bl	14e10 <__munmap>
    d39c:	e1a00006 	mov	r0, r6
    d3a0:	eaffffc2 	b	d2b0 <new_heap+0xac>
    d3a4:	00084960 	.word	0x00084960
    d3a8:	00004022 	.word	0x00004022

0000d3ac <arena_get2>:
    d3ac:	e92d41f0 	push	{r4, r5, r6, r7, r8, lr}
    d3b0:	e2507000 	subs	r7, r0, #0
    d3b4:	e1a08001 	mov	r8, r1
    d3b8:	0a00005f 	beq	d53c <arena_get2+0x190>
    d3bc:	e5976440 	ldr	r6, [r7, #1088]	; 0x440
    d3c0:	e3560000 	cmp	r6, #0
    d3c4:	0a000049 	beq	d4f0 <arena_get2+0x144>
    d3c8:	e3a05000 	mov	r5, #0
    d3cc:	e3a01001 	mov	r1, #1
    d3d0:	e1a02006 	mov	r2, r6
    d3d4:	e3a04000 	mov	r4, #0
    d3d8:	e5923000 	ldr	r3, [r2]
    d3dc:	e1530004 	cmp	r3, r4
    d3e0:	1a000005 	bne	d3fc <arena_get2+0x50>
    d3e4:	e1a00004 	mov	r0, r4
    d3e8:	e3e03a0f 	mvn	r3, #61440	; 0xf000
    d3ec:	e1a0e00f 	mov	lr, pc
    d3f0:	e243f03f 	sub	pc, r3, #63	; 0x3f
    d3f4:	3afffff7 	bcc	d3d8 <arena_get2+0x2c>
    d3f8:	e1a03004 	mov	r3, r4
    d3fc:	e1530004 	cmp	r3, r4
    d400:	0a000020 	beq	d488 <arena_get2+0xdc>
    d404:	e5966440 	ldr	r6, [r6, #1088]	; 0x440
    d408:	e1560007 	cmp	r6, r7
    d40c:	1affffee 	bne	d3cc <arena_get2+0x20>
    d410:	e3550000 	cmp	r5, #0
    d414:	e59f22e8 	ldr	r2, [pc, #744]	; d704 <arena_get2+0x358>
    d418:	1a00004a 	bne	d548 <arena_get2+0x19c>
    d41c:	e5923000 	ldr	r3, [r2]
    d420:	e1530004 	cmp	r3, r4
    d424:	1a000005 	bne	d440 <arena_get2+0x94>
    d428:	e1a00004 	mov	r0, r4
    d42c:	e3e03a0f 	mvn	r3, #61440	; 0xf000
    d430:	e1a0e00f 	mov	lr, pc
    d434:	e243f03f 	sub	pc, r3, #63	; 0x3f
    d438:	3afffff7 	bcc	d41c <arena_get2+0x70>
    d43c:	e1a03004 	mov	r3, r4
    d440:	e3530000 	cmp	r3, #0
    d444:	0a00003f 	beq	d548 <arena_get2+0x19c>
    d448:	e5923000 	ldr	r3, [r2]
    d44c:	e1530004 	cmp	r3, r4
    d450:	1a000005 	bne	d46c <arena_get2+0xc0>
    d454:	e1a00004 	mov	r0, r4
    d458:	e3e03a0f 	mvn	r3, #61440	; 0xf000
    d45c:	e1a0e00f 	mov	lr, pc
    d460:	e243f03f 	sub	pc, r3, #63	; 0x3f
    d464:	3afffff7 	bcc	d448 <arena_get2+0x9c>
    d468:	e1a03004 	mov	r3, r4
    d46c:	e3530000 	cmp	r3, #0
    d470:	01a05001 	moveq	r5, r1
    d474:	0affffd4 	beq	d3cc <arena_get2+0x20>
    d478:	e1a00002 	mov	r0, r2
    d47c:	eb001eeb 	bl	15030 <__lll_lock_wait_private>
    d480:	e2855001 	add	r5, r5, #1
    d484:	eaffffd0 	b	d3cc <arena_get2+0x20>
    d488:	e1550004 	cmp	r5, r4
    d48c:	0a000011 	beq	d4d8 <arena_get2+0x12c>
    d490:	e59f7270 	ldr	r7, [pc, #624]	; d708 <arena_get2+0x35c>
    d494:	e5975458 	ldr	r5, [r7, #1112]	; 0x458
    d498:	e3a01000 	mov	r1, #0
    d49c:	e59f2260 	ldr	r2, [pc, #608]	; d704 <arena_get2+0x358>
    d4a0:	e1a04005 	mov	r4, r5
    d4a4:	e5923000 	ldr	r3, [r2]
    d4a8:	e1530004 	cmp	r3, r4
    d4ac:	1a000005 	bne	d4c8 <arena_get2+0x11c>
    d4b0:	e1a00004 	mov	r0, r4
    d4b4:	e3e03a0f 	mvn	r3, #61440	; 0xf000
    d4b8:	e1a0e00f 	mov	lr, pc
    d4bc:	e243f03f 	sub	pc, r3, #63	; 0x3f
    d4c0:	3afffff7 	bcc	d4a4 <arena_get2+0xf8>
    d4c4:	e1a03004 	mov	r3, r4
    d4c8:	e1550003 	cmp	r5, r3
    d4cc:	1afffff0 	bne	d494 <arena_get2+0xe8>
    d4d0:	e3550001 	cmp	r5, #1
    d4d4:	ca000077 	bgt	d6b8 <arena_get2+0x30c>
    d4d8:	e59f322c 	ldr	r3, [pc, #556]	; d70c <arena_get2+0x360>
    d4dc:	ebffed83 	bl	8af0 <__aeabi_read_tp>
    d4e0:	e79f3003 	ldr	r3, [pc, r3]
    d4e4:	e7806003 	str	r6, [r0, r3]
    d4e8:	e1a00006 	mov	r0, r6
    d4ec:	e8bd81f0 	pop	{r4, r5, r6, r7, r8, pc}
    d4f0:	e3a01001 	mov	r1, #1
    d4f4:	e59f220c 	ldr	r2, [pc, #524]	; d708 <arena_get2+0x35c>
    d4f8:	e1a04006 	mov	r4, r6
    d4fc:	e5923000 	ldr	r3, [r2]
    d500:	e1530004 	cmp	r3, r4
    d504:	1a000005 	bne	d520 <arena_get2+0x174>
    d508:	e1a00004 	mov	r0, r4
    d50c:	e3e03a0f 	mvn	r3, #61440	; 0xf000
    d510:	e1a0e00f 	mov	lr, pc
    d514:	e243f03f 	sub	pc, r3, #63	; 0x3f
    d518:	3afffff7 	bcc	d4fc <arena_get2+0x150>
    d51c:	e1a03004 	mov	r3, r4
    d520:	e3530000 	cmp	r3, #0
    d524:	01a06002 	moveq	r6, r2
    d528:	0affffee 	beq	d4e8 <arena_get2+0x13c>
    d52c:	e1a00002 	mov	r0, r2
    d530:	eb001ebe 	bl	15030 <__lll_lock_wait_private>
    d534:	e59f61cc 	ldr	r6, [pc, #460]	; d708 <arena_get2+0x35c>
    d538:	eaffffea 	b	d4e8 <arena_get2+0x13c>
    d53c:	e59f61c4 	ldr	r6, [pc, #452]	; d708 <arena_get2+0x35c>
    d540:	e1a07006 	mov	r7, r6
    d544:	eaffff9f 	b	d3c8 <arena_get2+0x1c>
    d548:	e59f71b8 	ldr	r7, [pc, #440]	; d708 <arena_get2+0x35c>
    d54c:	e2880e46 	add	r0, r8, #1120	; 0x460
    d550:	e2800004 	add	r0, r0, #4
    d554:	e5971464 	ldr	r1, [r7, #1124]	; 0x464
    d558:	ebffff29 	bl	d204 <new_heap>
    d55c:	e3500000 	cmp	r0, #0
    d560:	0a000060 	beq	d6e8 <arena_get2+0x33c>
    d564:	e2806010 	add	r6, r0, #16
    d568:	e1a01000 	mov	r1, r0
    d56c:	e4816048 	str	r6, [r1], #72	; 0x48
    d570:	e3e02007 	mvn	r2, #7
    d574:	e0813002 	add	r3, r1, r2
    d578:	e2822008 	add	r2, r2, #8
    d57c:	e3520e3f 	cmp	r2, #1008	; 0x3f0
    d580:	e583300c 	str	r3, [r3, #12]
    d584:	e5833008 	str	r3, [r3, #8]
    d588:	1afffff9 	bne	d574 <arena_get2+0x1c8>
    d58c:	e596c004 	ldr	ip, [r6, #4]
    d590:	e1560007 	cmp	r6, r7
    d594:	e2862d11 	add	r2, r6, #1088	; 0x440
    d598:	03a03040 	moveq	r3, #64	; 0x40
    d59c:	e2821014 	add	r1, r2, #20
    d5a0:	05863490 	streq	r3, [r6, #1168]	; 0x490
    d5a4:	e597e4c0 	ldr	lr, [r7, #1216]	; 0x4c0
    d5a8:	e5903008 	ldr	r3, [r0, #8]
    d5ac:	138cc002 	orrne	ip, ip, #2
    d5b0:	e2111007 	ands	r1, r1, #7
    d5b4:	e282200c 	add	r2, r2, #12
    d5b8:	12611008 	rsbne	r1, r1, #8
    d5bc:	10822001 	addne	r2, r2, r1
    d5c0:	e08ee003 	add	lr, lr, r3
    d5c4:	e5863448 	str	r3, [r6, #1096]	; 0x448
    d5c8:	e5863444 	str	r3, [r6, #1092]	; 0x444
    d5cc:	e0803003 	add	r3, r0, r3
    d5d0:	e0621003 	rsb	r1, r2, r3
    d5d4:	e38cc001 	orr	ip, ip, #1
    d5d8:	e3811001 	orr	r1, r1, #1
    d5dc:	e59f312c 	ldr	r3, [pc, #300]	; d710 <arena_get2+0x364>
    d5e0:	e586c004 	str	ip, [r6, #4]
    d5e4:	e5862030 	str	r2, [r6, #48]	; 0x30
    d5e8:	e587e4c0 	str	lr, [r7, #1216]	; 0x4c0
    d5ec:	e5821004 	str	r1, [r2, #4]
    d5f0:	e79f3003 	ldr	r3, [pc, r3]
    d5f4:	e3a04000 	mov	r4, #0
    d5f8:	ebffed3c 	bl	8af0 <__aeabi_read_tp>
    d5fc:	e7806003 	str	r6, [r0, r3]
    d600:	e5864000 	str	r4, [r6]
    d604:	e3a01001 	mov	r1, #1
    d608:	e1a02006 	mov	r2, r6
    d60c:	e5923000 	ldr	r3, [r2]
    d610:	e1530004 	cmp	r3, r4
    d614:	1a000005 	bne	d630 <arena_get2+0x284>
    d618:	e1a00004 	mov	r0, r4
    d61c:	e3e03a0f 	mvn	r3, #61440	; 0xf000
    d620:	e1a0e00f 	mov	lr, pc
    d624:	e243f03f 	sub	pc, r3, #63	; 0x3f
    d628:	3afffff7 	bcc	d60c <arena_get2+0x260>
    d62c:	e1a03004 	mov	r3, r4
    d630:	e1530004 	cmp	r3, r4
    d634:	1a000028 	bne	d6dc <arena_get2+0x330>
    d638:	e5973440 	ldr	r3, [r7, #1088]	; 0x440
    d63c:	e5863440 	str	r3, [r6, #1088]	; 0x440
    d640:	e3e0ca0f 	mvn	ip, #61440	; 0xf000
    d644:	e1a0e00f 	mov	lr, pc
    d648:	e24cf05f 	sub	pc, ip, #95	; 0x5f
    d64c:	e5876440 	str	r6, [r7, #1088]	; 0x440
    d650:	e5975458 	ldr	r5, [r7, #1112]	; 0x458
    d654:	e3a01000 	mov	r1, #0
    d658:	e59f20a4 	ldr	r2, [pc, #164]	; d704 <arena_get2+0x358>
    d65c:	e1a04005 	mov	r4, r5
    d660:	e5923000 	ldr	r3, [r2]
    d664:	e1530004 	cmp	r3, r4
    d668:	1a000005 	bne	d684 <arena_get2+0x2d8>
    d66c:	e1a00004 	mov	r0, r4
    d670:	e3e03a0f 	mvn	r3, #61440	; 0xf000
    d674:	e1a0e00f 	mov	lr, pc
    d678:	e243f03f 	sub	pc, r3, #63	; 0x3f
    d67c:	3afffff7 	bcc	d660 <arena_get2+0x2b4>
    d680:	e1a03004 	mov	r3, r4
    d684:	e1550003 	cmp	r5, r3
    d688:	1afffff0 	bne	d650 <arena_get2+0x2a4>
    d68c:	e3550001 	cmp	r5, #1
    d690:	daffff94 	ble	d4e8 <arena_get2+0x13c>
    d694:	ebffed15 	bl	8af0 <__aeabi_read_tp>
    d698:	e51014b8 	ldr	r1, [r0, #-1208]	; 0x4b8
    d69c:	e3a03000 	mov	r3, #0
    d6a0:	e1a00002 	mov	r0, r2
    d6a4:	e3811001 	orr	r1, r1, #1
    d6a8:	e3a02001 	mov	r2, #1
    d6ac:	e3a070f0 	mov	r7, #240	; 0xf0
    d6b0:	ef000000 	svc	0x00000000
    d6b4:	eaffff8b 	b	d4e8 <arena_get2+0x13c>
    d6b8:	ebffed0c 	bl	8af0 <__aeabi_read_tp>
    d6bc:	e51014b8 	ldr	r1, [r0, #-1208]	; 0x4b8
    d6c0:	e3a03000 	mov	r3, #0
    d6c4:	e1a00002 	mov	r0, r2
    d6c8:	e3811001 	orr	r1, r1, #1
    d6cc:	e3a02001 	mov	r2, #1
    d6d0:	e3a070f0 	mov	r7, #240	; 0xf0
    d6d4:	ef000000 	svc	0x00000000
    d6d8:	eaffff7e 	b	d4d8 <arena_get2+0x12c>
    d6dc:	e1a00006 	mov	r0, r6
    d6e0:	eb001e52 	bl	15030 <__lll_lock_wait_private>
    d6e4:	eaffffd3 	b	d638 <arena_get2+0x28c>
    d6e8:	e59f0024 	ldr	r0, [pc, #36]	; d714 <arena_get2+0x368>
    d6ec:	e5971464 	ldr	r1, [r7, #1124]	; 0x464
    d6f0:	ebfffec3 	bl	d204 <new_heap>
    d6f4:	e3500000 	cmp	r0, #0
    d6f8:	01a06000 	moveq	r6, r0
    d6fc:	1affff98 	bne	d564 <arena_get2+0x1b8>
    d700:	eaffffd2 	b	d650 <arena_get2+0x2a4>
    d704:	00084db8 	.word	0x00084db8
    d708:	00084960 	.word	0x00084960
    d70c:	00076450 	.word	0x00076450
    d710:	00076340 	.word	0x00076340
    d714:	00000464 	.word	0x00000464

0000d718 <mi_arena.11083>:
    d718:	e92d4ff0 	push	{r4, r5, r6, r7, r8, r9, sl, fp, lr}
    d71c:	e59c2024 	ldr	r2, [ip, #36]	; 0x24
    d720:	e24dde8b 	sub	sp, sp, #2224	; 0x8b0
    d724:	e24dd004 	sub	sp, sp, #4
    d728:	e2823001 	add	r3, r2, #1
    d72c:	e58d0014 	str	r0, [sp, #20]
    d730:	e58c3024 	str	r3, [ip, #36]	; 0x24
    d734:	e59c0020 	ldr	r0, [ip, #32]
    d738:	e59f1404 	ldr	r1, [pc, #1028]	; db44 <mi_arena.11083+0x42c>
    d73c:	e1a0a00c 	mov	sl, ip
    d740:	e3a04000 	mov	r4, #0
    d744:	eb005fd3 	bl	25698 <__fprintf>
    d748:	e3a01001 	mov	r1, #1
    d74c:	e59d2014 	ldr	r2, [sp, #20]
    d750:	e5923000 	ldr	r3, [r2]
    d754:	e1530004 	cmp	r3, r4
    d758:	1a000005 	bne	d774 <mi_arena.11083+0x5c>
    d75c:	e1a00004 	mov	r0, r4
    d760:	e3e03a0f 	mvn	r3, #61440	; 0xf000
    d764:	e1a0e00f 	mov	lr, pc
    d768:	e243f03f 	sub	pc, r3, #63	; 0x3f
    d76c:	3afffff7 	bcc	d750 <mi_arena.11083+0x38>
    d770:	e1a03004 	mov	r3, r4
    d774:	e1530004 	cmp	r3, r4
    d778:	1a0000ee 	bne	db38 <mi_arena.11083+0x420>
    d77c:	e59d2014 	ldr	r2, [sp, #20]
    d780:	e28d3020 	add	r3, sp, #32
    d784:	e3a01000 	mov	r1, #0
    d788:	e282c004 	add	ip, r2, #4
    d78c:	e3a02000 	mov	r2, #0
    d790:	e58d1018 	str	r1, [sp, #24]
    d794:	e1a05003 	mov	r5, r3
    d798:	e2831008 	add	r1, r3, #8
    d79c:	e283e0a8 	add	lr, r3, #168	; 0xa8
    d7a0:	e58d201c 	str	r2, [sp, #28]
    d7a4:	e1a04002 	mov	r4, r2
    d7a8:	e1a06002 	mov	r6, r2
    d7ac:	e5bc3004 	ldr	r3, [ip, #4]!
    d7b0:	e3530000 	cmp	r3, #0
    d7b4:	0a0000b9 	beq	daa0 <mi_arena.11083+0x388>
    d7b8:	e5930004 	ldr	r0, [r3, #4]
    d7bc:	e3a02000 	mov	r2, #0
    d7c0:	e3c00007 	bic	r0, r0, #7
    d7c4:	e5933008 	ldr	r3, [r3, #8]
    d7c8:	e2822001 	add	r2, r2, #1
    d7cc:	e3530000 	cmp	r3, #0
    d7d0:	1afffffb 	bne	d7c4 <mi_arena.11083+0xac>
    d7d4:	e0266290 	mla	r6, r0, r2, r6
    d7d8:	e2403007 	sub	r3, r0, #7
    d7dc:	e0844002 	add	r4, r4, r2
    d7e0:	e5013008 	str	r3, [r1, #-8]
    d7e4:	e5010004 	str	r0, [r1, #-4]
    d7e8:	e5812004 	str	r2, [r1, #4]
    d7ec:	e5113004 	ldr	r3, [r1, #-4]
    d7f0:	e0020293 	mul	r2, r3, r2
    d7f4:	e4812010 	str	r2, [r1], #16
    d7f8:	e151000e 	cmp	r1, lr
    d7fc:	1affffea 	bne	d7ac <mi_arena.11083+0x94>
    d800:	e59d3014 	ldr	r3, [sp, #20]
    d804:	e58d6018 	str	r6, [sp, #24]
    d808:	e283e030 	add	lr, r3, #48	; 0x30
    d80c:	e59e6008 	ldr	r6, [lr, #8]
    d810:	e58d401c 	str	r4, [sp, #28]
    d814:	e3560000 	cmp	r6, #0
    d818:	e2834038 	add	r4, r3, #56	; 0x38
    d81c:	01a08006 	moveq	r8, r6
    d820:	0a000014 	beq	d878 <mi_arena.11083+0x160>
    d824:	e15e0006 	cmp	lr, r6
    d828:	0a000010 	beq	d870 <mi_arena.11083+0x158>
    d82c:	e59dc0cc 	ldr	ip, [sp, #204]	; 0xcc
    d830:	e59d00c8 	ldr	r0, [sp, #200]	; 0xc8
    d834:	e59d10c0 	ldr	r1, [sp, #192]	; 0xc0
    d838:	e59d20c4 	ldr	r2, [sp, #196]	; 0xc4
    d83c:	e9960048 	ldmib	r6, {r3, r6}
    d840:	e1510003 	cmp	r1, r3
    d844:	21a01003 	movcs	r1, r3
    d848:	e1520003 	cmp	r2, r3
    d84c:	31a02003 	movcc	r2, r3
    d850:	e15e0006 	cmp	lr, r6
    d854:	e28cc001 	add	ip, ip, #1
    d858:	e0800003 	add	r0, r0, r3
    d85c:	1afffff6 	bne	d83c <mi_arena.11083+0x124>
    d860:	e58dc0cc 	str	ip, [sp, #204]	; 0xcc
    d864:	e58d00c8 	str	r0, [sp, #200]	; 0xc8
    d868:	e58d10c0 	str	r1, [sp, #192]	; 0xc0
    d86c:	e58d20c4 	str	r2, [sp, #196]	; 0xc4
    d870:	e59d80cc 	ldr	r8, [sp, #204]	; 0xcc
    d874:	e59d60c8 	ldr	r6, [sp, #200]	; 0xc8
    d878:	e284be3f 	add	fp, r4, #1008	; 0x3f0
    d87c:	e3e09000 	mvn	r9, #0
    d880:	e3a07000 	mov	r7, #0
    d884:	e5943008 	ldr	r3, [r4, #8]
    d888:	e58590b0 	str	r9, [r5, #176]	; 0xb0
    d88c:	e3530000 	cmp	r3, #0
    d890:	e58570bc 	str	r7, [r5, #188]	; 0xbc
    d894:	e58570b8 	str	r7, [r5, #184]	; 0xb8
    d898:	e58570b4 	str	r7, [r5, #180]	; 0xb4
    d89c:	0a000012 	beq	d8ec <mi_arena.11083+0x1d4>
    d8a0:	e1530004 	cmp	r3, r4
    d8a4:	0a000010 	beq	d8ec <mi_arena.11083+0x1d4>
    d8a8:	e1a0e009 	mov	lr, r9
    d8ac:	e1a0c007 	mov	ip, r7
    d8b0:	e1a00007 	mov	r0, r7
    d8b4:	e1a01007 	mov	r1, r7
    d8b8:	e993000c 	ldmib	r3, {r2, r3}
    d8bc:	e15e0002 	cmp	lr, r2
    d8c0:	21a0e002 	movcs	lr, r2
    d8c4:	e1510002 	cmp	r1, r2
    d8c8:	31a01002 	movcc	r1, r2
    d8cc:	e1530004 	cmp	r3, r4
    d8d0:	e28cc001 	add	ip, ip, #1
    d8d4:	e0800002 	add	r0, r0, r2
    d8d8:	1afffff6 	bne	d8b8 <mi_arena.11083+0x1a0>
    d8dc:	e585e0b0 	str	lr, [r5, #176]	; 0xb0
    d8e0:	e585c0bc 	str	ip, [r5, #188]	; 0xbc
    d8e4:	e58500b8 	str	r0, [r5, #184]	; 0xb8
    d8e8:	e58510b4 	str	r1, [r5, #180]	; 0xb4
    d8ec:	e59530bc 	ldr	r3, [r5, #188]	; 0xbc
    d8f0:	e59520b8 	ldr	r2, [r5, #184]	; 0xb8
    d8f4:	e3530000 	cmp	r3, #0
    d8f8:	e2844008 	add	r4, r4, #8
    d8fc:	058530b0 	streq	r3, [r5, #176]	; 0xb0
    d900:	e154000b 	cmp	r4, fp
    d904:	e0888003 	add	r8, r8, r3
    d908:	e0866002 	add	r6, r6, r2
    d90c:	e2855010 	add	r5, r5, #16
    d910:	1affffdb 	bne	d884 <mi_arena.11083+0x16c>
    d914:	e59d7014 	ldr	r7, [sp, #20]
    d918:	e5975000 	ldr	r5, [r7]
    d91c:	e3a01000 	mov	r1, #0
    d920:	e1a02007 	mov	r2, r7
    d924:	e1a04005 	mov	r4, r5
    d928:	e5923000 	ldr	r3, [r2]
    d92c:	e1530004 	cmp	r3, r4
    d930:	1a000005 	bne	d94c <mi_arena.11083+0x234>
    d934:	e1a00004 	mov	r0, r4
    d938:	e3e03a0f 	mvn	r3, #61440	; 0xf000
    d93c:	e1a0e00f 	mov	lr, pc
    d940:	e243f03f 	sub	pc, r3, #63	; 0x3f
    d944:	3afffff7 	bcc	d928 <mi_arena.11083+0x210>
    d948:	e1a03004 	mov	r3, r4
    d94c:	e1550003 	cmp	r5, r3
    d950:	1afffff0 	bne	d918 <mi_arena.11083+0x200>
    d954:	e3550001 	cmp	r5, #1
    d958:	e58d7014 	str	r7, [sp, #20]
    d95c:	ca00006c 	bgt	db14 <mi_arena.11083+0x3fc>
    d960:	e59a001c 	ldr	r0, [sl, #28]
    d964:	e59dc01c 	ldr	ip, [sp, #28]
    d968:	e59a1018 	ldr	r1, [sl, #24]
    d96c:	e080000c 	add	r0, r0, ip
    d970:	e59dc018 	ldr	ip, [sp, #24]
    d974:	e59a2014 	ldr	r2, [sl, #20]
    d978:	e59a3010 	ldr	r3, [sl, #16]
    d97c:	e081100c 	add	r1, r1, ip
    d980:	e0822008 	add	r2, r2, r8
    d984:	e0833006 	add	r3, r3, r6
    d988:	e58a1018 	str	r1, [sl, #24]
    d98c:	e28d1020 	add	r1, sp, #32
    d990:	e58a001c 	str	r0, [sl, #28]
    d994:	e58a2014 	str	r2, [sl, #20]
    d998:	e58a3010 	str	r3, [sl, #16]
    d99c:	e281500c 	add	r5, r1, #12
    d9a0:	e3a04000 	mov	r4, #0
    d9a4:	ea000002 	b	d9b4 <mi_arena.11083+0x29c>
    d9a8:	e3540089 	cmp	r4, #137	; 0x89
    d9ac:	e2855010 	add	r5, r5, #16
    d9b0:	0a00000d 	beq	d9ec <mi_arena.11083+0x2d4>
    d9b4:	e595c000 	ldr	ip, [r5]
    d9b8:	e354000a 	cmp	r4, #10
    d9bc:	135c0000 	cmpne	ip, #0
    d9c0:	e2844001 	add	r4, r4, #1
    d9c4:	0afffff7 	beq	d9a8 <mi_arena.11083+0x290>
    d9c8:	e915400c 	ldmdb	r5, {r2, r3, lr}
    d9cc:	e59a0020 	ldr	r0, [sl, #32]
    d9d0:	e59f1170 	ldr	r1, [pc, #368]	; db48 <mi_arena.11083+0x430>
    d9d4:	e58de000 	str	lr, [sp]
    d9d8:	e58dc004 	str	ip, [sp, #4]
    d9dc:	eb005f2d 	bl	25698 <__fprintf>
    d9e0:	e3540089 	cmp	r4, #137	; 0x89
    d9e4:	e2855010 	add	r5, r5, #16
    d9e8:	1afffff1 	bne	d9b4 <mi_arena.11083+0x29c>
    d9ec:	e59d30cc 	ldr	r3, [sp, #204]	; 0xcc
    d9f0:	e3530000 	cmp	r3, #0
    d9f4:	1a00002e 	bne	dab4 <mi_arena.11083+0x39c>
    d9f8:	e59d1014 	ldr	r1, [sp, #20]
    d9fc:	e59a200c 	ldr	r2, [sl, #12]
    da00:	e591c444 	ldr	ip, [r1, #1092]	; 0x444
    da04:	e591e448 	ldr	lr, [r1, #1096]	; 0x448
    da08:	e59a3008 	ldr	r3, [sl, #8]
    da0c:	e082200c 	add	r2, r2, ip
    da10:	e083300e 	add	r3, r3, lr
    da14:	e58a200c 	str	r2, [sl, #12]
    da18:	e58a3008 	str	r3, [sl, #8]
    da1c:	e59a0020 	ldr	r0, [sl, #32]
    da20:	e59d201c 	ldr	r2, [sp, #28]
    da24:	e59d3018 	ldr	r3, [sp, #24]
    da28:	e59f111c 	ldr	r1, [pc, #284]	; db4c <mi_arena.11083+0x434>
    da2c:	e58d8000 	str	r8, [sp]
    da30:	e98d5040 	stmib	sp, {r6, ip, lr}
    da34:	eb005f17 	bl	25698 <__fprintf>
    da38:	e59f3110 	ldr	r3, [pc, #272]	; db50 <mi_arena.11083+0x438>
    da3c:	e59d2014 	ldr	r2, [sp, #20]
    da40:	e1520003 	cmp	r2, r3
    da44:	0a000023 	beq	dad8 <mi_arena.11083+0x3c0>
    da48:	e5924030 	ldr	r4, [r2, #48]	; 0x30
    da4c:	e59f1100 	ldr	r1, [pc, #256]	; db54 <mi_arena.11083+0x43c>
    da50:	e1a04a24 	lsr	r4, r4, #20
    da54:	e1a04a04 	lsl	r4, r4, #20
    da58:	e5942008 	ldr	r2, [r4, #8]
    da5c:	e594300c 	ldr	r3, [r4, #12]
    da60:	e59a0020 	ldr	r0, [sl, #32]
    da64:	eb005f0b 	bl	25698 <__fprintf>
    da68:	e5942008 	ldr	r2, [r4, #8]
    da6c:	e594300c 	ldr	r3, [r4, #12]
    da70:	e59a0004 	ldr	r0, [sl, #4]
    da74:	e59a1000 	ldr	r1, [sl]
    da78:	e0802002 	add	r2, r0, r2
    da7c:	e0813003 	add	r3, r1, r3
    da80:	e58a2004 	str	r2, [sl, #4]
    da84:	e58a3000 	str	r3, [sl]
    da88:	e59f00c8 	ldr	r0, [pc, #200]	; db58 <mi_arena.11083+0x440>
    da8c:	e59a1020 	ldr	r1, [sl, #32]
    da90:	e28dd0b4 	add	sp, sp, #180	; 0xb4
    da94:	e28ddb02 	add	sp, sp, #2048	; 0x800
    da98:	e8bd4ff0 	pop	{r4, r5, r6, r7, r8, r9, sl, fp, lr}
    da9c:	ea006348 	b	267c4 <_IO_fputs>
    daa0:	e5813004 	str	r3, [r1, #4]
    daa4:	e5013004 	str	r3, [r1, #-4]
    daa8:	e5013008 	str	r3, [r1, #-8]
    daac:	e1a02003 	mov	r2, r3
    dab0:	eaffff4d 	b	d7ec <mi_arena.11083+0xd4>
    dab4:	e58d3004 	str	r3, [sp, #4]
    dab8:	e59d30c8 	ldr	r3, [sp, #200]	; 0xc8
    dabc:	e59f1098 	ldr	r1, [pc, #152]	; db5c <mi_arena.11083+0x444>
    dac0:	e58d3000 	str	r3, [sp]
    dac4:	e59a0020 	ldr	r0, [sl, #32]
    dac8:	e59d20c0 	ldr	r2, [sp, #192]	; 0xc0
    dacc:	e59d30c4 	ldr	r3, [sp, #196]	; 0xc4
    dad0:	eb005ef0 	bl	25698 <__fprintf>
    dad4:	eaffffc7 	b	d9f8 <mi_arena.11083+0x2e0>
    dad8:	e59d3014 	ldr	r3, [sp, #20]
    dadc:	e59f1070 	ldr	r1, [pc, #112]	; db54 <mi_arena.11083+0x43c>
    dae0:	e5932444 	ldr	r2, [r3, #1092]	; 0x444
    dae4:	e59a0020 	ldr	r0, [sl, #32]
    dae8:	e1a03002 	mov	r3, r2
    daec:	eb005ee9 	bl	25698 <__fprintf>
    daf0:	e59dc014 	ldr	ip, [sp, #20]
    daf4:	e59a2004 	ldr	r2, [sl, #4]
    daf8:	e59c3444 	ldr	r3, [ip, #1092]	; 0x444
    dafc:	e59a1000 	ldr	r1, [sl]
    db00:	e0822003 	add	r2, r2, r3
    db04:	e0813003 	add	r3, r1, r3
    db08:	e58a2004 	str	r2, [sl, #4]
    db0c:	e58a3000 	str	r3, [sl]
    db10:	eaffffdc 	b	da88 <mi_arena.11083+0x370>
    db14:	ebffebf5 	bl	8af0 <__aeabi_read_tp>
    db18:	e51014b8 	ldr	r1, [r0, #-1208]	; 0x4b8
    db1c:	e3a02001 	mov	r2, #1
    db20:	e1a00007 	mov	r0, r7
    db24:	e1811002 	orr	r1, r1, r2
    db28:	e3a03000 	mov	r3, #0
    db2c:	e3a070f0 	mov	r7, #240	; 0xf0
    db30:	ef000000 	svc	0x00000000
    db34:	eaffff89 	b	d960 <mi_arena.11083+0x248>
    db38:	e59d0014 	ldr	r0, [sp, #20]
    db3c:	eb001d3b 	bl	15030 <__lll_lock_wait_private>
    db40:	eaffff0d 	b	d77c <mi_arena.11083+0x64>
    db44:	00065cac 	.word	0x00065cac
    db48:	00065cc4 	.word	0x00065cc4
    db4c:	00065d38 	.word	0x00065d38
    db50:	00084960 	.word	0x00084960
    db54:	00065de0 	.word	0x00065de0
    db58:	00065e28 	.word	0x00065e28
    db5c:	00065cfc 	.word	0x00065cfc

0000db60 <mremap_chunk>:
    db60:	e92d45f8 	push	{r3, r4, r5, r6, r7, r8, sl, lr}
    db64:	e59f713c 	ldr	r7, [pc, #316]	; dca8 <mremap_chunk+0x148>
    db68:	e5908004 	ldr	r8, [r0, #4]
    db6c:	e597547c 	ldr	r5, [r7, #1148]	; 0x47c
    db70:	e3180002 	tst	r8, #2
    db74:	e2455001 	sub	r5, r5, #1
    db78:	e1a04000 	mov	r4, r0
    db7c:	e1a0a001 	mov	sl, r1
    db80:	e5906000 	ldr	r6, [r0]
    db84:	e3c88007 	bic	r8, r8, #7
    db88:	11a03005 	movne	r3, r5
    db8c:	0a00000a 	beq	dbbc <mremap_chunk+0x5c>
    db90:	e0888006 	add	r8, r8, r6
    db94:	e1130008 	tst	r3, r8
    db98:	1a000011 	bne	dbe4 <mremap_chunk+0x84>
    db9c:	e2863004 	add	r3, r6, #4
    dba0:	e0833005 	add	r3, r3, r5
    dba4:	e083a00a 	add	sl, r3, sl
    dba8:	e1ca5005 	bic	r5, sl, r5
    dbac:	e1580005 	cmp	r8, r5
    dbb0:	1a000016 	bne	dc10 <mremap_chunk+0xb0>
    dbb4:	e1a00004 	mov	r0, r4
    dbb8:	e8bd85f8 	pop	{r3, r4, r5, r6, r7, r8, sl, pc}
    dbbc:	e59f30e8 	ldr	r3, [pc, #232]	; dcac <mremap_chunk+0x14c>
    dbc0:	e59f00e8 	ldr	r0, [pc, #232]	; dcb0 <mremap_chunk+0x150>
    dbc4:	e59f10e8 	ldr	r1, [pc, #232]	; dcb4 <mremap_chunk+0x154>
    dbc8:	e59f20e8 	ldr	r2, [pc, #232]	; dcb8 <mremap_chunk+0x158>
    dbcc:	ebfffa62 	bl	c55c <__malloc_assert>
    dbd0:	e597347c 	ldr	r3, [r7, #1148]	; 0x47c
    dbd4:	e0888006 	add	r8, r8, r6
    dbd8:	e2433001 	sub	r3, r3, #1
    dbdc:	e1130008 	tst	r3, r8
    dbe0:	0affffed 	beq	db9c <mremap_chunk+0x3c>
    dbe4:	e59f30c0 	ldr	r3, [pc, #192]	; dcac <mremap_chunk+0x14c>
    dbe8:	e59f00cc 	ldr	r0, [pc, #204]	; dcbc <mremap_chunk+0x15c>
    dbec:	e59f10c0 	ldr	r1, [pc, #192]	; dcb4 <mremap_chunk+0x154>
    dbf0:	e59f20c8 	ldr	r2, [pc, #200]	; dcc0 <mremap_chunk+0x160>
    dbf4:	ebfffa58 	bl	c55c <__malloc_assert>
    dbf8:	e2863004 	add	r3, r6, #4
    dbfc:	e0833005 	add	r3, r3, r5
    dc00:	e083a00a 	add	sl, r3, sl
    dc04:	e1ca5005 	bic	r5, sl, r5
    dc08:	e1580005 	cmp	r8, r5
    dc0c:	0affffe8 	beq	dbb4 <mremap_chunk+0x54>
    dc10:	e0660004 	rsb	r0, r6, r4
    dc14:	e1a01008 	mov	r1, r8
    dc18:	e1a02005 	mov	r2, r5
    dc1c:	e3a03001 	mov	r3, #1
    dc20:	eb001ca6 	bl	14ec0 <__mremap>
    dc24:	e3700001 	cmn	r0, #1
    dc28:	e1a0a000 	mov	sl, r0
    dc2c:	03a04000 	moveq	r4, #0
    dc30:	0affffdf 	beq	dbb4 <mremap_chunk+0x54>
    dc34:	e0804006 	add	r4, r0, r6
    dc38:	e3140007 	tst	r4, #7
    dc3c:	1a000013 	bne	dc90 <mremap_chunk+0x130>
    dc40:	e79a3006 	ldr	r3, [sl, r6]
    dc44:	e1530006 	cmp	r3, r6
    dc48:	0a000004 	beq	dc60 <mremap_chunk+0x100>
    dc4c:	e59f0070 	ldr	r0, [pc, #112]	; dcc4 <mremap_chunk+0x164>
    dc50:	e59f105c 	ldr	r1, [pc, #92]	; dcb4 <mremap_chunk+0x154>
    dc54:	e59f206c 	ldr	r2, [pc, #108]	; dcc8 <mremap_chunk+0x168>
    dc58:	e59f304c 	ldr	r3, [pc, #76]	; dcac <mremap_chunk+0x14c>
    dc5c:	ebfffa3e 	bl	c55c <__malloc_assert>
    dc60:	e5972480 	ldr	r2, [r7, #1152]	; 0x480
    dc64:	e5973484 	ldr	r3, [r7, #1156]	; 0x484
    dc68:	e0688002 	rsb	r8, r8, r2
    dc6c:	e0888005 	add	r8, r8, r5
    dc70:	e1580003 	cmp	r8, r3
    dc74:	e0665005 	rsb	r5, r6, r5
    dc78:	859f3028 	ldrhi	r3, [pc, #40]	; dca8 <mremap_chunk+0x148>
    dc7c:	e3855002 	orr	r5, r5, #2
    dc80:	e5845004 	str	r5, [r4, #4]
    dc84:	e5878480 	str	r8, [r7, #1152]	; 0x480
    dc88:	85838484 	strhi	r8, [r3, #1156]	; 0x484
    dc8c:	eaffffc8 	b	dbb4 <mremap_chunk+0x54>
    dc90:	e59f0034 	ldr	r0, [pc, #52]	; dccc <mremap_chunk+0x16c>
    dc94:	e59f1018 	ldr	r1, [pc, #24]	; dcb4 <mremap_chunk+0x154>
    dc98:	e59f2030 	ldr	r2, [pc, #48]	; dcd0 <mremap_chunk+0x170>
    dc9c:	e59f3008 	ldr	r3, [pc, #8]	; dcac <mremap_chunk+0x14c>
    dca0:	ebfffa2d 	bl	c55c <__malloc_assert>
    dca4:	eaffffe5 	b	dc40 <mremap_chunk+0xe0>
    dca8:	00084960 	.word	0x00084960
    dcac:	00066fa0 	.word	0x00066fa0
    dcb0:	00065c4c 	.word	0x00065c4c
    dcb4:	00065b68 	.word	0x00065b68
    dcb8:	00000df1 	.word	0x00000df1
    dcbc:	00065e34 	.word	0x00065e34
    dcc0:	00000df6 	.word	0x00000df6
    dcc4:	00065ec4 	.word	0x00065ec4
    dcc8:	00000e08 	.word	0x00000e08
    dccc:	00065e60 	.word	0x00065e60
    dcd0:	00000e06 	.word	0x00000e06

0000dcd4 <sYSTRIm.clone.0>:
    dcd4:	e92d45f8 	push	{r3, r4, r5, r6, r7, r8, sl, lr}
    dcd8:	e5913000 	ldr	r3, [r1]
    dcdc:	e1a06001 	mov	r6, r1
    dce0:	e59f10c4 	ldr	r1, [pc, #196]	; ddac <sYSTRIm.clone.0+0xd8>
    dce4:	e5935004 	ldr	r5, [r3, #4]
    dce8:	e591447c 	ldr	r4, [r1, #1148]	; 0x47c
    dcec:	e3c55007 	bic	r5, r5, #7
    dcf0:	e2443011 	sub	r3, r4, #17
    dcf4:	e0833005 	add	r3, r3, r5
    dcf8:	e1a01004 	mov	r1, r4
    dcfc:	e0600003 	rsb	r0, r0, r3
    dd00:	e1a07002 	mov	r7, r2
    dd04:	fa015387 	blx	62b28 <__aeabi_uidiv>
    dd08:	e2400001 	sub	r0, r0, #1
    dd0c:	e0040490 	mul	r4, r0, r4
    dd10:	e3540000 	cmp	r4, #0
    dd14:	d3a00000 	movle	r0, #0
    dd18:	d8bd85f8 	pople	{r3, r4, r5, r6, r7, r8, sl, pc}
    dd1c:	e59f808c 	ldr	r8, [pc, #140]	; ddb0 <sYSTRIm.clone.0+0xdc>
    dd20:	e3a00000 	mov	r0, #0
    dd24:	e5983008 	ldr	r3, [r8, #8]
    dd28:	e12fff33 	blx	r3
    dd2c:	e5963000 	ldr	r3, [r6]
    dd30:	e1a0a000 	mov	sl, r0
    dd34:	e0833005 	add	r3, r3, r5
    dd38:	e1500003 	cmp	r0, r3
    dd3c:	0a000001 	beq	dd48 <sYSTRIm.clone.0+0x74>
    dd40:	e3a00000 	mov	r0, #0
    dd44:	e8bd85f8 	pop	{r3, r4, r5, r6, r7, r8, sl, pc}
    dd48:	e5983008 	ldr	r3, [r8, #8]
    dd4c:	e2640000 	rsb	r0, r4, #0
    dd50:	e12fff33 	blx	r3
    dd54:	e59f3058 	ldr	r3, [pc, #88]	; ddb4 <sYSTRIm.clone.0+0xe0>
    dd58:	e5933000 	ldr	r3, [r3]
    dd5c:	e3530000 	cmp	r3, #0
    dd60:	1a00000f 	bne	dda4 <sYSTRIm.clone.0+0xd0>
    dd64:	e5983008 	ldr	r3, [r8, #8]
    dd68:	e3a00000 	mov	r0, #0
    dd6c:	e12fff33 	blx	r3
    dd70:	e3500000 	cmp	r0, #0
    dd74:	08bd85f8 	popeq	{r3, r4, r5, r6, r7, r8, sl, pc}
    dd78:	e05a0000 	subs	r0, sl, r0
    dd7c:	08bd85f8 	popeq	{r3, r4, r5, r6, r7, r8, sl, pc}
    dd80:	e5972000 	ldr	r2, [r7]
    dd84:	e5963000 	ldr	r3, [r6]
    dd88:	e0605005 	rsb	r5, r0, r5
    dd8c:	e3855001 	orr	r5, r5, #1
    dd90:	e0600002 	rsb	r0, r0, r2
    dd94:	e5870000 	str	r0, [r7]
    dd98:	e3a00001 	mov	r0, #1
    dd9c:	e5835004 	str	r5, [r3, #4]
    dda0:	e8bd85f8 	pop	{r3, r4, r5, r6, r7, r8, sl, pc}
    dda4:	e12fff33 	blx	r3
    dda8:	eaffffed 	b	dd64 <sYSTRIm.clone.0+0x90>
    ddac:	00084960 	.word	0x00084960
    ddb0:	00083dd4 	.word	0x00083dd4
    ddb4:	00084e2c 	.word	0x00084e2c

0000ddb8 <_int_free>:
    ddb8:	e92d4ff0 	push	{r4, r5, r6, r7, r8, r9, sl, fp, lr}
    ddbc:	e5913004 	ldr	r3, [r1, #4]
    ddc0:	e24dd01c 	sub	sp, sp, #28
    ddc4:	e3c36007 	bic	r6, r3, #7
    ddc8:	e2662000 	rsb	r2, r6, #0
    ddcc:	e1510002 	cmp	r1, r2
    ddd0:	e1a05001 	mov	r5, r1
    ddd4:	e1a04000 	mov	r4, r0
    ddd8:	8a000158 	bhi	e340 <_int_free+0x588>
    dddc:	e3110007 	tst	r1, #7
    dde0:	1a000156 	bne	e340 <_int_free+0x588>
    dde4:	e356000f 	cmp	r6, #15
    dde8:	9a000163 	bls	e37c <_int_free+0x5c4>
    ddec:	e59f7840 	ldr	r7, [pc, #2112]	; e634 <_int_free+0x87c>
    ddf0:	e5972490 	ldr	r2, [r7, #1168]	; 0x490
    ddf4:	e1560002 	cmp	r6, r2
    ddf8:	8a00001e 	bhi	de78 <_int_free+0xc0>
    ddfc:	e0813006 	add	r3, r1, r6
    de00:	e5933004 	ldr	r3, [r3, #4]
    de04:	e3530008 	cmp	r3, #8
    de08:	9a00015d 	bls	e384 <_int_free+0x5cc>
    de0c:	e5902444 	ldr	r2, [r0, #1092]	; 0x444
    de10:	e3c33007 	bic	r3, r3, #7
    de14:	e1530002 	cmp	r3, r2
    de18:	2a000159 	bcs	e384 <_int_free+0x5cc>
    de1c:	e5973494 	ldr	r3, [r7, #1172]	; 0x494
    de20:	e3530000 	cmp	r3, #0
    de24:	1a000181 	bne	e430 <_int_free+0x678>
    de28:	e1a061a6 	lsr	r6, r6, #3
    de2c:	e5942004 	ldr	r2, [r4, #4]
    de30:	e7943106 	ldr	r3, [r4, r6, lsl #2]
    de34:	e3c22001 	bic	r2, r2, #1
    de38:	e1550003 	cmp	r5, r3
    de3c:	e5842004 	str	r2, [r4, #4]
    de40:	e2466002 	sub	r6, r6, #2
    de44:	0a00018f 	beq	e488 <_int_free+0x6d0>
    de48:	e3530000 	cmp	r3, #0
    de4c:	0a000004 	beq	de64 <_int_free+0xac>
    de50:	e5932004 	ldr	r2, [r3, #4]
    de54:	e1a021a2 	lsr	r2, r2, #3
    de58:	e2422002 	sub	r2, r2, #2
    de5c:	e1560002 	cmp	r6, r2
    de60:	1a00018a 	bne	e490 <_int_free+0x6d8>
    de64:	e2866002 	add	r6, r6, #2
    de68:	e5853008 	str	r3, [r5, #8]
    de6c:	e7845106 	str	r5, [r4, r6, lsl #2]
    de70:	e28dd01c 	add	sp, sp, #28
    de74:	e8bd8ff0 	pop	{r4, r5, r6, r7, r8, r9, sl, fp, pc}
    de78:	e3130002 	tst	r3, #2
    de7c:	1a000116 	bne	e2dc <_int_free+0x524>
    de80:	e5902030 	ldr	r2, [r0, #48]	; 0x30
    de84:	e1510002 	cmp	r1, r2
    de88:	0a00016d 	beq	e444 <_int_free+0x68c>
    de8c:	e5901004 	ldr	r1, [r0, #4]
    de90:	e0858006 	add	r8, r5, r6
    de94:	e3110002 	tst	r1, #2
    de98:	0a00016b 	beq	e44c <_int_free+0x694>
    de9c:	e598a004 	ldr	sl, [r8, #4]
    dea0:	e31a0001 	tst	sl, #1
    dea4:	0a00016f 	beq	e468 <_int_free+0x6b0>
    dea8:	e35a0008 	cmp	sl, #8
    deac:	9a000130 	bls	e374 <_int_free+0x5bc>
    deb0:	e5942444 	ldr	r2, [r4, #1092]	; 0x444
    deb4:	e3caa007 	bic	sl, sl, #7
    deb8:	e15a0002 	cmp	sl, r2
    debc:	2a00012c 	bcs	e374 <_int_free+0x5bc>
    dec0:	e5972494 	ldr	r2, [r7, #1172]	; 0x494
    dec4:	e3520000 	cmp	r2, #0
    dec8:	1a000168 	bne	e470 <_int_free+0x6b8>
    decc:	e3130001 	tst	r3, #1
    ded0:	1a000012 	bne	df20 <_int_free+0x168>
    ded4:	e5953000 	ldr	r3, [r5]
    ded8:	e0635005 	rsb	r5, r3, r5
    dedc:	e5959008 	ldr	r9, [r5, #8]
    dee0:	e0866003 	add	r6, r6, r3
    dee4:	e599200c 	ldr	r2, [r9, #12]
    dee8:	e595300c 	ldr	r3, [r5, #12]
    deec:	e1550002 	cmp	r5, r2
    def0:	1a000127 	bne	e394 <_int_free+0x5dc>
    def4:	e5932008 	ldr	r2, [r3, #8]
    def8:	e1550002 	cmp	r5, r2
    defc:	1a000124 	bne	e394 <_int_free+0x5dc>
    df00:	e5952004 	ldr	r2, [r5, #4]
    df04:	e589300c 	str	r3, [r9, #12]
    df08:	e3520c02 	cmp	r2, #512	; 0x200
    df0c:	e5839008 	str	r9, [r3, #8]
    df10:	3a000002 	bcc	df20 <_int_free+0x168>
    df14:	e5953010 	ldr	r3, [r5, #16]
    df18:	e3530000 	cmp	r3, #0
    df1c:	1a00016a 	bne	e4cc <_int_free+0x714>
    df20:	e5943030 	ldr	r3, [r4, #48]	; 0x30
    df24:	e1530008 	cmp	r3, r8
    df28:	0a0000f2 	beq	e2f8 <_int_free+0x540>
    df2c:	e088300a 	add	r3, r8, sl
    df30:	e5933004 	ldr	r3, [r3, #4]
    df34:	e3130001 	tst	r3, #1
    df38:	0a0000a9 	beq	e1e4 <_int_free+0x42c>
    df3c:	e5983004 	ldr	r3, [r8, #4]
    df40:	e3c33001 	bic	r3, r3, #1
    df44:	e5883004 	str	r3, [r8, #4]
    df48:	e2843030 	add	r3, r4, #48	; 0x30
    df4c:	e5932008 	ldr	r2, [r3, #8]
    df50:	e592100c 	ldr	r1, [r2, #12]
    df54:	e1530001 	cmp	r3, r1
    df58:	1a00010b 	bne	e38c <_int_free+0x5d4>
    df5c:	e3560c02 	cmp	r6, #512	; 0x200
    df60:	23a01000 	movcs	r1, #0
    df64:	25851010 	strcs	r1, [r5, #16]
    df68:	25851014 	strcs	r1, [r5, #20]
    df6c:	e3861001 	orr	r1, r6, #1
    df70:	e5852008 	str	r2, [r5, #8]
    df74:	e585300c 	str	r3, [r5, #12]
    df78:	e5835008 	str	r5, [r3, #8]
    df7c:	e582500c 	str	r5, [r2, #12]
    df80:	e5851004 	str	r1, [r5, #4]
    df84:	e7856006 	str	r6, [r5, r6]
    df88:	e3560801 	cmp	r6, #65536	; 0x10000
    df8c:	3affffb7 	bcc	de70 <_int_free+0xb8>
    df90:	e5943004 	ldr	r3, [r4, #4]
    df94:	e3130001 	tst	r3, #1
    df98:	0a0000d3 	beq	e2ec <_int_free+0x534>
    df9c:	e1540007 	cmp	r4, r7
    dfa0:	0a0000d9 	beq	e30c <_int_free+0x554>
    dfa4:	e5948030 	ldr	r8, [r4, #48]	; 0x30
    dfa8:	e1a08a28 	lsr	r8, r8, #20
    dfac:	e1a08a08 	lsl	r8, r8, #20
    dfb0:	e598b000 	ldr	fp, [r8]
    dfb4:	e15b0004 	cmp	fp, r4
    dfb8:	0a000005 	beq	dfd4 <_int_free+0x21c>
    dfbc:	e59f0674 	ldr	r0, [pc, #1652]	; e638 <_int_free+0x880>
    dfc0:	e59f1674 	ldr	r1, [pc, #1652]	; e63c <_int_free+0x884>
    dfc4:	e59f2674 	ldr	r2, [pc, #1652]	; e640 <_int_free+0x888>
    dfc8:	e59f3674 	ldr	r3, [pc, #1652]	; e644 <_int_free+0x88c>
    dfcc:	ebfff962 	bl	c55c <__malloc_assert>
    dfd0:	e598b000 	ldr	fp, [r8]
    dfd4:	e59b5030 	ldr	r5, [fp, #48]	; 0x30
    dfd8:	e2883010 	add	r3, r8, #16
    dfdc:	e5971464 	ldr	r1, [r7, #1124]	; 0x464
    dfe0:	e597247c 	ldr	r2, [r7, #1148]	; 0x47c
    dfe4:	e1550003 	cmp	r5, r3
    dfe8:	e58d1014 	str	r1, [sp, #20]
    dfec:	e58d200c 	str	r2, [sp, #12]
    dff0:	1a000093 	bne	e244 <_int_free+0x48c>
    dff4:	e59d1014 	ldr	r1, [sp, #20]
    dff8:	e59d200c 	ldr	r2, [sp, #12]
    dffc:	e0813002 	add	r3, r1, r2
    e000:	e2833010 	add	r3, r3, #16
    e004:	e58d3010 	str	r3, [sp, #16]
    e008:	ea000049 	b	e134 <_int_free+0x37c>
    e00c:	e3130001 	tst	r3, #1
    e010:	0796300c 	ldreq	r3, [r6, ip]
    e014:	e59f162c 	ldr	r1, [pc, #1580]	; e648 <_int_free+0x890>
    e018:	00899003 	addeq	r9, r9, r3
    e01c:	e2493001 	sub	r3, r9, #1
    e020:	e1530001 	cmp	r3, r1
    e024:	8a000066 	bhi	e1c4 <_int_free+0x40c>
    e028:	e5943008 	ldr	r3, [r4, #8]
    e02c:	e59d2010 	ldr	r2, [sp, #16]
    e030:	e2633601 	rsb	r3, r3, #1048576	; 0x100000
    e034:	e0833009 	add	r3, r3, r9
