
bubblesort:     file format elf32-littlearm


Disassembly of section .text:

00008150 <group_number>:
    8150:	e92d 47f0 	stmdb	sp!, {r4, r5, r6, r7, r8, r9, sl, lr}
    8154:	4604      	mov	r4, r0
    8156:	af00      	add	r7, sp, #0
    8158:	4618      	mov	r0, r3
    815a:	461e      	mov	r6, r3
    815c:	4691      	mov	r9, r2
    815e:	4688      	mov	r8, r1
    8160:	f007 ec5e 	blx	fa20 <strlen>
    8164:	f899 5000 	ldrb.w	r5, [r9]
    8168:	1e6b      	subs	r3, r5, #1
    816a:	b2db      	uxtb	r3, r3
    816c:	2bfd      	cmp	r3, #253	; 0xfd
    816e:	4682      	mov	sl, r0
    8170:	d839      	bhi.n	81e6 <group_number+0x96>
    8172:	ebc4 0208 	rsb	r2, r4, r8
    8176:	4621      	mov	r1, r4
    8178:	f102 030e 	add.w	r3, r2, #14
    817c:	4644      	mov	r4, r8
    817e:	f023 0307 	bic.w	r3, r3, #7
    8182:	f109 0901 	add.w	r9, r9, #1
    8186:	ebad 0d03 	sub.w	sp, sp, r3
    818a:	4668      	mov	r0, sp
    818c:	46e8      	mov	r8, sp
    818e:	f007 ffcf 	bl	10130 <__mempcpy>
    8192:	e026      	b.n	81e2 <group_number+0x92>
    8194:	f810 3d01 	ldrb.w	r3, [r0, #-1]!
    8198:	1e62      	subs	r2, r4, #1
    819a:	3d01      	subs	r5, #1
    819c:	f804 3c01 	strb.w	r3, [r4, #-1]
    81a0:	d11e      	bne.n	81e0 <group_number+0x90>
    81a2:	4540      	cmp	r0, r8
    81a4:	d91c      	bls.n	81e0 <group_number+0x90>
    81a6:	ebca 0404 	rsb	r4, sl, r4
    81aa:	4653      	mov	r3, sl
    81ac:	3b01      	subs	r3, #1
    81ae:	3a01      	subs	r2, #1
    81b0:	18e1      	adds	r1, r4, r3
    81b2:	2b00      	cmp	r3, #0
    81b4:	5cf5      	ldrb	r5, [r6, r3]
    81b6:	f801 5c01 	strb.w	r5, [r1, #-1]
    81ba:	dcf7      	bgt.n	81ac <group_number+0x5c>
    81bc:	f899 5000 	ldrb.w	r5, [r9]
    81c0:	2dff      	cmp	r5, #255	; 0xff
    81c2:	d107      	bne.n	81d4 <group_number+0x84>
    81c4:	4614      	mov	r4, r2
    81c6:	f810 3d01 	ldrb.w	r3, [r0, #-1]!
    81ca:	4580      	cmp	r8, r0
    81cc:	f804 3d01 	strb.w	r3, [r4, #-1]!
    81d0:	d3f9      	bcc.n	81c6 <group_number+0x76>
    81d2:	e008      	b.n	81e6 <group_number+0x96>
    81d4:	b115      	cbz	r5, 81dc <group_number+0x8c>
    81d6:	f109 0901 	add.w	r9, r9, #1
    81da:	e001      	b.n	81e0 <group_number+0x90>
    81dc:	f819 5c01 	ldrb.w	r5, [r9, #-1]
    81e0:	4614      	mov	r4, r2
    81e2:	4540      	cmp	r0, r8
    81e4:	d8d6      	bhi.n	8194 <group_number+0x44>
    81e6:	4620      	mov	r0, r4
    81e8:	46bd      	mov	sp, r7
    81ea:	e8bd 87f0 	ldmia.w	sp!, {r4, r5, r6, r7, r8, r9, sl, pc}
    81ee:	bf00      	nop

000081f0 <_i18n_number_rewrite>:
    81f0:	e92d 4ff0 	stmdb	sp!, {r4, r5, r6, r7, r8, r9, sl, fp, lr}
    81f4:	b08b      	sub	sp, #44	; 0x2c
    81f6:	4604      	mov	r4, r0
    81f8:	af00      	add	r7, sp, #0
    81fa:	484d      	ldr	r0, [pc, #308]	; (8330 <_i18n_number_rewrite+0x140>)
    81fc:	4616      	mov	r6, r2
    81fe:	4688      	mov	r8, r1
    8200:	f01e fc90 	bl	26b24 <__wctrans>
    8204:	4601      	mov	r1, r0
    8206:	4605      	mov	r5, r0
    8208:	202e      	movs	r0, #46	; 0x2e
    820a:	f01e fcb3 	bl	26b74 <__towctrans>
    820e:	4629      	mov	r1, r5
    8210:	4682      	mov	sl, r0
    8212:	202c      	movs	r0, #44	; 0x2c
    8214:	f01e fcae 	bl	26b74 <__towctrans>
    8218:	4681      	mov	r9, r0
    821a:	b1ed      	cbz	r5, 8258 <_i18n_number_rewrite+0x68>
    821c:	4651      	mov	r1, sl
    821e:	4638      	mov	r0, r7
    8220:	f107 0220 	add.w	r2, r7, #32
    8224:	f04f 0a00 	mov.w	sl, #0
    8228:	f8c7 a020 	str.w	sl, [r7, #32]
    822c:	f8c7 a024 	str.w	sl, [r7, #36]	; 0x24
    8230:	f019 fba8 	bl	21984 <__wcrtomb>
    8234:	4653      	mov	r3, sl
    8236:	3001      	adds	r0, #1
    8238:	d101      	bne.n	823e <_i18n_number_rewrite+0x4e>
    823a:	222e      	movs	r2, #46	; 0x2e
    823c:	803a      	strh	r2, [r7, #0]
    823e:	f107 0010 	add.w	r0, r7, #16
    8242:	4649      	mov	r1, r9
    8244:	f107 0220 	add.w	r2, r7, #32
    8248:	623b      	str	r3, [r7, #32]
    824a:	627b      	str	r3, [r7, #36]	; 0x24
    824c:	f019 fb9a 	bl	21984 <__wcrtomb>
    8250:	3001      	adds	r0, #1
    8252:	d101      	bne.n	8258 <_i18n_number_rewrite+0x68>
    8254:	232c      	movs	r3, #44	; 0x2c
    8256:	823b      	strh	r3, [r7, #16]
    8258:	ebc4 0808 	rsb	r8, r4, r8
    825c:	f5b8 5f80 	cmp.w	r8, #4096	; 0x1000
    8260:	d906      	bls.n	8270 <_i18n_number_rewrite+0x80>
    8262:	4640      	mov	r0, r8
    8264:	f01e fca4 	bl	26bb0 <__libc_alloca_cutoff>
    8268:	3000      	adds	r0, #0
    826a:	bf18      	it	ne
    826c:	2001      	movne	r0, #1
    826e:	e000      	b.n	8272 <_i18n_number_rewrite+0x82>
    8270:	2001      	movs	r0, #1
    8272:	fa5f fa80 	uxtb.w	sl, r0
    8276:	f1ba 0f00 	cmp.w	sl, #0
    827a:	d007      	beq.n	828c <_i18n_number_rewrite+0x9c>
    827c:	f108 030e 	add.w	r3, r8, #14
    8280:	f023 0307 	bic.w	r3, r3, #7
    8284:	ebad 0d03 	sub.w	sp, sp, r3
    8288:	46e9      	mov	r9, sp
    828a:	e005      	b.n	8298 <_i18n_number_rewrite+0xa8>
    828c:	4640      	mov	r0, r8
    828e:	f005 ffed 	bl	e26c <__libc_malloc>
    8292:	4681      	mov	r9, r0
    8294:	2800      	cmp	r0, #0
    8296:	d045      	beq.n	8324 <_i18n_number_rewrite+0x134>
    8298:	4621      	mov	r1, r4
    829a:	4642      	mov	r2, r8
    829c:	4648      	mov	r0, r9
    829e:	4634      	mov	r4, r6
    82a0:	f007 ff46 	bl	10130 <__mempcpy>
    82a4:	ee1d bf70 	mrc	15, 0, fp, cr13, cr0, {3}
    82a8:	4680      	mov	r8, r0
    82aa:	e031      	b.n	8310 <_i18n_number_rewrite+0x120>
    82ac:	f898 3000 	ldrb.w	r3, [r8]
    82b0:	f1a3 0230 	sub.w	r2, r3, #48	; 0x30
    82b4:	2a09      	cmp	r2, #9
    82b6:	d813      	bhi.n	82e0 <_i18n_number_rewrite+0xf0>
    82b8:	4a1e      	ldr	r2, [pc, #120]	; (8334 <_i18n_number_rewrite+0x144>)
    82ba:	447a      	add	r2, pc
    82bc:	6812      	ldr	r2, [r2, #0]
    82be:	f85b 2002 	ldr.w	r2, [fp, r2]
    82c2:	6812      	ldr	r2, [r2, #0]
    82c4:	eb02 0383 	add.w	r3, r2, r3, lsl #2
    82c8:	689e      	ldr	r6, [r3, #8]
    82ca:	4630      	mov	r0, r6
    82cc:	f007 eba8 	blx	fa20 <strlen>
    82d0:	1a24      	subs	r4, r4, r0
    82d2:	e002      	b.n	82da <_i18n_number_rewrite+0xea>
    82d4:	3801      	subs	r0, #1
    82d6:	5c33      	ldrb	r3, [r6, r0]
    82d8:	5423      	strb	r3, [r4, r0]
    82da:	2800      	cmp	r0, #0
    82dc:	d1fa      	bne.n	82d4 <_i18n_number_rewrite+0xe4>
    82de:	e017      	b.n	8310 <_i18n_number_rewrite+0x120>
    82e0:	b11d      	cbz	r5, 82ea <_i18n_number_rewrite+0xfa>
    82e2:	2b2c      	cmp	r3, #44	; 0x2c
    82e4:	d005      	beq.n	82f2 <_i18n_number_rewrite+0x102>
    82e6:	2b2e      	cmp	r3, #46	; 0x2e
    82e8:	d003      	beq.n	82f2 <_i18n_number_rewrite+0x102>
    82ea:	f804 3c01 	strb.w	r3, [r4, #-1]
    82ee:	3c01      	subs	r4, #1
    82f0:	e00e      	b.n	8310 <_i18n_number_rewrite+0x120>
    82f2:	2b2e      	cmp	r3, #46	; 0x2e
    82f4:	bf14      	ite	ne
    82f6:	f107 0610 	addne.w	r6, r7, #16
    82fa:	463e      	moveq	r6, r7
    82fc:	4630      	mov	r0, r6
    82fe:	f007 eb90 	blx	fa20 <strlen>
    8302:	1a24      	subs	r4, r4, r0
    8304:	e002      	b.n	830c <_i18n_number_rewrite+0x11c>
    8306:	3801      	subs	r0, #1
    8308:	5c33      	ldrb	r3, [r6, r0]
    830a:	5423      	strb	r3, [r4, r0]
    830c:	2800      	cmp	r0, #0
    830e:	d1fa      	bne.n	8306 <_i18n_number_rewrite+0x116>
    8310:	f108 38ff 	add.w	r8, r8, #4294967295	; 0xffffffff
    8314:	45c8      	cmp	r8, r9
    8316:	d2c9      	bcs.n	82ac <_i18n_number_rewrite+0xbc>
    8318:	f1ba 0f00 	cmp.w	sl, #0
    831c:	d102      	bne.n	8324 <_i18n_number_rewrite+0x134>
    831e:	4648      	mov	r0, r9
    8320:	f006 fa08 	bl	e734 <__cfree>
    8324:	4620      	mov	r0, r4
    8326:	f107 072c 	add.w	r7, r7, #44	; 0x2c
    832a:	46bd      	mov	sp, r7
    832c:	e8bd 8ff0 	ldmia.w	sp!, {r4, r5, r6, r7, r8, r9, sl, fp, pc}
    8330:	0004b974 	.word	0x0004b974
    8334:	0005e96e 	.word	0x0005e96e

00008338 <_i18n_number_rewrite>:
    8338:	e92d 4ff0 	stmdb	sp!, {r4, r5, r6, r7, r8, r9, sl, fp, lr}
    833c:	b08b      	sub	sp, #44	; 0x2c
    833e:	4604      	mov	r4, r0
    8340:	af00      	add	r7, sp, #0
    8342:	484d      	ldr	r0, [pc, #308]	; (8478 <_i18n_number_rewrite+0x140>)
    8344:	4616      	mov	r6, r2
    8346:	4688      	mov	r8, r1
    8348:	f01e fbec 	bl	26b24 <__wctrans>
    834c:	4601      	mov	r1, r0
    834e:	4605      	mov	r5, r0
    8350:	202e      	movs	r0, #46	; 0x2e
    8352:	f01e fc0f 	bl	26b74 <__towctrans>
    8356:	4629      	mov	r1, r5
    8358:	4682      	mov	sl, r0
    835a:	202c      	movs	r0, #44	; 0x2c
    835c:	f01e fc0a 	bl	26b74 <__towctrans>
    8360:	4681      	mov	r9, r0
    8362:	b1ed      	cbz	r5, 83a0 <_i18n_number_rewrite+0x68>
    8364:	4651      	mov	r1, sl
    8366:	4638      	mov	r0, r7
    8368:	f107 0220 	add.w	r2, r7, #32
    836c:	f04f 0a00 	mov.w	sl, #0
    8370:	f8c7 a020 	str.w	sl, [r7, #32]
    8374:	f8c7 a024 	str.w	sl, [r7, #36]	; 0x24
    8378:	f019 fb04 	bl	21984 <__wcrtomb>
    837c:	4653      	mov	r3, sl
    837e:	3001      	adds	r0, #1
    8380:	d101      	bne.n	8386 <_i18n_number_rewrite+0x4e>
    8382:	222e      	movs	r2, #46	; 0x2e
    8384:	803a      	strh	r2, [r7, #0]
    8386:	f107 0010 	add.w	r0, r7, #16
    838a:	4649      	mov	r1, r9
    838c:	f107 0220 	add.w	r2, r7, #32
    8390:	623b      	str	r3, [r7, #32]
    8392:	627b      	str	r3, [r7, #36]	; 0x24
    8394:	f019 faf6 	bl	21984 <__wcrtomb>
    8398:	3001      	adds	r0, #1
    839a:	d101      	bne.n	83a0 <_i18n_number_rewrite+0x68>
    839c:	232c      	movs	r3, #44	; 0x2c
    839e:	823b      	strh	r3, [r7, #16]
    83a0:	ebc4 0808 	rsb	r8, r4, r8
    83a4:	f5b8 5f80 	cmp.w	r8, #4096	; 0x1000
    83a8:	d906      	bls.n	83b8 <_i18n_number_rewrite+0x80>
    83aa:	4640      	mov	r0, r8
    83ac:	f01e fc00 	bl	26bb0 <__libc_alloca_cutoff>
    83b0:	3000      	adds	r0, #0
    83b2:	bf18      	it	ne
    83b4:	2001      	movne	r0, #1
    83b6:	e000      	b.n	83ba <_i18n_number_rewrite+0x82>
    83b8:	2001      	movs	r0, #1
    83ba:	fa5f fa80 	uxtb.w	sl, r0
    83be:	f1ba 0f00 	cmp.w	sl, #0
    83c2:	d007      	beq.n	83d4 <_i18n_number_rewrite+0x9c>
    83c4:	f108 030e 	add.w	r3, r8, #14
    83c8:	f023 0307 	bic.w	r3, r3, #7
    83cc:	ebad 0d03 	sub.w	sp, sp, r3
    83d0:	46e9      	mov	r9, sp
    83d2:	e005      	b.n	83e0 <_i18n_number_rewrite+0xa8>
    83d4:	4640      	mov	r0, r8
    83d6:	f005 ff49 	bl	e26c <__libc_malloc>
    83da:	4681      	mov	r9, r0
    83dc:	2800      	cmp	r0, #0
    83de:	d045      	beq.n	846c <_i18n_number_rewrite+0x134>
    83e0:	4621      	mov	r1, r4
    83e2:	4642      	mov	r2, r8
    83e4:	4648      	mov	r0, r9
    83e6:	4634      	mov	r4, r6
    83e8:	f007 fea2 	bl	10130 <__mempcpy>
    83ec:	ee1d bf70 	mrc	15, 0, fp, cr13, cr0, {3}
    83f0:	4680      	mov	r8, r0
    83f2:	e031      	b.n	8458 <_i18n_number_rewrite+0x120>
    83f4:	f898 3000 	ldrb.w	r3, [r8]
    83f8:	f1a3 0230 	sub.w	r2, r3, #48	; 0x30
    83fc:	2a09      	cmp	r2, #9
    83fe:	d813      	bhi.n	8428 <_i18n_number_rewrite+0xf0>
    8400:	4a1e      	ldr	r2, [pc, #120]	; (847c <_i18n_number_rewrite+0x144>)
    8402:	447a      	add	r2, pc
    8404:	6812      	ldr	r2, [r2, #0]
    8406:	f85b 2002 	ldr.w	r2, [fp, r2]
    840a:	6812      	ldr	r2, [r2, #0]
    840c:	eb02 0383 	add.w	r3, r2, r3, lsl #2
    8410:	689e      	ldr	r6, [r3, #8]
    8412:	4630      	mov	r0, r6
    8414:	f007 eb04 	blx	fa20 <strlen>
    8418:	1a24      	subs	r4, r4, r0
    841a:	e002      	b.n	8422 <_i18n_number_rewrite+0xea>
    841c:	3801      	subs	r0, #1
    841e:	5c33      	ldrb	r3, [r6, r0]
    8420:	5423      	strb	r3, [r4, r0]
    8422:	2800      	cmp	r0, #0
    8424:	d1fa      	bne.n	841c <_i18n_number_rewrite+0xe4>
    8426:	e017      	b.n	8458 <_i18n_number_rewrite+0x120>
    8428:	b11d      	cbz	r5, 8432 <_i18n_number_rewrite+0xfa>
    842a:	2b2c      	cmp	r3, #44	; 0x2c
    842c:	d005      	beq.n	843a <_i18n_number_rewrite+0x102>
    842e:	2b2e      	cmp	r3, #46	; 0x2e
    8430:	d003      	beq.n	843a <_i18n_number_rewrite+0x102>
    8432:	f804 3c01 	strb.w	r3, [r4, #-1]
    8436:	3c01      	subs	r4, #1
    8438:	e00e      	b.n	8458 <_i18n_number_rewrite+0x120>
    843a:	2b2e      	cmp	r3, #46	; 0x2e
    843c:	bf14      	ite	ne
    843e:	f107 0610 	addne.w	r6, r7, #16
    8442:	463e      	moveq	r6, r7
    8444:	4630      	mov	r0, r6
    8446:	f007 eaec 	blx	fa20 <strlen>
    844a:	1a24      	subs	r4, r4, r0
    844c:	e002      	b.n	8454 <_i18n_number_rewrite+0x11c>
    844e:	3801      	subs	r0, #1
    8450:	5c33      	ldrb	r3, [r6, r0]
    8452:	5423      	strb	r3, [r4, r0]
    8454:	2800      	cmp	r0, #0
    8456:	d1fa      	bne.n	844e <_i18n_number_rewrite+0x116>
    8458:	f108 38ff 	add.w	r8, r8, #4294967295	; 0xffffffff
    845c:	45c8      	cmp	r8, r9
    845e:	d2c9      	bcs.n	83f4 <_i18n_number_rewrite+0xbc>
    8460:	f1ba 0f00 	cmp.w	sl, #0
    8464:	d102      	bne.n	846c <_i18n_number_rewrite+0x134>
    8466:	4648      	mov	r0, r9
    8468:	f006 f964 	bl	e734 <__cfree>
    846c:	4620      	mov	r0, r4
    846e:	f107 072c 	add.w	r7, r7, #44	; 0x2c
    8472:	46bd      	mov	sp, r7
    8474:	e8bd 8ff0 	ldmia.w	sp!, {r4, r5, r6, r7, r8, r9, sl, fp, pc}
    8478:	0004b974 	.word	0x0004b974
    847c:	0005e826 	.word	0x0005e826

00008480 <print_search_path>:
    8480:	e92d 4ff0 	stmdb	sp!, {r4, r5, r6, r7, r8, r9, sl, fp, lr}
    8484:	b083      	sub	sp, #12
    8486:	4b36      	ldr	r3, [pc, #216]	; (8560 <print_search_path+0xe0>)
    8488:	af00      	add	r7, sp, #0
    848a:	4680      	mov	r8, r0
    848c:	4835      	ldr	r0, [pc, #212]	; (8564 <print_search_path+0xe4>)
    848e:	f04f 0a01 	mov.w	sl, #1
    8492:	603a      	str	r2, [r7, #0]
    8494:	685a      	ldr	r2, [r3, #4]
    8496:	4b34      	ldr	r3, [pc, #208]	; (8568 <print_search_path+0xe8>)
    8498:	6079      	str	r1, [r7, #4]
    849a:	f8df b0dc 	ldr.w	fp, [pc, #220]	; 8578 <print_search_path+0xf8>
    849e:	681b      	ldr	r3, [r3, #0]
    84a0:	18d3      	adds	r3, r2, r3
    84a2:	330e      	adds	r3, #14
    84a4:	f023 0307 	bic.w	r3, r3, #7
    84a8:	ebad 0d03 	sub.w	sp, sp, r3
    84ac:	f023 fa2e 	bl	2b90c <_dl_debug_printf>
    84b0:	466e      	mov	r6, sp
    84b2:	e037      	b.n	8524 <print_search_path+0xa4>
    84b4:	4630      	mov	r0, r6
    84b6:	68d9      	ldr	r1, [r3, #12]
    84b8:	691a      	ldr	r2, [r3, #16]
    84ba:	2400      	movs	r4, #0
    84bc:	f007 fe38 	bl	10130 <__mempcpy>
    84c0:	4d27      	ldr	r5, [pc, #156]	; (8560 <print_search_path+0xe0>)
    84c2:	4681      	mov	r9, r0
    84c4:	e02a      	b.n	851c <print_search_path+0x9c>
    84c6:	f858 3c04 	ldr.w	r3, [r8, #-4]
    84ca:	eb03 0384 	add.w	r3, r3, r4, lsl #2
    84ce:	695b      	ldr	r3, [r3, #20]
    84d0:	2b01      	cmp	r3, #1
    84d2:	d022      	beq.n	851a <print_search_path+0x9a>
    84d4:	68aa      	ldr	r2, [r5, #8]
    84d6:	eb02 03c4 	add.w	r3, r2, r4, lsl #3
    84da:	f852 1034 	ldr.w	r1, [r2, r4, lsl #3]
    84de:	685a      	ldr	r2, [r3, #4]
    84e0:	f007 fe26 	bl	10130 <__mempcpy>
    84e4:	1c73      	adds	r3, r6, #1
    84e6:	4286      	cmp	r6, r0
    84e8:	d004      	beq.n	84f4 <print_search_path+0x74>
    84ea:	4298      	cmp	r0, r3
    84ec:	d105      	bne.n	84fa <print_search_path+0x7a>
    84ee:	7833      	ldrb	r3, [r6, #0]
    84f0:	2b2f      	cmp	r3, #47	; 0x2f
    84f2:	d102      	bne.n	84fa <print_search_path+0x7a>
    84f4:	2100      	movs	r1, #0
    84f6:	7001      	strb	r1, [r0, #0]
    84f8:	e002      	b.n	8500 <print_search_path+0x80>
    84fa:	2200      	movs	r2, #0
    84fc:	f800 2c01 	strb.w	r2, [r0, #-1]
    8500:	f24d 509c 	movw	r0, #54684	; 0xd59c
    8504:	f2c0 0005 	movt	r0, #5
    8508:	f1ba 0f00 	cmp.w	sl, #0
    850c:	bf08      	it	eq
    850e:	4658      	moveq	r0, fp
    8510:	4631      	mov	r1, r6
    8512:	f04f 0a00 	mov.w	sl, #0
    8516:	f023 fa0f 	bl	2b938 <_dl_debug_printf_c>
    851a:	3401      	adds	r4, #1
    851c:	682b      	ldr	r3, [r5, #0]
    851e:	4648      	mov	r0, r9
    8520:	429c      	cmp	r4, r3
    8522:	d3d0      	bcc.n	84c6 <print_search_path+0x46>
    8524:	f858 3b04 	ldr.w	r3, [r8], #4
    8528:	b11b      	cbz	r3, 8532 <print_search_path+0xb2>
    852a:	685a      	ldr	r2, [r3, #4]
    852c:	6879      	ldr	r1, [r7, #4]
    852e:	428a      	cmp	r2, r1
    8530:	d0c0      	beq.n	84b4 <print_search_path+0x34>
    8532:	683b      	ldr	r3, [r7, #0]
    8534:	b15b      	cbz	r3, 854e <print_search_path+0xce>
    8536:	781b      	ldrb	r3, [r3, #0]
    8538:	b91b      	cbnz	r3, 8542 <print_search_path+0xc2>
    853a:	4b0c      	ldr	r3, [pc, #48]	; (856c <print_search_path+0xec>)
    853c:	681b      	ldr	r3, [r3, #0]
    853e:	681b      	ldr	r3, [r3, #0]
    8540:	603b      	str	r3, [r7, #0]
    8542:	480b      	ldr	r0, [pc, #44]	; (8570 <print_search_path+0xf0>)
    8544:	6879      	ldr	r1, [r7, #4]
    8546:	683a      	ldr	r2, [r7, #0]
    8548:	f023 f9f6 	bl	2b938 <_dl_debug_printf_c>
    854c:	e003      	b.n	8556 <print_search_path+0xd6>
    854e:	4809      	ldr	r0, [pc, #36]	; (8574 <print_search_path+0xf4>)
    8550:	6879      	ldr	r1, [r7, #4]
    8552:	f023 f9f1 	bl	2b938 <_dl_debug_printf_c>
    8556:	f107 070c 	add.w	r7, r7, #12
    855a:	46bd      	mov	sp, r7
    855c:	e8bd 8ff0 	ldmia.w	sp!, {r4, r5, r6, r7, r8, r9, sl, fp, pc}
    8560:	00066bd0 	.word	0x00066bd0
    8564:	0004d0bc 	.word	0x0004d0bc
    8568:	0006887c 	.word	0x0006887c
    856c:	00067108 	.word	0x00067108
    8570:	0004d0cc 	.word	0x0004d0cc
    8574:	0004d0e4 	.word	0x0004d0e4
    8578:	0004d0b8 	.word	0x0004d0b8

0000857c <strip>:
    857c:	4b18      	ldr	r3, [pc, #96]	; (85e0 <strip+0x64>)
    857e:	b470      	push	{r4, r5, r6}
    8580:	2600      	movs	r6, #0
    8582:	6b5c      	ldr	r4, [r3, #52]	; 0x34
    8584:	6bdd      	ldr	r5, [r3, #60]	; 0x3c
    8586:	e01c      	b.n	85c2 <strip+0x46>
    8588:	f834 2013 	ldrh.w	r2, [r4, r3, lsl #1]
    858c:	0712      	lsls	r2, r2, #28
    858e:	d409      	bmi.n	85a4 <strip+0x28>
    8590:	2b5f      	cmp	r3, #95	; 0x5f
    8592:	d007      	beq.n	85a4 <strip+0x28>
    8594:	2b2d      	cmp	r3, #45	; 0x2d
    8596:	d005      	beq.n	85a4 <strip+0x28>
    8598:	2b2e      	cmp	r3, #46	; 0x2e
    859a:	d003      	beq.n	85a4 <strip+0x28>
    859c:	2b2c      	cmp	r3, #44	; 0x2c
    859e:	d001      	beq.n	85a4 <strip+0x28>
    85a0:	2b3a      	cmp	r3, #58	; 0x3a
    85a2:	d104      	bne.n	85ae <strip+0x32>
    85a4:	f855 3023 	ldr.w	r3, [r5, r3, lsl #2]
    85a8:	f800 3b01 	strb.w	r3, [r0], #1
    85ac:	e009      	b.n	85c2 <strip+0x46>
    85ae:	2b2f      	cmp	r3, #47	; 0x2f
    85b0:	d107      	bne.n	85c2 <strip+0x46>
    85b2:	3601      	adds	r6, #1
    85b4:	2e03      	cmp	r6, #3
    85b6:	d102      	bne.n	85be <strip+0x42>
    85b8:	4633      	mov	r3, r6
    85ba:	222f      	movs	r2, #47	; 0x2f
    85bc:	e008      	b.n	85d0 <strip+0x54>
    85be:	f800 3b01 	strb.w	r3, [r0], #1
    85c2:	f811 3b01 	ldrb.w	r3, [r1], #1
    85c6:	2b00      	cmp	r3, #0
    85c8:	d1de      	bne.n	8588 <strip+0xc>
    85ca:	e7f5      	b.n	85b8 <strip+0x3c>
    85cc:	f800 2b01 	strb.w	r2, [r0], #1
    85d0:	2b01      	cmp	r3, #1
    85d2:	f103 0301 	add.w	r3, r3, #1
    85d6:	ddf9      	ble.n	85cc <strip+0x50>
    85d8:	2300      	movs	r3, #0
    85da:	7003      	strb	r3, [r0, #0]
    85dc:	bc70      	pop	{r4, r5, r6}
    85de:	4770      	bx	lr
    85e0:	0004a4cc 	.word	0x0004a4cc

000085e4 <group_number>:
    85e4:	e92d 43f8 	stmdb	sp!, {r3, r4, r5, r6, r7, r8, r9, lr}
    85e8:	4699      	mov	r9, r3
    85ea:	7815      	ldrb	r5, [r2, #0]
    85ec:	af00      	add	r7, sp, #0
    85ee:	460c      	mov	r4, r1
    85f0:	1e6b      	subs	r3, r5, #1
    85f2:	b2db      	uxtb	r3, r3
    85f4:	2bfd      	cmp	r3, #253	; 0xfd
    85f6:	d837      	bhi.n	8668 <group_number+0x84>
    85f8:	1a0b      	subs	r3, r1, r0
    85fa:	4601      	mov	r1, r0
    85fc:	f023 0003 	bic.w	r0, r3, #3
    8600:	f102 0801 	add.w	r8, r2, #1
    8604:	f100 030e 	add.w	r3, r0, #14
    8608:	f023 0307 	bic.w	r3, r3, #7
    860c:	4602      	mov	r2, r0
    860e:	ebad 0d03 	sub.w	sp, sp, r3
    8612:	4668      	mov	r0, sp
    8614:	466e      	mov	r6, sp
    8616:	f007 fd8b 	bl	10130 <__mempcpy>
    861a:	4603      	mov	r3, r0
    861c:	4620      	mov	r0, r4
    861e:	e01f      	b.n	8660 <group_number+0x7c>
    8620:	f853 1d04 	ldr.w	r1, [r3, #-4]!
    8624:	3d01      	subs	r5, #1
    8626:	f840 1c04 	str.w	r1, [r0, #-4]
    862a:	d118      	bne.n	865e <group_number+0x7a>
    862c:	42b3      	cmp	r3, r6
    862e:	d916      	bls.n	865e <group_number+0x7a>
    8630:	f840 9c08 	str.w	r9, [r0, #-8]
    8634:	f1a0 0208 	sub.w	r2, r0, #8
    8638:	f898 1000 	ldrb.w	r1, [r8]
    863c:	29ff      	cmp	r1, #255	; 0xff
    863e:	460d      	mov	r5, r1
    8640:	d107      	bne.n	8652 <group_number+0x6e>
    8642:	4610      	mov	r0, r2
    8644:	f853 2d04 	ldr.w	r2, [r3, #-4]!
    8648:	429e      	cmp	r6, r3
    864a:	f840 2d04 	str.w	r2, [r0, #-4]!
    864e:	d3f9      	bcc.n	8644 <group_number+0x60>
    8650:	e00a      	b.n	8668 <group_number+0x84>
    8652:	b111      	cbz	r1, 865a <group_number+0x76>
    8654:	f108 0801 	add.w	r8, r8, #1
    8658:	e001      	b.n	865e <group_number+0x7a>
    865a:	f818 5c01 	ldrb.w	r5, [r8, #-1]
    865e:	4610      	mov	r0, r2
    8660:	42b3      	cmp	r3, r6
    8662:	f1a0 0204 	sub.w	r2, r0, #4
    8666:	d8db      	bhi.n	8620 <group_number+0x3c>
    8668:	46bd      	mov	sp, r7
    866a:	e8bd 83f8 	ldmia.w	sp!, {r3, r4, r5, r6, r7, r8, r9, pc}
    866e:	bf00      	nop

00008670 <_i18n_number_rewrite>:
    8670:	e92d 4ff0 	stmdb	sp!, {r4, r5, r6, r7, r8, r9, sl, fp, lr}
    8674:	b083      	sub	sp, #12
    8676:	4604      	mov	r4, r0
    8678:	af00      	add	r7, sp, #0
    867a:	4836      	ldr	r0, [pc, #216]	; (8754 <_i18n_number_rewrite+0xe4>)
    867c:	4691      	mov	r9, r2
    867e:	460d      	mov	r5, r1
    8680:	f01e fa50 	bl	26b24 <__wctrans>
    8684:	4601      	mov	r1, r0
    8686:	4606      	mov	r6, r0
    8688:	202e      	movs	r0, #46	; 0x2e
    868a:	f01e fa73 	bl	26b74 <__towctrans>
    868e:	4631      	mov	r1, r6
    8690:	4683      	mov	fp, r0
    8692:	202c      	movs	r0, #44	; 0x2c
    8694:	f01e fa6e 	bl	26b74 <__towctrans>
    8698:	1b2a      	subs	r2, r5, r4
    869a:	f022 0203 	bic.w	r2, r2, #3
    869e:	f5b2 5f80 	cmp.w	r2, #4096	; 0x1000
    86a2:	4682      	mov	sl, r0
    86a4:	d90a      	bls.n	86bc <_i18n_number_rewrite+0x4c>
    86a6:	4610      	mov	r0, r2
    86a8:	607a      	str	r2, [r7, #4]
    86aa:	f01e fa81 	bl	26bb0 <__libc_alloca_cutoff>
    86ae:	687a      	ldr	r2, [r7, #4]
    86b0:	f110 0800 	adds.w	r8, r0, #0
    86b4:	bf18      	it	ne
    86b6:	f04f 0801 	movne.w	r8, #1
    86ba:	e001      	b.n	86c0 <_i18n_number_rewrite+0x50>
    86bc:	f04f 0801 	mov.w	r8, #1
    86c0:	fa5f f888 	uxtb.w	r8, r8
    86c4:	f1b8 0f00 	cmp.w	r8, #0
    86c8:	d007      	beq.n	86da <_i18n_number_rewrite+0x6a>
    86ca:	f102 030e 	add.w	r3, r2, #14
    86ce:	f023 0307 	bic.w	r3, r3, #7
    86d2:	ebad 0d03 	sub.w	sp, sp, r3
    86d6:	466d      	mov	r5, sp
    86d8:	e007      	b.n	86ea <_i18n_number_rewrite+0x7a>
    86da:	4610      	mov	r0, r2
    86dc:	607a      	str	r2, [r7, #4]
    86de:	f005 fdc5 	bl	e26c <__libc_malloc>
    86e2:	687a      	ldr	r2, [r7, #4]
    86e4:	4605      	mov	r5, r0
    86e6:	2800      	cmp	r0, #0
    86e8:	d02d      	beq.n	8746 <_i18n_number_rewrite+0xd6>
    86ea:	4621      	mov	r1, r4
    86ec:	4628      	mov	r0, r5
    86ee:	f007 fd1f 	bl	10130 <__mempcpy>
    86f2:	4b19      	ldr	r3, [pc, #100]	; (8758 <_i18n_number_rewrite+0xe8>)
    86f4:	ee1d 2f70 	mrc	15, 0, r2, cr13, cr0, {3}
    86f8:	447b      	add	r3, pc
    86fa:	681b      	ldr	r3, [r3, #0]
    86fc:	58d1      	ldr	r1, [r2, r3]
    86fe:	e018      	b.n	8732 <_i18n_number_rewrite+0xc2>
    8700:	6803      	ldr	r3, [r0, #0]
    8702:	f1a3 0230 	sub.w	r2, r3, #48	; 0x30
    8706:	2a09      	cmp	r2, #9
    8708:	d806      	bhi.n	8718 <_i18n_number_rewrite+0xa8>
    870a:	680a      	ldr	r2, [r1, #0]
    870c:	eb02 0383 	add.w	r3, r2, r3, lsl #2
    8710:	6b1b      	ldr	r3, [r3, #48]	; 0x30
    8712:	f849 3c04 	str.w	r3, [r9, #-4]
    8716:	e00a      	b.n	872e <_i18n_number_rewrite+0xbe>
    8718:	b13e      	cbz	r6, 872a <_i18n_number_rewrite+0xba>
    871a:	2b2c      	cmp	r3, #44	; 0x2c
    871c:	d001      	beq.n	8722 <_i18n_number_rewrite+0xb2>
    871e:	2b2e      	cmp	r3, #46	; 0x2e
    8720:	d103      	bne.n	872a <_i18n_number_rewrite+0xba>
    8722:	2b2e      	cmp	r3, #46	; 0x2e
    8724:	bf14      	ite	ne
    8726:	4653      	movne	r3, sl
    8728:	465b      	moveq	r3, fp
    872a:	f849 3c04 	str.w	r3, [r9, #-4]
    872e:	f1a9 0904 	sub.w	r9, r9, #4
    8732:	3804      	subs	r0, #4
    8734:	464c      	mov	r4, r9
    8736:	42a8      	cmp	r0, r5
    8738:	d2e2      	bcs.n	8700 <_i18n_number_rewrite+0x90>
    873a:	f1b8 0f00 	cmp.w	r8, #0
    873e:	d102      	bne.n	8746 <_i18n_number_rewrite+0xd6>
    8740:	4628      	mov	r0, r5
    8742:	f005 fff7 	bl	e734 <__cfree>
    8746:	4620      	mov	r0, r4
    8748:	f107 070c 	add.w	r7, r7, #12
    874c:	46bd      	mov	sp, r7
    874e:	e8bd 8ff0 	ldmia.w	sp!, {r4, r5, r6, r7, r8, r9, sl, fp, pc}
    8752:	bf00      	nop
    8754:	0004b974 	.word	0x0004b974
    8758:	0005e530 	.word	0x0005e530

0000875c <fini>:
    875c:	4801      	ldr	r0, [pc, #4]	; (8764 <fini+0x8>)
    875e:	f037 ba1b 	b.w	3fb98 <check_free>
    8762:	bf00      	nop
    8764:	000689a8 	.word	0x000689a8

00008768 <main>:
    8768:	e92d 43f8 	stmdb	sp!, {r3, r4, r5, r6, r7, r8, r9, lr}
    876c:	1e44      	subs	r4, r0, #1
    876e:	af00      	add	r7, sp, #0
    8770:	00a3      	lsls	r3, r4, #2
    8772:	330e      	adds	r3, #14
    8774:	2801      	cmp	r0, #1
    8776:	f023 0307 	bic.w	r3, r3, #7
    877a:	ebad 0d03 	sub.w	sp, sp, r3
    877e:	46e9      	mov	r9, sp
    8780:	d012      	beq.n	87a8 <main+0x40>
    8782:	2c00      	cmp	r4, #0
    8784:	dd0b      	ble.n	879e <main+0x36>
    8786:	2500      	movs	r5, #0
    8788:	4688      	mov	r8, r1
    878a:	466e      	mov	r6, sp
    878c:	f858 0f04 	ldr.w	r0, [r8, #4]!
    8790:	3501      	adds	r5, #1
    8792:	f000 fb65 	bl	8e60 <atoi>
    8796:	42ac      	cmp	r4, r5
    8798:	f846 0b04 	str.w	r0, [r6], #4
    879c:	dcf6      	bgt.n	878c <main+0x24>
    879e:	4620      	mov	r0, r4
    87a0:	4649      	mov	r1, r9
    87a2:	f000 f857 	bl	8854 <bubblesort>
    87a6:	2000      	movs	r0, #0
    87a8:	46bd      	mov	sp, r7
    87aa:	e8bd 83f8 	ldmia.w	sp!, {r3, r4, r5, r6, r7, r8, r9, pc}
    87ae:	bf00      	nop

000087b0 <_start>:
    87b0:	f04f 0b00 	mov.w	fp, #0
    87b4:	f04f 0e00 	mov.w	lr, #0
    87b8:	f85d 1b04 	ldr.w	r1, [sp], #4
    87bc:	466a      	mov	r2, sp
    87be:	f84d 2d04 	str.w	r2, [sp, #-4]!
    87c2:	f84d 0d04 	str.w	r0, [sp, #-4]!
    87c6:	f8df c014 	ldr.w	ip, [pc, #20]	; 87dc <_start+0x2c>
    87ca:	f84d cd04 	str.w	ip, [sp, #-4]!
    87ce:	4804      	ldr	r0, [pc, #16]	; (87e0 <_start+0x30>)
    87d0:	4b04      	ldr	r3, [pc, #16]	; (87e4 <_start+0x34>)
    87d2:	f000 f857 	bl	8884 <__libc_start_main>
    87d6:	f000 fb47 	bl	8e68 <abort>
    87da:	0000      	.short	0x0000
    87dc:	00008ded 	.word	0x00008ded
    87e0:	00008769 	.word	0x00008769
    87e4:	00008d81 	.word	0x00008d81

000087e8 <call_gmon_start>:
    87e8:	4b03      	ldr	r3, [pc, #12]	; (87f8 <call_gmon_start+0x10>)
    87ea:	4a04      	ldr	r2, [pc, #16]	; (87fc <call_gmon_start+0x14>)
    87ec:	447b      	add	r3, pc
    87ee:	589b      	ldr	r3, [r3, r2]
    87f0:	b10b      	cbz	r3, 87f6 <call_gmon_start+0xe>
    87f2:	f3af 8000 	nop.w
    87f6:	4770      	bx	lr
    87f8:	0005e400 	.word	0x0005e400
    87fc:	0000006c 	.word	0x0000006c

00008800 <__do_global_dtors_aux>:
    8800:	b510      	push	{r4, lr}
    8802:	4c05      	ldr	r4, [pc, #20]	; (8818 <__do_global_dtors_aux+0x18>)
    8804:	7823      	ldrb	r3, [r4, #0]
    8806:	b933      	cbnz	r3, 8816 <__do_global_dtors_aux+0x16>
    8808:	4b04      	ldr	r3, [pc, #16]	; (881c <__do_global_dtors_aux+0x1c>)
    880a:	b113      	cbz	r3, 8812 <__do_global_dtors_aux+0x12>
    880c:	4804      	ldr	r0, [pc, #16]	; (8820 <__do_global_dtors_aux+0x20>)
    880e:	f3af 8000 	nop.w
    8812:	2301      	movs	r3, #1
    8814:	7023      	strb	r3, [r4, #0]
    8816:	bd10      	pop	{r4, pc}
    8818:	00067368 	.word	0x00067368
    881c:	00000000 	.word	0x00000000
    8820:	0005eb9c 	.word	0x0005eb9c

00008824 <frame_dummy>:
    8824:	b508      	push	{r3, lr}
    8826:	4b06      	ldr	r3, [pc, #24]	; (8840 <frame_dummy+0x1c>)
    8828:	b11b      	cbz	r3, 8832 <frame_dummy+0xe>
    882a:	4806      	ldr	r0, [pc, #24]	; (8844 <frame_dummy+0x20>)
    882c:	4906      	ldr	r1, [pc, #24]	; (8848 <frame_dummy+0x24>)
    882e:	f3af 8000 	nop.w
    8832:	4806      	ldr	r0, [pc, #24]	; (884c <frame_dummy+0x28>)
    8834:	6803      	ldr	r3, [r0, #0]
    8836:	b113      	cbz	r3, 883e <frame_dummy+0x1a>
    8838:	4b05      	ldr	r3, [pc, #20]	; (8850 <frame_dummy+0x2c>)
    883a:	b103      	cbz	r3, 883e <frame_dummy+0x1a>
    883c:	4798      	blx	r3
    883e:	bd08      	pop	{r3, pc}
    8840:	00000000 	.word	0x00000000
    8844:	0005eb9c 	.word	0x0005eb9c
    8848:	0006736c 	.word	0x0006736c
    884c:	00066bbc 	.word	0x00066bbc
    8850:	00000000 	.word	0x00000000

00008854 <bubblesort>:
    8854:	3801      	subs	r0, #1
    8856:	2800      	cmp	r0, #0
    8858:	b430      	push	{r4, r5}
    885a:	dd10      	ble.n	887e <bubblesort+0x2a>
    885c:	2200      	movs	r2, #0
    885e:	2800      	cmp	r0, #0
    8860:	460b      	mov	r3, r1
    8862:	dd0a      	ble.n	887a <bubblesort+0x26>
    8864:	685d      	ldr	r5, [r3, #4]
    8866:	3201      	adds	r2, #1
    8868:	f853 4b04 	ldr.w	r4, [r3], #4
    886c:	42a5      	cmp	r5, r4
    886e:	bfbc      	itt	lt
    8870:	f843 5c04 	strlt.w	r5, [r3, #-4]
    8874:	601c      	strlt	r4, [r3, #0]
    8876:	4282      	cmp	r2, r0
    8878:	d1f4      	bne.n	8864 <bubblesort+0x10>
    887a:	3801      	subs	r0, #1
    887c:	d1ee      	bne.n	885c <bubblesort+0x8>
    887e:	bc30      	pop	{r4, r5}
    8880:	4770      	bx	lr
    8882:	bf00      	nop

00008884 <__libc_start_main>:
    8884:	e92d 41f0 	stmdb	sp!, {r4, r5, r6, r7, r8, lr}
    8888:	f240 0400 	movw	r4, #0
    888c:	b0cc      	sub	sp, #304	; 0x130
    888e:	f2c0 0400 	movt	r4, #0
    8892:	461e      	mov	r6, r3
    8894:	9003      	str	r0, [sp, #12]
    8896:	46a6      	mov	lr, r4
    8898:	9101      	str	r1, [sp, #4]
    889a:	9202      	str	r2, [sp, #8]
    889c:	9f52      	ldr	r7, [sp, #328]	; 0x148
    889e:	9d53      	ldr	r5, [sp, #332]	; 0x14c
    88a0:	b12c      	cbz	r4, 88ae <__libc_start_main+0x2a>
    88a2:	6824      	ldr	r4, [r4, #0]
    88a4:	f1d4 0e01 	rsbs	lr, r4, #1
    88a8:	bf38      	it	cc
    88aa:	f04f 0e00 	movcc.w	lr, #0
    88ae:	9b01      	ldr	r3, [sp, #4]
    88b0:	f248 1210 	movw	r2, #33040	; 0x8110
    88b4:	f2c0 0206 	movt	r2, #6
    88b8:	f247 110c 	movw	r1, #28940	; 0x710c
    88bc:	1c5c      	adds	r4, r3, #1
    88be:	9b02      	ldr	r3, [sp, #8]
    88c0:	f2c0 0106 	movt	r1, #6
    88c4:	eb03 0484 	add.w	r4, r3, r4, lsl #2
    88c8:	6014      	str	r4, [r2, #0]
    88ca:	9a54      	ldr	r2, [sp, #336]	; 0x150
    88cc:	f646 33c8 	movw	r3, #27592	; 0x6bc8
    88d0:	f2c0 0306 	movt	r3, #6
    88d4:	4620      	mov	r0, r4
    88d6:	f8c1 e000 	str.w	lr, [r1]
    88da:	601a      	str	r2, [r3, #0]
    88dc:	f850 3b04 	ldr.w	r3, [r0], #4
    88e0:	2b00      	cmp	r3, #0
    88e2:	d1fb      	bne.n	88dc <__libc_start_main+0x58>
    88e4:	f009 f8fa 	bl	11adc <_dl_aux_init>
    88e8:	f247 130c 	movw	r3, #28940	; 0x710c
    88ec:	f2c0 0306 	movt	r3, #6
    88f0:	681b      	ldr	r3, [r3, #0]
    88f2:	b98b      	cbnz	r3, 8918 <__libc_start_main+0x94>
    88f4:	f009 fc94 	bl	12220 <_dl_discover_osversion>
    88f8:	2800      	cmp	r0, #0
    88fa:	f2c0 8096 	blt.w	8a2a <__libc_start_main+0x1a6>
    88fe:	4b5b      	ldr	r3, [pc, #364]	; (8a6c <__libc_start_main+0x1e8>)
    8900:	681b      	ldr	r3, [r3, #0]
    8902:	2b00      	cmp	r3, #0
    8904:	f040 808d 	bne.w	8a22 <__libc_start_main+0x19e>
    8908:	4b58      	ldr	r3, [pc, #352]	; (8a6c <__libc_start_main+0x1e8>)
    890a:	6018      	str	r0, [r3, #0]
    890c:	f240 630f 	movw	r3, #1551	; 0x60f
    8910:	f2c0 0302 	movt	r3, #2
    8914:	4298      	cmp	r0, r3
    8916:	dd55      	ble.n	89c4 <__libc_start_main+0x140>
    8918:	f000 fa30 	bl	8d7c <__libc_csu_irel>
    891c:	f000 fa22 	bl	8d64 <__pthread_initialize_minimal>
    8920:	f646 33c4 	movw	r3, #27588	; 0x6bc4
    8924:	f2c0 0306 	movt	r3, #6
    8928:	2200      	movs	r2, #0
    892a:	924b      	str	r2, [sp, #300]	; 0x12c
    892c:	6819      	ldr	r1, [r3, #0]
    892e:	2900      	cmp	r1, #0
    8930:	d04b      	beq.n	89ca <__libc_start_main+0x146>
    8932:	a84b      	add	r0, sp, #300	; 0x12c
    8934:	2203      	movs	r2, #3
    8936:	3001      	adds	r0, #1
    8938:	f007 ec32 	blx	101a0 <memcpy>
    893c:	9a4b      	ldr	r2, [sp, #300]	; 0x12c
    893e:	f646 33c0 	movw	r3, #27584	; 0x6bc0
    8942:	f2c0 0306 	movt	r3, #6
    8946:	601a      	str	r2, [r3, #0]
    8948:	b125      	cbz	r5, 8954 <__libc_start_main+0xd0>
    894a:	2100      	movs	r1, #0
    894c:	4628      	mov	r0, r5
    894e:	460a      	mov	r2, r1
    8950:	f000 fc40 	bl	91d4 <__cxa_atexit>
    8954:	f248 1310 	movw	r3, #33040	; 0x8110
    8958:	f2c0 0306 	movt	r3, #6
    895c:	9801      	ldr	r0, [sp, #4]
    895e:	9902      	ldr	r1, [sp, #8]
    8960:	681a      	ldr	r2, [r3, #0]
    8962:	f009 fcb3 	bl	122cc <__libc_init_first>
    8966:	b127      	cbz	r7, 8972 <__libc_start_main+0xee>
    8968:	2100      	movs	r1, #0
    896a:	4638      	mov	r0, r7
    896c:	460a      	mov	r2, r1
    896e:	f000 fc31 	bl	91d4 <__cxa_atexit>
    8972:	f646 33cc 	movw	r3, #27596	; 0x6bcc
    8976:	f2c0 0306 	movt	r3, #6
    897a:	681b      	ldr	r3, [r3, #0]
    897c:	2b00      	cmp	r3, #0
    897e:	d171      	bne.n	8a64 <__libc_start_main+0x1e0>
    8980:	b126      	cbz	r6, 898c <__libc_start_main+0x108>
    8982:	4b3b      	ldr	r3, [pc, #236]	; (8a70 <__libc_start_main+0x1ec>)
    8984:	9801      	ldr	r0, [sp, #4]
    8986:	9902      	ldr	r1, [sp, #8]
    8988:	681a      	ldr	r2, [r3, #0]
    898a:	47b0      	blx	r6
    898c:	a804      	add	r0, sp, #16
    898e:	f000 ea60 	blx	8e50 <_setjmp>
    8992:	2800      	cmp	r0, #0
    8994:	d14c      	bne.n	8a30 <__libc_start_main+0x1ac>
    8996:	ee1d 5f70 	mrc	15, 0, r5, cr13, cr0, {3}
    899a:	f248 1210 	movw	r2, #33040	; 0x8110
    899e:	f5a5 6598 	sub.w	r5, r5, #1216	; 0x4c0
    89a2:	f2c0 0206 	movt	r2, #6
    89a6:	ae04      	add	r6, sp, #16
    89a8:	9801      	ldr	r0, [sp, #4]
    89aa:	f8d5 4080 	ldr.w	r4, [r5, #128]	; 0x80
    89ae:	6feb      	ldr	r3, [r5, #124]	; 0x7c
    89b0:	9902      	ldr	r1, [sp, #8]
    89b2:	f8c5 6080 	str.w	r6, [r5, #128]	; 0x80
    89b6:	9347      	str	r3, [sp, #284]	; 0x11c
    89b8:	6812      	ldr	r2, [r2, #0]
    89ba:	9446      	str	r4, [sp, #280]	; 0x118
    89bc:	9b03      	ldr	r3, [sp, #12]
    89be:	4798      	blx	r3
    89c0:	f000 fb4c 	bl	905c <exit>
    89c4:	482b      	ldr	r0, [pc, #172]	; (8a74 <__libc_start_main+0x1f0>)
    89c6:	f000 ffe3 	bl	9990 <__libc_fatal>
    89ca:	482b      	ldr	r0, [pc, #172]	; (8a78 <__libc_start_main+0x1f4>)
    89cc:	f007 efc8 	blx	10960 <__libc_open>
    89d0:	1e04      	subs	r4, r0, #0
    89d2:	db0b      	blt.n	89ec <__libc_start_main+0x168>
    89d4:	a94b      	add	r1, sp, #300	; 0x12c
    89d6:	2203      	movs	r2, #3
    89d8:	3101      	adds	r1, #1
    89da:	f008 e852 	blx	10a80 <__libc_read>
    89de:	4680      	mov	r8, r0
    89e0:	4620      	mov	r0, r4
    89e2:	f008 e806 	blx	109f0 <__libc_close>
    89e6:	f1b8 0f03 	cmp.w	r8, #3
    89ea:	d0a7      	beq.n	893c <__libc_start_main+0xb8>
    89ec:	23ff      	movs	r3, #255	; 0xff
    89ee:	220a      	movs	r2, #10
    89f0:	f88d 312f 	strb.w	r3, [sp, #303]	; 0x12f
    89f4:	f64f 73f0 	movw	r3, #65520	; 0xfff0
    89f8:	f88d 212e 	strb.w	r2, [sp, #302]	; 0x12e
    89fc:	f2c0 037f 	movt	r3, #127	; 0x7f
    8a00:	aa4b      	add	r2, sp, #300	; 0x12c
    8a02:	9c4b      	ldr	r4, [sp, #300]	; 0x12c
    8a04:	3201      	adds	r2, #1
    8a06:	4013      	ands	r3, r2
    8a08:	ea84 2443 	eor.w	r4, r4, r3, lsl #9
    8a0c:	f000 fa10 	bl	8e30 <__errno_location>
    8a10:	f44f 437f 	mov.w	r3, #65280	; 0xff00
    8a14:	f2c0 037f 	movt	r3, #127	; 0x7f
    8a18:	4003      	ands	r3, r0
    8a1a:	ea84 03c3 	eor.w	r3, r4, r3, lsl #3
    8a1e:	934b      	str	r3, [sp, #300]	; 0x12c
    8a20:	e78c      	b.n	893c <__libc_start_main+0xb8>
    8a22:	4283      	cmp	r3, r0
    8a24:	f67f af72 	bls.w	890c <__libc_start_main+0x88>
    8a28:	e76e      	b.n	8908 <__libc_start_main+0x84>
    8a2a:	4814      	ldr	r0, [pc, #80]	; (8a7c <__libc_start_main+0x1f8>)
    8a2c:	f000 ffb0 	bl	9990 <__libc_fatal>
    8a30:	f3af 8000 	nop.w
    8a34:	4a12      	ldr	r2, [pc, #72]	; (8a80 <__libc_start_main+0x1fc>)
    8a36:	6813      	ldr	r3, [r2, #0]
    8a38:	1e58      	subs	r0, r3, #1
    8a3a:	f3bf 8f5f 	dmb	sy
    8a3e:	e852 1f00 	ldrex	r1, [r2]
    8a42:	4299      	cmp	r1, r3
    8a44:	d105      	bne.n	8a52 <__libc_start_main+0x1ce>
    8a46:	e842 0100 	strex	r1, r0, [r2]
    8a4a:	f091 0f00 	teq	r1, #0
    8a4e:	d1f6      	bne.n	8a3e <__libc_start_main+0x1ba>
    8a50:	4619      	mov	r1, r3
    8a52:	f3bf 8f5f 	dmb	sy
    8a56:	428b      	cmp	r3, r1
    8a58:	d1ed      	bne.n	8a36 <__libc_start_main+0x1b2>
    8a5a:	2000      	movs	r0, #0
    8a5c:	2b01      	cmp	r3, #1
    8a5e:	d0af      	beq.n	89c0 <__libc_start_main+0x13c>
    8a60:	f007 ef46 	blx	108f0 <__exit_thread>
    8a64:	f000 f85e 	bl	8b24 <__libc_check_standard_fds>
    8a68:	e78a      	b.n	8980 <__libc_start_main+0xfc>
    8a6a:	bf00      	nop
    8a6c:	00068b20 	.word	0x00068b20
    8a70:	00068110 	.word	0x00068110
    8a74:	00048afc 	.word	0x00048afc
    8a78:	00048b3c 	.word	0x00048b3c
    8a7c:	00048b14 	.word	0x00048b14
    8a80:	00000000 	.word	0x00000000

00008a84 <check_one_fd>:
    8a84:	b5f0      	push	{r4, r5, r6, r7, lr}
    8a86:	460d      	mov	r5, r1
    8a88:	b09b      	sub	sp, #108	; 0x6c
    8a8a:	2101      	movs	r1, #1
    8a8c:	4604      	mov	r4, r0
    8a8e:	f008 f851 	bl	10b34 <__libc_fcntl>
    8a92:	3001      	adds	r0, #1
    8a94:	d001      	beq.n	8a9a <check_one_fd+0x16>
    8a96:	b01b      	add	sp, #108	; 0x6c
    8a98:	bdf0      	pop	{r4, r5, r6, r7, pc}
    8a9a:	4a1e      	ldr	r2, [pc, #120]	; (8b14 <check_one_fd+0x90>)
    8a9c:	ee1d 3f70 	mrc	15, 0, r3, cr13, cr0, {3}
    8aa0:	447a      	add	r2, pc
    8aa2:	6812      	ldr	r2, [r2, #0]
    8aa4:	589a      	ldr	r2, [r3, r2]
    8aa6:	2a09      	cmp	r2, #9
    8aa8:	d1f5      	bne.n	8a96 <check_one_fd+0x12>
    8aaa:	f005 0203 	and.w	r2, r5, #3
    8aae:	2a01      	cmp	r2, #1
    8ab0:	d02a      	beq.n	8b08 <check_one_fd+0x84>
    8ab2:	4819      	ldr	r0, [pc, #100]	; (8b18 <check_one_fd+0x94>)
    8ab4:	2700      	movs	r7, #0
    8ab6:	f240 1603 	movw	r6, #259	; 0x103
    8aba:	4629      	mov	r1, r5
    8abc:	2200      	movs	r2, #0
    8abe:	f04f 0c05 	mov.w	ip, #5
    8ac2:	f000 f9ad 	bl	8e20 <__libc_do_syscall>
    8ac6:	f510 5f80 	cmn.w	r0, #4096	; 0x1000
    8aca:	d815      	bhi.n	8af8 <check_one_fd+0x74>
    8acc:	4284      	cmp	r4, r0
    8ace:	d112      	bne.n	8af6 <check_one_fd+0x72>
    8ad0:	2003      	movs	r0, #3
    8ad2:	4621      	mov	r1, r4
    8ad4:	466a      	mov	r2, sp
    8ad6:	f007 ff1b 	bl	10910 <___fxstat64>
    8ada:	b960      	cbnz	r0, 8af6 <check_one_fd+0x72>
    8adc:	9b04      	ldr	r3, [sp, #16]
    8ade:	f403 4370 	and.w	r3, r3, #61440	; 0xf000
    8ae2:	f5b3 5f00 	cmp.w	r3, #8192	; 0x2000
    8ae6:	d106      	bne.n	8af6 <check_one_fd+0x72>
    8ae8:	e9dd 2308 	ldrd	r2, r3, [sp, #32]
    8aec:	4072      	eors	r2, r6
    8aee:	407b      	eors	r3, r7
    8af0:	ea52 0103 	orrs.w	r1, r2, r3
    8af4:	d0cf      	beq.n	8a96 <check_one_fd+0x12>
    8af6:	e7fe      	b.n	8af6 <check_one_fd+0x72>
    8af8:	4a08      	ldr	r2, [pc, #32]	; (8b1c <check_one_fd+0x98>)
    8afa:	4241      	negs	r1, r0
    8afc:	f04f 30ff 	mov.w	r0, #4294967295	; 0xffffffff
    8b00:	447a      	add	r2, pc
    8b02:	6812      	ldr	r2, [r2, #0]
    8b04:	5099      	str	r1, [r3, r2]
    8b06:	e7e1      	b.n	8acc <check_one_fd+0x48>
    8b08:	f240 1607 	movw	r6, #263	; 0x107
    8b0c:	2700      	movs	r7, #0
    8b0e:	4804      	ldr	r0, [pc, #16]	; (8b20 <check_one_fd+0x9c>)
    8b10:	e7d3      	b.n	8aba <check_one_fd+0x36>
    8b12:	bf00      	nop
    8b14:	0005e18c 	.word	0x0005e18c
    8b18:	00048b58 	.word	0x00048b58
    8b1c:	0005e12c 	.word	0x0005e12c
    8b20:	00048b4c 	.word	0x00048b4c

00008b24 <__libc_check_standard_fds>:
    8b24:	b508      	push	{r3, lr}
    8b26:	2000      	movs	r0, #0
    8b28:	f248 0101 	movw	r1, #32769	; 0x8001
    8b2c:	f7ff ffaa 	bl	8a84 <check_one_fd>
    8b30:	2001      	movs	r0, #1
    8b32:	f44f 4100 	mov.w	r1, #32768	; 0x8000
    8b36:	f7ff ffa5 	bl	8a84 <check_one_fd>
    8b3a:	2002      	movs	r0, #2
    8b3c:	f44f 4100 	mov.w	r1, #32768	; 0x8000
    8b40:	e8bd 4008 	ldmia.w	sp!, {r3, lr}
    8b44:	f7ff bf9e 	b.w	8a84 <check_one_fd>

00008b48 <__libc_setup_tls>:
    8b48:	4b5f      	ldr	r3, [pc, #380]	; (8cc8 <__libc_setup_tls+0x180>)
    8b4a:	e92d 4ff0 	stmdb	sp!, {r4, r5, r6, r7, r8, r9, sl, fp, lr}
    8b4e:	b083      	sub	sp, #12
    8b50:	681c      	ldr	r4, [r3, #0]
    8b52:	2c00      	cmp	r4, #0
    8b54:	f000 80b2 	beq.w	8cbc <__libc_setup_tls+0x174>
    8b58:	4b5c      	ldr	r3, [pc, #368]	; (8ccc <__libc_setup_tls+0x184>)
    8b5a:	681d      	ldr	r5, [r3, #0]
    8b5c:	eb04 1545 	add.w	r5, r4, r5, lsl #5
    8b60:	42a5      	cmp	r5, r4
    8b62:	d911      	bls.n	8b88 <__libc_setup_tls+0x40>
    8b64:	6823      	ldr	r3, [r4, #0]
    8b66:	2b07      	cmp	r3, #7
    8b68:	4623      	mov	r3, r4
    8b6a:	bf18      	it	ne
    8b6c:	f104 0720 	addne.w	r7, r4, #32
    8b70:	d107      	bne.n	8b82 <__libc_setup_tls+0x3a>
    8b72:	e08b      	b.n	8c8c <__libc_setup_tls+0x144>
    8b74:	1b1a      	subs	r2, r3, r4
    8b76:	19d2      	adds	r2, r2, r7
    8b78:	f852 2c20 	ldr.w	r2, [r2, #-32]
    8b7c:	2a07      	cmp	r2, #7
    8b7e:	f000 8085 	beq.w	8c8c <__libc_setup_tls+0x144>
    8b82:	3320      	adds	r3, #32
    8b84:	429d      	cmp	r5, r3
    8b86:	d8f5      	bhi.n	8b74 <__libc_setup_tls+0x2c>
    8b88:	f04f 0900 	mov.w	r9, #0
    8b8c:	460e      	mov	r6, r1
    8b8e:	46c8      	mov	r8, r9
    8b90:	f8cd 9004 	str.w	r9, [sp, #4]
    8b94:	f8cd 9000 	str.w	r9, [sp]
    8b98:	2401      	movs	r4, #1
    8b9a:	f04f 0a00 	mov.w	sl, #0
    8b9e:	4f4c      	ldr	r7, [pc, #304]	; (8cd0 <__libc_setup_tls+0x188>)
    8ba0:	f04f 0b01 	mov.w	fp, #1
    8ba4:	fb04 f500 	mul.w	r5, r4, r0
    8ba8:	4c4a      	ldr	r4, [pc, #296]	; (8cd4 <__libc_setup_tls+0x18c>)
    8baa:	6838      	ldr	r0, [r7, #0]
    8bac:	f500 6098 	add.w	r0, r0, #1216	; 0x4c0
    8bb0:	4440      	add	r0, r8
    8bb2:	1980      	adds	r0, r0, r6
    8bb4:	1940      	adds	r0, r0, r5
    8bb6:	f008 f80b 	bl	10bd0 <__sbrk>
    8bba:	4649      	mov	r1, r9
    8bbc:	f1c6 0e00 	rsb	lr, r6, #0
    8bc0:	233e      	movs	r3, #62	; 0x3e
    8bc2:	9a00      	ldr	r2, [sp, #0]
    8bc4:	6023      	str	r3, [r4, #0]
    8bc6:	f8c4 5438 	str.w	r5, [r4, #1080]	; 0x438
    8bca:	f884 b014 	strb.w	fp, [r4, #20]
    8bce:	eb00 0906 	add.w	r9, r0, r6
    8bd2:	f509 6996 	add.w	r9, r9, #1200	; 0x4b0
    8bd6:	f109 090f 	add.w	r9, r9, #15
    8bda:	ea09 090e 	and.w	r9, r9, lr
    8bde:	eb09 0005 	add.w	r0, r9, r5
    8be2:	6120      	str	r0, [r4, #16]
    8be4:	f007 eadc 	blx	101a0 <memcpy>
    8be8:	f104 0308 	add.w	r3, r4, #8
    8bec:	4648      	mov	r0, r9
    8bee:	f8c9 3000 	str.w	r3, [r9]
    8bf2:	f04f 0c05 	mov.w	ip, #5
    8bf6:	f2c0 0c0f 	movt	ip, #15
    8bfa:	f000 f911 	bl	8e20 <__libc_do_syscall>
    8bfe:	f510 5f80 	cmn.w	r0, #4096	; 0x1000
    8c02:	d902      	bls.n	8c0a <__libc_setup_tls+0xc2>
    8c04:	4834      	ldr	r0, [pc, #208]	; (8cd8 <__libc_setup_tls+0x190>)
    8c06:	f000 fec3 	bl	9990 <__libc_fatal>
    8c0a:	9801      	ldr	r0, [sp, #4]
    8c0c:	f504 618a 	add.w	r1, r4, #1104	; 0x450
    8c10:	f894 3394 	ldrb.w	r3, [r4, #916]	; 0x394
    8c14:	f504 7200 	add.w	r2, r4, #512	; 0x200
    8c18:	f8c4 a430 	str.w	sl, [r4, #1072]	; 0x430
    8c1c:	f36f 0301 	bfc	r3, #0, #2
    8c20:	f8c4 0424 	str.w	r0, [r4, #1060]	; 0x424
    8c24:	9800      	ldr	r0, [sp, #0]
    8c26:	f884 3394 	strb.w	r3, [r4, #916]	; 0x394
    8c2a:	2340      	movs	r3, #64	; 0x40
    8c2c:	f8c4 3450 	str.w	r3, [r4, #1104]	; 0x450
    8c30:	4b2a      	ldr	r3, [pc, #168]	; (8cdc <__libc_setup_tls+0x194>)
    8c32:	f8c4 842c 	str.w	r8, [r4, #1068]	; 0x42c
    8c36:	f8c4 0428 	str.w	r0, [r4, #1064]	; 0x428
    8c3a:	f8c3 b000 	str.w	fp, [r3]
    8c3e:	4b28      	ldr	r3, [pc, #160]	; (8ce0 <__libc_setup_tls+0x198>)
    8c40:	f8c4 b43c 	str.w	fp, [r4, #1084]	; 0x43c
    8c44:	f8c4 2464 	str.w	r2, [r4, #1124]	; 0x464
    8c48:	6019      	str	r1, [r3, #0]
    8c4a:	f1ba 0f00 	cmp.w	sl, #0
    8c4e:	d115      	bne.n	8c7c <__libc_setup_tls+0x134>
    8c50:	46da      	mov	sl, fp
    8c52:	fb0a 5508 	mla	r5, sl, r8, r5
    8c56:	683b      	ldr	r3, [r7, #0]
    8c58:	2e10      	cmp	r6, #16
    8c5a:	bf38      	it	cc
    8c5c:	2610      	movcc	r6, #16
    8c5e:	2201      	movs	r2, #1
    8c60:	330f      	adds	r3, #15
    8c62:	195b      	adds	r3, r3, r5
    8c64:	f023 030f 	bic.w	r3, r3, #15
    8c68:	603b      	str	r3, [r7, #0]
    8c6a:	4b1e      	ldr	r3, [pc, #120]	; (8ce4 <__libc_setup_tls+0x19c>)
    8c6c:	601d      	str	r5, [r3, #0]
    8c6e:	4b1e      	ldr	r3, [pc, #120]	; (8ce8 <__libc_setup_tls+0x1a0>)
    8c70:	601e      	str	r6, [r3, #0]
    8c72:	4b1e      	ldr	r3, [pc, #120]	; (8cec <__libc_setup_tls+0x1a4>)
    8c74:	601a      	str	r2, [r3, #0]
    8c76:	b003      	add	sp, #12
    8c78:	e8bd 8ff0 	ldmia.w	sp!, {r4, r5, r6, r7, r8, r9, sl, fp, pc}
    8c7c:	eb08 000a 	add.w	r0, r8, sl
    8c80:	4651      	mov	r1, sl
    8c82:	3801      	subs	r0, #1
    8c84:	f03d fe54 	bl	46930 <__aeabi_uidiv>
    8c88:	4680      	mov	r8, r0
    8c8a:	e7e2      	b.n	8c52 <__libc_setup_tls+0x10a>
    8c8c:	69dc      	ldr	r4, [r3, #28]
    8c8e:	691a      	ldr	r2, [r3, #16]
    8c90:	f8d3 8014 	ldr.w	r8, [r3, #20]
    8c94:	42a1      	cmp	r1, r4
    8c96:	bf2c      	ite	cs
    8c98:	460e      	movcs	r6, r1
    8c9a:	4626      	movcc	r6, r4
    8c9c:	689b      	ldr	r3, [r3, #8]
    8c9e:	9200      	str	r2, [sp, #0]
    8ca0:	9301      	str	r3, [sp, #4]
    8ca2:	4699      	mov	r9, r3
    8ca4:	2c00      	cmp	r4, #0
    8ca6:	f43f af77 	beq.w	8b98 <__libc_setup_tls+0x50>
    8caa:	1e63      	subs	r3, r4, #1
    8cac:	4621      	mov	r1, r4
    8cae:	1818      	adds	r0, r3, r0
    8cb0:	f8dd 9004 	ldr.w	r9, [sp, #4]
    8cb4:	f03d fe3c 	bl	46930 <__aeabi_uidiv>
    8cb8:	46a2      	mov	sl, r4
    8cba:	e770      	b.n	8b9e <__libc_setup_tls+0x56>
    8cbc:	46a1      	mov	r9, r4
    8cbe:	460e      	mov	r6, r1
    8cc0:	9401      	str	r4, [sp, #4]
    8cc2:	46a0      	mov	r8, r4
    8cc4:	9400      	str	r4, [sp, #0]
    8cc6:	e767      	b.n	8b98 <__libc_setup_tls+0x50>
    8cc8:	00068aec 	.word	0x00068aec
    8ccc:	00068b10 	.word	0x00068b10
    8cd0:	00066c68 	.word	0x00066c68
    8cd4:	00067388 	.word	0x00067388
    8cd8:	00048b64 	.word	0x00048b64
    8cdc:	00068a88 	.word	0x00068a88
    8ce0:	00068a8c 	.word	0x00068a8c
    8ce4:	00068a80 	.word	0x00068a80
    8ce8:	00068a84 	.word	0x00068a84
    8cec:	00068a98 	.word	0x00068a98

00008cf0 <_dl_tls_setup>:
    8cf0:	f646 4368 	movw	r3, #27752	; 0x6c68
    8cf4:	f2c0 0306 	movt	r3, #6
    8cf8:	e92d 07f0 	stmdb	sp!, {r4, r5, r6, r7, r8, r9, sl}
    8cfc:	f247 3088 	movw	r0, #29576	; 0x7388
    8d00:	681f      	ldr	r7, [r3, #0]
    8d02:	f2c0 0006 	movt	r0, #6
    8d06:	f648 2688 	movw	r6, #35464	; 0x8a88
    8d0a:	f648 258c 	movw	r5, #35468	; 0x8a8c
    8d0e:	f2c0 0606 	movt	r6, #6
    8d12:	f2c0 0506 	movt	r5, #6
    8d16:	f648 2480 	movw	r4, #35456	; 0x8a80
    8d1a:	f648 2184 	movw	r1, #35460	; 0x8a84
    8d1e:	f2c0 0406 	movt	r4, #6
    8d22:	f2c0 0106 	movt	r1, #6
    8d26:	f648 2298 	movw	r2, #35480	; 0x8a98
    8d2a:	f2c0 0206 	movt	r2, #6
    8d2e:	f04f 0c00 	mov.w	ip, #0
    8d32:	f107 080f 	add.w	r8, r7, #15
    8d36:	f500 698a 	add.w	r9, r0, #1104	; 0x450
    8d3a:	2701      	movs	r7, #1
    8d3c:	f028 080f 	bic.w	r8, r8, #15
    8d40:	f04f 0a40 	mov.w	sl, #64	; 0x40
    8d44:	f8c3 8000 	str.w	r8, [r3]
    8d48:	2310      	movs	r3, #16
    8d4a:	f8c0 a450 	str.w	sl, [r0, #1104]	; 0x450
    8d4e:	4660      	mov	r0, ip
    8d50:	6037      	str	r7, [r6, #0]
    8d52:	f8c5 9000 	str.w	r9, [r5]
    8d56:	f8c4 c000 	str.w	ip, [r4]
    8d5a:	600b      	str	r3, [r1, #0]
    8d5c:	6017      	str	r7, [r2, #0]
    8d5e:	e8bd 07f0 	ldmia.w	sp!, {r4, r5, r6, r7, r8, r9, sl}
    8d62:	4770      	bx	lr

00008d64 <__pthread_initialize_minimal>:
    8d64:	2008      	movs	r0, #8
    8d66:	2110      	movs	r1, #16
    8d68:	f7ff beee 	b.w	8b48 <__libc_setup_tls>

00008d6c <__tls_get_addr>:
    8d6c:	ee1d 2f70 	mrc	15, 0, r2, cr13, cr0, {3}
    8d70:	6843      	ldr	r3, [r0, #4]
    8d72:	6812      	ldr	r2, [r2, #0]
    8d74:	6890      	ldr	r0, [r2, #8]
    8d76:	18c0      	adds	r0, r0, r3
    8d78:	4770      	bx	lr
    8d7a:	bf00      	nop

00008d7c <__libc_csu_irel>:
    8d7c:	4770      	bx	lr
    8d7e:	bf00      	nop

00008d80 <__libc_csu_init>:
    8d80:	e92d 43f8 	stmdb	sp!, {r3, r4, r5, r6, r7, r8, r9, lr}
    8d84:	4617      	mov	r7, r2
    8d86:	4b15      	ldr	r3, [pc, #84]	; (8ddc <__libc_csu_init+0x5c>)
    8d88:	4605      	mov	r5, r0
    8d8a:	4a15      	ldr	r2, [pc, #84]	; (8de0 <__libc_csu_init+0x60>)
    8d8c:	460e      	mov	r6, r1
    8d8e:	ebc3 0902 	rsb	r9, r3, r2
    8d92:	ea5f 09a9 	movs.w	r9, r9, asr #2
    8d96:	d00a      	beq.n	8dae <__libc_csu_init+0x2e>
    8d98:	2400      	movs	r4, #0
    8d9a:	4698      	mov	r8, r3
    8d9c:	f858 3b04 	ldr.w	r3, [r8], #4
    8da0:	4628      	mov	r0, r5
    8da2:	4631      	mov	r1, r6
    8da4:	463a      	mov	r2, r7
    8da6:	3401      	adds	r4, #1
    8da8:	4798      	blx	r3
    8daa:	454c      	cmp	r4, r9
    8dac:	d1f6      	bne.n	8d9c <__libc_csu_init+0x1c>
    8dae:	f7ff f9c3 	bl	8138 <_init>
    8db2:	4b0c      	ldr	r3, [pc, #48]	; (8de4 <__libc_csu_init+0x64>)
    8db4:	4a0c      	ldr	r2, [pc, #48]	; (8de8 <__libc_csu_init+0x68>)
    8db6:	ebc3 0902 	rsb	r9, r3, r2
    8dba:	ea5f 09a9 	movs.w	r9, r9, asr #2
    8dbe:	d00a      	beq.n	8dd6 <__libc_csu_init+0x56>
    8dc0:	2400      	movs	r4, #0
    8dc2:	4698      	mov	r8, r3
    8dc4:	f858 3b04 	ldr.w	r3, [r8], #4
    8dc8:	4628      	mov	r0, r5
    8dca:	4631      	mov	r1, r6
    8dcc:	463a      	mov	r2, r7
    8dce:	3401      	adds	r4, #1
    8dd0:	4798      	blx	r3
    8dd2:	454c      	cmp	r4, r9
    8dd4:	d1f6      	bne.n	8dc4 <__libc_csu_init+0x44>
    8dd6:	e8bd 83f8 	ldmia.w	sp!, {r3, r4, r5, r6, r7, r8, r9, pc}
    8dda:	bf00      	nop
    8ddc:	00066bb0 	.word	0x00066bb0
    8de0:	00066bb0 	.word	0x00066bb0
    8de4:	00066bb0 	.word	0x00066bb0
    8de8:	00066bb4 	.word	0x00066bb4

00008dec <__libc_csu_fini>:
    8dec:	b538      	push	{r3, r4, r5, lr}
    8dee:	4d08      	ldr	r5, [pc, #32]	; (8e10 <__libc_csu_fini+0x24>)
    8df0:	4c08      	ldr	r4, [pc, #32]	; (8e14 <__libc_csu_fini+0x28>)
    8df2:	1b64      	subs	r4, r4, r5
    8df4:	10a4      	asrs	r4, r4, #2
    8df6:	d006      	beq.n	8e06 <__libc_csu_fini+0x1a>
    8df8:	eb05 0584 	add.w	r5, r5, r4, lsl #2
    8dfc:	f855 3d04 	ldr.w	r3, [r5, #-4]!
    8e00:	4798      	blx	r3
    8e02:	3c01      	subs	r4, #1
    8e04:	d1fa      	bne.n	8dfc <__libc_csu_fini+0x10>
    8e06:	e8bd 4038 	ldmia.w	sp!, {r3, r4, r5, lr}
    8e0a:	f03f be71 	b.w	48af0 <_fini>
    8e0e:	bf00      	nop
    8e10:	00066bb4 	.word	0x00066bb4
    8e14:	00066bbc 	.word	0x00066bbc
	...

00008e20 <__libc_do_syscall>:
    8e20:	b580      	push	{r7, lr}
    8e22:	4667      	mov	r7, ip
    8e24:	df00      	svc	0
    8e26:	bd80      	pop	{r7, pc}
    8e28:	f3af 8000 	nop.w
    8e2c:	f3af 8000 	nop.w

00008e30 <__errno_location>:
    8e30:	4b03      	ldr	r3, [pc, #12]	; (8e40 <__errno_location+0x10>)
    8e32:	ee1d 0f70 	mrc	15, 0, r0, cr13, cr0, {3}
    8e36:	447b      	add	r3, pc
    8e38:	681b      	ldr	r3, [r3, #0]
    8e3a:	18c0      	adds	r0, r0, r3
    8e3c:	4770      	bx	lr
    8e3e:	bf00      	nop
    8e40:	0005ddf6 	.word	0x0005ddf6
	...

00008e50 <_setjmp>:
    8e50:	e3a01000 	mov	r1, #0
    8e54:	ea0031d1 	b	155a0 <__sigsetjmp>
    8e58:	e320f000 	nop	{0}
    8e5c:	e320f000 	nop	{0}

00008e60 <atoi>:
    8e60:	2100      	movs	r1, #0
    8e62:	220a      	movs	r2, #10
    8e64:	f000 b9cc 	b.w	9200 <strtol>

00008e68 <abort>:
    8e68:	4c5d      	ldr	r4, [pc, #372]	; (8fe0 <abort+0x178>)
    8e6a:	ee1d 5f70 	mrc	15, 0, r5, cr13, cr0, {3}
    8e6e:	f5a5 6598 	sub.w	r5, r5, #1216	; 0x4c0
    8e72:	b580      	push	{r7, lr}
    8e74:	b0c4      	sub	sp, #272	; 0x110
    8e76:	68a3      	ldr	r3, [r4, #8]
    8e78:	42ab      	cmp	r3, r5
    8e7a:	d013      	beq.n	8ea4 <abort+0x3c>
    8e7c:	2300      	movs	r3, #0
    8e7e:	2101      	movs	r1, #1
    8e80:	f3bf 8f5f 	dmb	sy
    8e84:	e854 2f00 	ldrex	r2, [r4]
    8e88:	429a      	cmp	r2, r3
    8e8a:	d105      	bne.n	8e98 <abort+0x30>
    8e8c:	e844 1200 	strex	r2, r1, [r4]
    8e90:	f092 0f00 	teq	r2, #0
    8e94:	d1f6      	bne.n	8e84 <abort+0x1c>
    8e96:	461a      	mov	r2, r3
    8e98:	f3bf 8f5f 	dmb	sy
    8e9c:	2a00      	cmp	r2, #0
    8e9e:	f040 8094 	bne.w	8fca <abort+0x162>
    8ea2:	60a5      	str	r5, [r4, #8]
    8ea4:	6863      	ldr	r3, [r4, #4]
    8ea6:	68e6      	ldr	r6, [r4, #12]
    8ea8:	3301      	adds	r3, #1
    8eaa:	4f4d      	ldr	r7, [pc, #308]	; (8fe0 <abort+0x178>)
    8eac:	6063      	str	r3, [r4, #4]
    8eae:	2e00      	cmp	r6, #0
    8eb0:	d079      	beq.n	8fa6 <abort+0x13e>
    8eb2:	2e01      	cmp	r6, #1
    8eb4:	f000 808d 	beq.w	8fd2 <abort+0x16a>
    8eb8:	2e02      	cmp	r6, #2
    8eba:	d01b      	beq.n	8ef4 <abort+0x8c>
    8ebc:	2e03      	cmp	r6, #3
    8ebe:	d05c      	beq.n	8f7a <abort+0x112>
    8ec0:	2e04      	cmp	r6, #4
    8ec2:	d011      	beq.n	8ee8 <abort+0x80>
    8ec4:	2e05      	cmp	r6, #5
    8ec6:	d009      	beq.n	8edc <abort+0x74>
    8ec8:	2e06      	cmp	r6, #6
    8eca:	d002      	beq.n	8ed2 <abort+0x6a>
    8ecc:	2e07      	cmp	r6, #7
    8ece:	d000      	beq.n	8ed2 <abort+0x6a>
    8ed0:	e7fe      	b.n	8ed0 <abort+0x68>
    8ed2:	207f      	movs	r0, #127	; 0x7f
    8ed4:	2308      	movs	r3, #8
    8ed6:	60e3      	str	r3, [r4, #12]
    8ed8:	f007 fccc 	bl	10874 <_exit>
    8edc:	2006      	movs	r0, #6
    8ede:	60e0      	str	r0, [r4, #12]
    8ee0:	f00c fb98 	bl	15614 <raise>
    8ee4:	68e6      	ldr	r6, [r4, #12]
    8ee6:	e7ef      	b.n	8ec8 <abort+0x60>
    8ee8:	2305      	movs	r3, #5
    8eea:	60e3      	str	r3, [r4, #12]
    8eec:	f000 fbda 	bl	96a4 <__fcloseall>
    8ef0:	68e6      	ldr	r6, [r4, #12]
    8ef2:	e7e7      	b.n	8ec4 <abort+0x5c>
    8ef4:	6863      	ldr	r3, [r4, #4]
    8ef6:	2200      	movs	r2, #0
    8ef8:	60e2      	str	r2, [r4, #12]
    8efa:	3b01      	subs	r3, #1
    8efc:	6063      	str	r3, [r4, #4]
    8efe:	b9f3      	cbnz	r3, 8f3e <abort+0xd6>
    8f00:	4a37      	ldr	r2, [pc, #220]	; (8fe0 <abort+0x178>)
    8f02:	4619      	mov	r1, r3
    8f04:	6093      	str	r3, [r2, #8]
    8f06:	6823      	ldr	r3, [r4, #0]
    8f08:	f3bf 8f5f 	dmb	sy
    8f0c:	e854 2f00 	ldrex	r2, [r4]
    8f10:	429a      	cmp	r2, r3
    8f12:	d105      	bne.n	8f20 <abort+0xb8>
    8f14:	e844 1200 	strex	r2, r1, [r4]
    8f18:	f092 0f00 	teq	r2, #0
    8f1c:	d1f6      	bne.n	8f0c <abort+0xa4>
    8f1e:	461a      	mov	r2, r3
    8f20:	f3bf 8f5f 	dmb	sy
    8f24:	4293      	cmp	r3, r2
    8f26:	d1ee      	bne.n	8f06 <abort+0x9e>
    8f28:	2b01      	cmp	r3, #1
    8f2a:	dd08      	ble.n	8f3e <abort+0xd6>
    8f2c:	68a9      	ldr	r1, [r5, #8]
    8f2e:	2201      	movs	r2, #1
    8f30:	482b      	ldr	r0, [pc, #172]	; (8fe0 <abort+0x178>)
    8f32:	2300      	movs	r3, #0
    8f34:	4311      	orrs	r1, r2
    8f36:	f04f 0cf0 	mov.w	ip, #240	; 0xf0
    8f3a:	f7ff ff71 	bl	8e20 <__libc_do_syscall>
    8f3e:	2006      	movs	r0, #6
    8f40:	f00c fb68 	bl	15614 <raise>
    8f44:	68a3      	ldr	r3, [r4, #8]
    8f46:	4826      	ldr	r0, [pc, #152]	; (8fe0 <abort+0x178>)
    8f48:	429d      	cmp	r5, r3
    8f4a:	d013      	beq.n	8f74 <abort+0x10c>
    8f4c:	2300      	movs	r3, #0
    8f4e:	2101      	movs	r1, #1
    8f50:	f3bf 8f5f 	dmb	sy
    8f54:	e850 2f00 	ldrex	r2, [r0]
    8f58:	429a      	cmp	r2, r3
    8f5a:	d105      	bne.n	8f68 <abort+0x100>
    8f5c:	e840 1200 	strex	r2, r1, [r0]
    8f60:	f092 0f00 	teq	r2, #0
    8f64:	d1f6      	bne.n	8f54 <abort+0xec>
    8f66:	461a      	mov	r2, r3
    8f68:	f3bf 8f5f 	dmb	sy
    8f6c:	b10a      	cbz	r2, 8f72 <abort+0x10a>
    8f6e:	f008 faa7 	bl	114c0 <__lll_lock_wait_private>
    8f72:	60a5      	str	r5, [r4, #8]
    8f74:	6863      	ldr	r3, [r4, #4]
    8f76:	3301      	adds	r3, #1
    8f78:	6063      	str	r3, [r4, #4]
    8f7a:	2100      	movs	r1, #0
    8f7c:	228c      	movs	r2, #140	; 0x8c
    8f7e:	a801      	add	r0, sp, #4
    8f80:	2304      	movs	r3, #4
    8f82:	60e3      	str	r3, [r4, #12]
    8f84:	f007 e894 	blx	100b0 <memset>
    8f88:	ab22      	add	r3, sp, #136	; 0x88
    8f8a:	a902      	add	r1, sp, #8
    8f8c:	f04f 32ff 	mov.w	r2, #4294967295	; 0xffffffff
    8f90:	f843 2d04 	str.w	r2, [r3, #-4]!
    8f94:	428b      	cmp	r3, r1
    8f96:	d1fb      	bne.n	8f90 <abort+0x128>
    8f98:	2006      	movs	r0, #6
    8f9a:	a901      	add	r1, sp, #4
    8f9c:	2200      	movs	r2, #0
    8f9e:	f00c fbdf 	bl	15760 <__sigaction>
    8fa2:	68e6      	ldr	r6, [r4, #12]
    8fa4:	e78c      	b.n	8ec0 <abort+0x58>
    8fa6:	4631      	mov	r1, r6
    8fa8:	f04f 0801 	mov.w	r8, #1
    8fac:	2280      	movs	r2, #128	; 0x80
    8fae:	a824      	add	r0, sp, #144	; 0x90
    8fb0:	f8c7 800c 	str.w	r8, [r7, #12]
    8fb4:	f007 e87c 	blx	100b0 <memset>
    8fb8:	4632      	mov	r2, r6
    8fba:	4640      	mov	r0, r8
    8fbc:	a924      	add	r1, sp, #144	; 0x90
    8fbe:	2320      	movs	r3, #32
    8fc0:	9324      	str	r3, [sp, #144]	; 0x90
    8fc2:	f00c fbdf 	bl	15784 <__sigprocmask>
    8fc6:	68fe      	ldr	r6, [r7, #12]
    8fc8:	e773      	b.n	8eb2 <abort+0x4a>
    8fca:	4620      	mov	r0, r4
    8fcc:	f008 fa78 	bl	114c0 <__lll_lock_wait_private>
    8fd0:	e767      	b.n	8ea2 <abort+0x3a>
    8fd2:	2000      	movs	r0, #0
    8fd4:	2302      	movs	r3, #2
    8fd6:	60e3      	str	r3, [r4, #12]
    8fd8:	f001 fa70 	bl	a4bc <_IO_flush_all_lockp>
    8fdc:	68e6      	ldr	r6, [r4, #12]
    8fde:	e76b      	b.n	8eb8 <abort+0x50>
    8fe0:	000679e0 	.word	0x000679e0

00008fe4 <__run_exit_handlers>:
    8fe4:	b580      	push	{r7, lr}
    8fe6:	4604      	mov	r4, r0
    8fe8:	460d      	mov	r5, r1
    8fea:	4617      	mov	r7, r2
    8fec:	682e      	ldr	r6, [r5, #0]
    8fee:	b306      	cbz	r6, 9032 <__run_exit_handlers+0x4e>
    8ff0:	6873      	ldr	r3, [r6, #4]
    8ff2:	b1db      	cbz	r3, 902c <__run_exit_handlers+0x48>
    8ff4:	3b01      	subs	r3, #1
    8ff6:	6073      	str	r3, [r6, #4]
    8ff8:	0119      	lsls	r1, r3, #4
    8ffa:	3108      	adds	r1, #8
    8ffc:	1872      	adds	r2, r6, r1
    8ffe:	5871      	ldr	r1, [r6, r1]
    9000:	2903      	cmp	r1, #3
    9002:	d00f      	beq.n	9024 <__run_exit_handlers+0x40>
    9004:	2904      	cmp	r1, #4
    9006:	d007      	beq.n	9018 <__run_exit_handlers+0x34>
    9008:	2902      	cmp	r1, #2
    900a:	d1f2      	bne.n	8ff2 <__run_exit_handlers+0xe>
    900c:	6853      	ldr	r3, [r2, #4]
    900e:	4620      	mov	r0, r4
    9010:	6891      	ldr	r1, [r2, #8]
    9012:	4798      	blx	r3
    9014:	6873      	ldr	r3, [r6, #4]
    9016:	e7ec      	b.n	8ff2 <__run_exit_handlers+0xe>
    9018:	6853      	ldr	r3, [r2, #4]
    901a:	4621      	mov	r1, r4
    901c:	6890      	ldr	r0, [r2, #8]
    901e:	4798      	blx	r3
    9020:	6873      	ldr	r3, [r6, #4]
    9022:	e7e6      	b.n	8ff2 <__run_exit_handlers+0xe>
    9024:	6853      	ldr	r3, [r2, #4]
    9026:	4798      	blx	r3
    9028:	6873      	ldr	r3, [r6, #4]
    902a:	e7e2      	b.n	8ff2 <__run_exit_handlers+0xe>
    902c:	6833      	ldr	r3, [r6, #0]
    902e:	602b      	str	r3, [r5, #0]
    9030:	b963      	cbnz	r3, 904c <__run_exit_handlers+0x68>
    9032:	b147      	cbz	r7, 9046 <__run_exit_handlers+0x62>
    9034:	4d07      	ldr	r5, [pc, #28]	; (9054 <__run_exit_handlers+0x70>)
    9036:	4e08      	ldr	r6, [pc, #32]	; (9058 <__run_exit_handlers+0x74>)
    9038:	42b5      	cmp	r5, r6
    903a:	d204      	bcs.n	9046 <__run_exit_handlers+0x62>
    903c:	f855 3b04 	ldr.w	r3, [r5], #4
    9040:	4798      	blx	r3
    9042:	42b5      	cmp	r5, r6
    9044:	d3fa      	bcc.n	903c <__run_exit_handlers+0x58>
    9046:	4620      	mov	r0, r4
    9048:	f007 fc14 	bl	10874 <_exit>
    904c:	4630      	mov	r0, r6
    904e:	f005 fb71 	bl	e734 <__cfree>
    9052:	e7cb      	b.n	8fec <__run_exit_handlers+0x8>
    9054:	0005e0f8 	.word	0x0005e0f8
    9058:	0005e0fc 	.word	0x0005e0fc

0000905c <exit>:
    905c:	f646 416c 	movw	r1, #27756	; 0x6c6c
    9060:	2201      	movs	r2, #1
    9062:	b508      	push	{r3, lr}
    9064:	f2c0 0106 	movt	r1, #6
    9068:	f7ff ffbc 	bl	8fe4 <__run_exit_handlers>

0000906c <__new_exitfn>:
    906c:	e92d 41f0 	stmdb	sp!, {r4, r5, r6, r7, r8, lr}
    9070:	2300      	movs	r3, #0
    9072:	4c48      	ldr	r4, [pc, #288]	; (9194 <__new_exitfn+0x128>)
    9074:	2101      	movs	r1, #1
    9076:	4606      	mov	r6, r0
    9078:	f3bf 8f5f 	dmb	sy
    907c:	e854 2f00 	ldrex	r2, [r4]
    9080:	429a      	cmp	r2, r3
    9082:	d105      	bne.n	9090 <__new_exitfn+0x24>
    9084:	e844 1200 	strex	r2, r1, [r4]
    9088:	f092 0f00 	teq	r2, #0
    908c:	d1f6      	bne.n	907c <__new_exitfn+0x10>
    908e:	461a      	mov	r2, r3
    9090:	f3bf 8f5f 	dmb	sy
    9094:	2a00      	cmp	r2, #0
    9096:	d178      	bne.n	918a <__new_exitfn+0x11e>
    9098:	6835      	ldr	r5, [r6, #0]
    909a:	2d00      	cmp	r5, #0
    909c:	d051      	beq.n	9142 <__new_exitfn+0xd6>
    909e:	2000      	movs	r0, #0
    90a0:	46ac      	mov	ip, r5
    90a2:	4680      	mov	r8, r0
    90a4:	f8dc 7004 	ldr.w	r7, [ip, #4]
    90a8:	b187      	cbz	r7, 90cc <__new_exitfn+0x60>
    90aa:	1e7b      	subs	r3, r7, #1
    90ac:	eb0c 1203 	add.w	r2, ip, r3, lsl #4
    90b0:	6892      	ldr	r2, [r2, #8]
    90b2:	b9a2      	cbnz	r2, 90de <__new_exitfn+0x72>
    90b4:	eb0c 1207 	add.w	r2, ip, r7, lsl #4
    90b8:	3208      	adds	r2, #8
    90ba:	e004      	b.n	90c6 <__new_exitfn+0x5a>
    90bc:	3a10      	subs	r2, #16
    90be:	f852 1c10 	ldr.w	r1, [r2, #-16]
    90c2:	b961      	cbnz	r1, 90de <__new_exitfn+0x72>
    90c4:	3b01      	subs	r3, #1
    90c6:	461f      	mov	r7, r3
    90c8:	2b00      	cmp	r3, #0
    90ca:	d1f7      	bne.n	90bc <__new_exitfn+0x50>
    90cc:	f8dc 3000 	ldr.w	r3, [ip]
    90d0:	4660      	mov	r0, ip
    90d2:	f8cc 8004 	str.w	r8, [ip, #4]
    90d6:	2b00      	cmp	r3, #0
    90d8:	d034      	beq.n	9144 <__new_exitfn+0xd8>
    90da:	469c      	mov	ip, r3
    90dc:	e7e2      	b.n	90a4 <__new_exitfn+0x38>
    90de:	2f20      	cmp	r7, #32
    90e0:	d028      	beq.n	9134 <__new_exitfn+0xc8>
    90e2:	eb0c 1507 	add.w	r5, ip, r7, lsl #4
    90e6:	3701      	adds	r7, #1
    90e8:	3508      	adds	r5, #8
    90ea:	f8cc 7004 	str.w	r7, [ip, #4]
    90ee:	4e2a      	ldr	r6, [pc, #168]	; (9198 <__new_exitfn+0x12c>)
    90f0:	2301      	movs	r3, #1
    90f2:	602b      	str	r3, [r5, #0]
    90f4:	2001      	movs	r0, #1
    90f6:	2100      	movs	r1, #0
    90f8:	e9d6 2300 	ldrd	r2, r3, [r6]
    90fc:	1812      	adds	r2, r2, r0
    90fe:	eb43 0301 	adc.w	r3, r3, r1
    9102:	e9c6 2300 	strd	r2, r3, [r6]
    9106:	2200      	movs	r2, #0
    9108:	6823      	ldr	r3, [r4, #0]
    910a:	f3bf 8f5f 	dmb	sy
    910e:	e854 1f00 	ldrex	r1, [r4]
    9112:	4299      	cmp	r1, r3
    9114:	d105      	bne.n	9122 <__new_exitfn+0xb6>
    9116:	e844 2100 	strex	r1, r2, [r4]
    911a:	f091 0f00 	teq	r1, #0
    911e:	d1f6      	bne.n	910e <__new_exitfn+0xa2>
    9120:	4619      	mov	r1, r3
    9122:	f3bf 8f5f 	dmb	sy
    9126:	428b      	cmp	r3, r1
    9128:	d1ee      	bne.n	9108 <__new_exitfn+0x9c>
    912a:	2b01      	cmp	r3, #1
    912c:	dc1f      	bgt.n	916e <__new_exitfn+0x102>
    912e:	4628      	mov	r0, r5
    9130:	e8bd 81f0 	ldmia.w	sp!, {r4, r5, r6, r7, r8, pc}
    9134:	2300      	movs	r3, #0
    9136:	b140      	cbz	r0, 914a <__new_exitfn+0xde>
    9138:	2301      	movs	r3, #1
    913a:	f100 0508 	add.w	r5, r0, #8
    913e:	6043      	str	r3, [r0, #4]
    9140:	e7d5      	b.n	90ee <__new_exitfn+0x82>
    9142:	4628      	mov	r0, r5
    9144:	2301      	movs	r3, #1
    9146:	2800      	cmp	r0, #0
    9148:	d1f6      	bne.n	9138 <__new_exitfn+0xcc>
    914a:	b953      	cbnz	r3, 9162 <__new_exitfn+0xf6>
    914c:	2001      	movs	r0, #1
    914e:	f44f 7102 	mov.w	r1, #520	; 0x208
    9152:	f006 f845 	bl	f1e0 <__calloc>
    9156:	b110      	cbz	r0, 915e <__new_exitfn+0xf2>
    9158:	6005      	str	r5, [r0, #0]
    915a:	6030      	str	r0, [r6, #0]
    915c:	e7ec      	b.n	9138 <__new_exitfn+0xcc>
    915e:	4605      	mov	r5, r0
    9160:	e7d1      	b.n	9106 <__new_exitfn+0x9a>
    9162:	480e      	ldr	r0, [pc, #56]	; (919c <__new_exitfn+0x130>)
    9164:	2264      	movs	r2, #100	; 0x64
    9166:	490e      	ldr	r1, [pc, #56]	; (91a0 <__new_exitfn+0x134>)
    9168:	4b0e      	ldr	r3, [pc, #56]	; (91a4 <__new_exitfn+0x138>)
    916a:	f009 f901 	bl	12370 <__assert_fail>
    916e:	ee1d 1f70 	mrc	15, 0, r1, cr13, cr0, {3}
    9172:	2201      	movs	r2, #1
    9174:	f5a1 6198 	sub.w	r1, r1, #1216	; 0x4c0
    9178:	4806      	ldr	r0, [pc, #24]	; (9194 <__new_exitfn+0x128>)
    917a:	2300      	movs	r3, #0
    917c:	f04f 0cf0 	mov.w	ip, #240	; 0xf0
    9180:	6889      	ldr	r1, [r1, #8]
    9182:	4311      	orrs	r1, r2
    9184:	f7ff fe4c 	bl	8e20 <__libc_do_syscall>
    9188:	e7d1      	b.n	912e <__new_exitfn+0xc2>
    918a:	4620      	mov	r0, r4
    918c:	f008 f998 	bl	114c0 <__lll_lock_wait_private>
    9190:	e782      	b.n	9098 <__new_exitfn+0x2c>
    9192:	bf00      	nop
    9194:	000679f4 	.word	0x000679f4
    9198:	00068aa0 	.word	0x00068aa0
    919c:	00048b74 	.word	0x00048b74
    91a0:	00048b88 	.word	0x00048b88
    91a4:	00048b98 	.word	0x00048b98

000091a8 <__internal_atexit>:
    91a8:	b570      	push	{r4, r5, r6, lr}
    91aa:	4604      	mov	r4, r0
    91ac:	4618      	mov	r0, r3
    91ae:	460d      	mov	r5, r1
    91b0:	4616      	mov	r6, r2
    91b2:	f7ff ff5b 	bl	906c <__new_exitfn>
    91b6:	4603      	mov	r3, r0
    91b8:	b140      	cbz	r0, 91cc <__internal_atexit+0x24>
    91ba:	6044      	str	r4, [r0, #4]
    91bc:	2204      	movs	r2, #4
    91be:	6085      	str	r5, [r0, #8]
    91c0:	2000      	movs	r0, #0
    91c2:	60de      	str	r6, [r3, #12]
    91c4:	f3bf 8f5f 	dmb	sy
    91c8:	601a      	str	r2, [r3, #0]
    91ca:	bd70      	pop	{r4, r5, r6, pc}
    91cc:	f04f 30ff 	mov.w	r0, #4294967295	; 0xffffffff
    91d0:	bd70      	pop	{r4, r5, r6, pc}
    91d2:	bf00      	nop

000091d4 <__cxa_atexit>:
    91d4:	f646 436c 	movw	r3, #27756	; 0x6c6c
    91d8:	f2c0 0306 	movt	r3, #6
    91dc:	f7ff bfe4 	b.w	91a8 <__internal_atexit>

000091e0 <__strtol_internal>:
    91e0:	b530      	push	{r4, r5, lr}
    91e2:	ee1d 5f70 	mrc	15, 0, r5, cr13, cr0, {3}
    91e6:	4c05      	ldr	r4, [pc, #20]	; (91fc <__strtol_internal+0x1c>)
    91e8:	b083      	sub	sp, #12
    91ea:	447c      	add	r4, pc
    91ec:	6824      	ldr	r4, [r4, #0]
    91ee:	592c      	ldr	r4, [r5, r4]
    91f0:	9400      	str	r4, [sp, #0]
    91f2:	f000 f815 	bl	9220 <____strtol_l_internal>
    91f6:	b003      	add	sp, #12
    91f8:	bd30      	pop	{r4, r5, pc}
    91fa:	bf00      	nop
    91fc:	0005da5a 	.word	0x0005da5a

00009200 <strtol>:
    9200:	b530      	push	{r4, r5, lr}
    9202:	ee1d 5f70 	mrc	15, 0, r5, cr13, cr0, {3}
    9206:	4c05      	ldr	r4, [pc, #20]	; (921c <strtol+0x1c>)
    9208:	b083      	sub	sp, #12
    920a:	2300      	movs	r3, #0
    920c:	447c      	add	r4, pc
    920e:	6824      	ldr	r4, [r4, #0]
    9210:	592c      	ldr	r4, [r5, r4]
    9212:	9400      	str	r4, [sp, #0]
    9214:	f000 f804 	bl	9220 <____strtol_l_internal>
    9218:	b003      	add	sp, #12
    921a:	bd30      	pop	{r4, r5, pc}
    921c:	0005da38 	.word	0x0005da38

00009220 <____strtol_l_internal>:
    9220:	e92d 4ff0 	stmdb	sp!, {r4, r5, r6, r7, r8, r9, sl, fp, lr}
    9224:	b08b      	sub	sp, #44	; 0x2c
    9226:	9d14      	ldr	r5, [sp, #80]	; 0x50
    9228:	9105      	str	r1, [sp, #20]
    922a:	9004      	str	r0, [sp, #16]
    922c:	6869      	ldr	r1, [r5, #4]
    922e:	2b00      	cmp	r3, #0
    9230:	f040 8131 	bne.w	9496 <____strtol_l_internal+0x276>
    9234:	9303      	str	r3, [sp, #12]
    9236:	f1a2 0c01 	sub.w	ip, r2, #1
    923a:	f1dc 0100 	rsbs	r1, ip, #0
    923e:	eb41 010c 	adc.w	r1, r1, ip
    9242:	ea51 71d2 	orrs.w	r1, r1, r2, lsr #31
    9246:	d177      	bne.n	9338 <____strtol_l_internal+0x118>
    9248:	2a24      	cmp	r2, #36	; 0x24
    924a:	dc75      	bgt.n	9338 <____strtol_l_internal+0x118>
    924c:	9804      	ldr	r0, [sp, #16]
    924e:	6b6f      	ldr	r7, [r5, #52]	; 0x34
    9250:	7801      	ldrb	r1, [r0, #0]
    9252:	f837 0011 	ldrh.w	r0, [r7, r1, lsl #1]
    9256:	0480      	lsls	r0, r0, #18
    9258:	bf58      	it	pl
    925a:	f8dd b010 	ldrpl.w	fp, [sp, #16]
    925e:	d50a      	bpl.n	9276 <____strtol_l_internal+0x56>
    9260:	9804      	ldr	r0, [sp, #16]
    9262:	4683      	mov	fp, r0
    9264:	f810 1f01 	ldrb.w	r1, [r0, #1]!
    9268:	f10b 0b01 	add.w	fp, fp, #1
    926c:	f837 4011 	ldrh.w	r4, [r7, r1, lsl #1]
    9270:	f414 5f00 	tst.w	r4, #8192	; 0x2000
    9274:	d1f6      	bne.n	9264 <____strtol_l_internal+0x44>
    9276:	2900      	cmp	r1, #0
    9278:	f000 811b 	beq.w	94b2 <____strtol_l_internal+0x292>
    927c:	292d      	cmp	r1, #45	; 0x2d
    927e:	f000 80d2 	beq.w	9426 <____strtol_l_internal+0x206>
    9282:	292b      	cmp	r1, #43	; 0x2b
    9284:	d06a      	beq.n	935c <____strtol_l_internal+0x13c>
    9286:	2100      	movs	r1, #0
    9288:	9107      	str	r1, [sp, #28]
    928a:	f89b 6000 	ldrb.w	r6, [fp]
    928e:	2e30      	cmp	r6, #48	; 0x30
    9290:	f000 80b0 	beq.w	93f4 <____strtol_l_internal+0x1d4>
    9294:	2a00      	cmp	r2, #0
    9296:	d059      	beq.n	934c <____strtol_l_internal+0x12c>
    9298:	1e90      	subs	r0, r2, #2
    929a:	2a0a      	cmp	r2, #10
    929c:	d056      	beq.n	934c <____strtol_l_internal+0x12c>
    929e:	2400      	movs	r4, #0
    92a0:	46a4      	mov	ip, r4
    92a2:	4b9c      	ldr	r3, [pc, #624]	; (9514 <____strtol_l_internal+0x2f4>)
    92a4:	1819      	adds	r1, r3, r0
    92a6:	f853 a020 	ldr.w	sl, [r3, r0, lsl #2]
    92aa:	f891 108c 	ldrb.w	r1, [r1, #140]	; 0x8c
    92ae:	9106      	str	r1, [sp, #24]
    92b0:	2e00      	cmp	r6, #0
    92b2:	d073      	beq.n	939c <____strtol_l_internal+0x17c>
    92b4:	45dc      	cmp	ip, fp
    92b6:	f000 80cd 	beq.w	9454 <____strtol_l_internal+0x234>
    92ba:	2300      	movs	r3, #0
    92bc:	4658      	mov	r0, fp
    92be:	f8cd b024 	str.w	fp, [sp, #36]	; 0x24
    92c2:	46e3      	mov	fp, ip
    92c4:	4699      	mov	r9, r3
    92c6:	1e61      	subs	r1, r4, #1
    92c8:	9302      	str	r3, [sp, #8]
    92ca:	9108      	str	r1, [sp, #32]
    92cc:	f1a6 0330 	sub.w	r3, r6, #48	; 0x30
    92d0:	b2db      	uxtb	r3, r3
    92d2:	2b09      	cmp	r3, #9
    92d4:	d952      	bls.n	937c <____strtol_l_internal+0x15c>
    92d6:	2c00      	cmp	r4, #0
    92d8:	d046      	beq.n	9368 <____strtol_l_internal+0x148>
    92da:	9b03      	ldr	r3, [sp, #12]
    92dc:	7819      	ldrb	r1, [r3, #0]
    92de:	7803      	ldrb	r3, [r0, #0]
    92e0:	4299      	cmp	r1, r3
    92e2:	d141      	bne.n	9368 <____strtol_l_internal+0x148>
    92e4:	9f03      	ldr	r7, [sp, #12]
    92e6:	4601      	mov	r1, r0
    92e8:	2300      	movs	r3, #0
    92ea:	46b0      	mov	r8, r6
    92ec:	e005      	b.n	92fa <____strtol_l_internal+0xda>
    92ee:	f817 cf01 	ldrb.w	ip, [r7, #1]!
    92f2:	f811 6f01 	ldrb.w	r6, [r1, #1]!
    92f6:	45b4      	cmp	ip, r6
    92f8:	d135      	bne.n	9366 <____strtol_l_internal+0x146>
    92fa:	3301      	adds	r3, #1
    92fc:	42a3      	cmp	r3, r4
    92fe:	d1f6      	bne.n	92ee <____strtol_l_internal+0xce>
    9300:	9908      	ldr	r1, [sp, #32]
    9302:	1840      	adds	r0, r0, r1
    9304:	7846      	ldrb	r6, [r0, #1]
    9306:	3001      	adds	r0, #1
    9308:	2e00      	cmp	r6, #0
    930a:	d043      	beq.n	9394 <____strtol_l_internal+0x174>
    930c:	4583      	cmp	fp, r0
    930e:	d1dd      	bne.n	92cc <____strtol_l_internal+0xac>
    9310:	9a05      	ldr	r2, [sp, #20]
    9312:	b102      	cbz	r2, 9316 <____strtol_l_internal+0xf6>
    9314:	6010      	str	r0, [r2, #0]
    9316:	9b02      	ldr	r3, [sp, #8]
    9318:	2b00      	cmp	r3, #0
    931a:	d15f      	bne.n	93dc <____strtol_l_internal+0x1bc>
    931c:	9807      	ldr	r0, [sp, #28]
    931e:	2800      	cmp	r0, #0
    9320:	bf0c      	ite	eq
    9322:	f06f 4300 	mvneq.w	r3, #2147483648	; 0x80000000
    9326:	f04f 4300 	movne.w	r3, #2147483648	; 0x80000000
    932a:	454b      	cmp	r3, r9
    932c:	d356      	bcc.n	93dc <____strtol_l_internal+0x1bc>
    932e:	9807      	ldr	r0, [sp, #28]
    9330:	b140      	cbz	r0, 9344 <____strtol_l_internal+0x124>
    9332:	f1c9 0900 	rsb	r9, r9, #0
    9336:	e005      	b.n	9344 <____strtol_l_internal+0x124>
    9338:	f7ff fd7a 	bl	8e30 <__errno_location>
    933c:	f04f 0900 	mov.w	r9, #0
    9340:	2316      	movs	r3, #22
    9342:	6003      	str	r3, [r0, #0]
    9344:	4648      	mov	r0, r9
    9346:	b00b      	add	sp, #44	; 0x2c
    9348:	e8bd 8ff0 	ldmia.w	sp!, {r4, r5, r6, r7, r8, r9, sl, fp, pc}
    934c:	2b00      	cmp	r3, #0
    934e:	f040 8083 	bne.w	9458 <____strtol_l_internal+0x238>
    9352:	461c      	mov	r4, r3
    9354:	2008      	movs	r0, #8
    9356:	220a      	movs	r2, #10
    9358:	469c      	mov	ip, r3
    935a:	e7a2      	b.n	92a2 <____strtol_l_internal+0x82>
    935c:	2000      	movs	r0, #0
    935e:	f10b 0b01 	add.w	fp, fp, #1
    9362:	9007      	str	r0, [sp, #28]
    9364:	e791      	b.n	928a <____strtol_l_internal+0x6a>
    9366:	4646      	mov	r6, r8
    9368:	6b6b      	ldr	r3, [r5, #52]	; 0x34
    936a:	f833 3016 	ldrh.w	r3, [r3, r6, lsl #1]
    936e:	055b      	lsls	r3, r3, #21
    9370:	d510      	bpl.n	9394 <____strtol_l_internal+0x174>
    9372:	6beb      	ldr	r3, [r5, #60]	; 0x3c
    9374:	f853 3026 	ldr.w	r3, [r3, r6, lsl #2]
    9378:	3b37      	subs	r3, #55	; 0x37
    937a:	b2db      	uxtb	r3, r3
    937c:	429a      	cmp	r2, r3
    937e:	dd09      	ble.n	9394 <____strtol_l_internal+0x174>
    9380:	45ca      	cmp	sl, r9
    9382:	d328      	bcc.n	93d6 <____strtol_l_internal+0x1b6>
    9384:	45d1      	cmp	r9, sl
    9386:	d020      	beq.n	93ca <____strtol_l_internal+0x1aa>
    9388:	7846      	ldrb	r6, [r0, #1]
    938a:	3001      	adds	r0, #1
    938c:	fb02 3909 	mla	r9, r2, r9, r3
    9390:	2e00      	cmp	r6, #0
    9392:	d1bb      	bne.n	930c <____strtol_l_internal+0xec>
    9394:	f8dd b024 	ldr.w	fp, [sp, #36]	; 0x24
    9398:	4583      	cmp	fp, r0
    939a:	d1b9      	bne.n	9310 <____strtol_l_internal+0xf0>
    939c:	9a05      	ldr	r2, [sp, #20]
    939e:	f8dd 9014 	ldr.w	r9, [sp, #20]
    93a2:	2a00      	cmp	r2, #0
    93a4:	d0ce      	beq.n	9344 <____strtol_l_internal+0x124>
    93a6:	9804      	ldr	r0, [sp, #16]
    93a8:	ebc0 030b 	rsb	r3, r0, fp
    93ac:	2b01      	cmp	r3, #1
    93ae:	dd06      	ble.n	93be <____strtol_l_internal+0x19e>
    93b0:	f81b 2c01 	ldrb.w	r2, [fp, #-1]
    93b4:	6beb      	ldr	r3, [r5, #60]	; 0x3c
    93b6:	f853 3022 	ldr.w	r3, [r3, r2, lsl #2]
    93ba:	2b58      	cmp	r3, #88	; 0x58
    93bc:	d03f      	beq.n	943e <____strtol_l_internal+0x21e>
    93be:	9a04      	ldr	r2, [sp, #16]
    93c0:	f04f 0900 	mov.w	r9, #0
    93c4:	9b05      	ldr	r3, [sp, #20]
    93c6:	601a      	str	r2, [r3, #0]
    93c8:	e7bc      	b.n	9344 <____strtol_l_internal+0x124>
    93ca:	9906      	ldr	r1, [sp, #24]
    93cc:	4299      	cmp	r1, r3
    93ce:	d2db      	bcs.n	9388 <____strtol_l_internal+0x168>
    93d0:	2101      	movs	r1, #1
    93d2:	9102      	str	r1, [sp, #8]
    93d4:	e796      	b.n	9304 <____strtol_l_internal+0xe4>
    93d6:	2301      	movs	r3, #1
    93d8:	9302      	str	r3, [sp, #8]
    93da:	e793      	b.n	9304 <____strtol_l_internal+0xe4>
    93dc:	f7ff fd28 	bl	8e30 <__errno_location>
    93e0:	9907      	ldr	r1, [sp, #28]
    93e2:	2900      	cmp	r1, #0
    93e4:	bf0c      	ite	eq
    93e6:	f06f 4900 	mvneq.w	r9, #2147483648	; 0x80000000
    93ea:	f04f 4900 	movne.w	r9, #2147483648	; 0x80000000
    93ee:	2322      	movs	r3, #34	; 0x22
    93f0:	6003      	str	r3, [r0, #0]
    93f2:	e7a7      	b.n	9344 <____strtol_l_internal+0x124>
    93f4:	f1d2 0101 	rsbs	r1, r2, #1
    93f8:	bf38      	it	cc
    93fa:	2100      	movcc	r1, #0
    93fc:	2a10      	cmp	r2, #16
    93fe:	bf14      	ite	ne
    9400:	4608      	movne	r0, r1
    9402:	f041 0001 	orreq.w	r0, r1, #1
    9406:	2800      	cmp	r0, #0
    9408:	f43f af46 	beq.w	9298 <____strtol_l_internal+0x78>
    940c:	f89b 4001 	ldrb.w	r4, [fp, #1]
    9410:	6be8      	ldr	r0, [r5, #60]	; 0x3c
    9412:	f850 0024 	ldr.w	r0, [r0, r4, lsl #2]
    9416:	2858      	cmp	r0, #88	; 0x58
    9418:	d00a      	beq.n	9430 <____strtol_l_internal+0x210>
    941a:	2900      	cmp	r1, #0
    941c:	f43f af3c 	beq.w	9298 <____strtol_l_internal+0x78>
    9420:	2006      	movs	r0, #6
    9422:	2208      	movs	r2, #8
    9424:	e73b      	b.n	929e <____strtol_l_internal+0x7e>
    9426:	2101      	movs	r1, #1
    9428:	f10b 0b01 	add.w	fp, fp, #1
    942c:	9107      	str	r1, [sp, #28]
    942e:	e72c      	b.n	928a <____strtol_l_internal+0x6a>
    9430:	f89b 6002 	ldrb.w	r6, [fp, #2]
    9434:	200e      	movs	r0, #14
    9436:	f10b 0b02 	add.w	fp, fp, #2
    943a:	2210      	movs	r2, #16
    943c:	e72f      	b.n	929e <____strtol_l_internal+0x7e>
    943e:	f81b 3c02 	ldrb.w	r3, [fp, #-2]
    9442:	2b30      	cmp	r3, #48	; 0x30
    9444:	d1bb      	bne.n	93be <____strtol_l_internal+0x19e>
    9446:	9905      	ldr	r1, [sp, #20]
    9448:	f10b 33ff 	add.w	r3, fp, #4294967295	; 0xffffffff
    944c:	f04f 0900 	mov.w	r9, #0
    9450:	600b      	str	r3, [r1, #0]
    9452:	e777      	b.n	9344 <____strtol_l_internal+0x124>
    9454:	46e3      	mov	fp, ip
    9456:	e7a1      	b.n	939c <____strtol_l_internal+0x17c>
    9458:	9803      	ldr	r0, [sp, #12]
    945a:	9301      	str	r3, [sp, #4]
    945c:	f006 eae0 	blx	fa20 <strlen>
    9460:	9b01      	ldr	r3, [sp, #4]
    9462:	4604      	mov	r4, r0
    9464:	b198      	cbz	r0, 948e <____strtol_l_internal+0x26e>
    9466:	9a03      	ldr	r2, [sp, #12]
    9468:	f892 a000 	ldrb.w	sl, [r2]
    946c:	4556      	cmp	r6, sl
    946e:	d126      	bne.n	94be <____strtol_l_internal+0x29e>
    9470:	f10b 32ff 	add.w	r2, fp, #4294967295	; 0xffffffff
    9474:	f8dd 800c 	ldr.w	r8, [sp, #12]
    9478:	46dc      	mov	ip, fp
    947a:	1812      	adds	r2, r2, r0
    947c:	e005      	b.n	948a <____strtol_l_internal+0x26a>
    947e:	f818 0f01 	ldrb.w	r0, [r8, #1]!
    9482:	f81c 1f01 	ldrb.w	r1, [ip, #1]!
    9486:	4288      	cmp	r0, r1
    9488:	d119      	bne.n	94be <____strtol_l_internal+0x29e>
    948a:	4594      	cmp	ip, r2
    948c:	d1f7      	bne.n	947e <____strtol_l_internal+0x25e>
    948e:	46dc      	mov	ip, fp
    9490:	2008      	movs	r0, #8
    9492:	220a      	movs	r2, #10
    9494:	e705      	b.n	92a2 <____strtol_l_internal+0x82>
    9496:	6acb      	ldr	r3, [r1, #44]	; 0x2c
    9498:	7818      	ldrb	r0, [r3, #0]
    949a:	3801      	subs	r0, #1
    949c:	b2c0      	uxtb	r0, r0
    949e:	28fd      	cmp	r0, #253	; 0xfd
    94a0:	d80a      	bhi.n	94b8 <____strtol_l_internal+0x298>
    94a2:	6a89      	ldr	r1, [r1, #40]	; 0x28
    94a4:	9103      	str	r1, [sp, #12]
    94a6:	7809      	ldrb	r1, [r1, #0]
    94a8:	2900      	cmp	r1, #0
    94aa:	f47f aec4 	bne.w	9236 <____strtol_l_internal+0x16>
    94ae:	460b      	mov	r3, r1
    94b0:	e6c0      	b.n	9234 <____strtol_l_internal+0x14>
    94b2:	f8dd b010 	ldr.w	fp, [sp, #16]
    94b6:	e771      	b.n	939c <____strtol_l_internal+0x17c>
    94b8:	2300      	movs	r3, #0
    94ba:	9303      	str	r3, [sp, #12]
    94bc:	e6bb      	b.n	9236 <____strtol_l_internal+0x16>
    94be:	4659      	mov	r1, fp
    94c0:	b1ee      	cbz	r6, 94fe <____strtol_l_internal+0x2de>
    94c2:	f10b 0c01 	add.w	ip, fp, #1
    94c6:	4659      	mov	r1, fp
    94c8:	f1a6 0230 	sub.w	r2, r6, #48	; 0x30
    94cc:	2a09      	cmp	r2, #9
    94ce:	d911      	bls.n	94f4 <____strtol_l_internal+0x2d4>
    94d0:	f81c 2c01 	ldrb.w	r2, [ip, #-1]
    94d4:	4552      	cmp	r2, sl
    94d6:	d11f      	bne.n	9518 <____strtol_l_internal+0x2f8>
    94d8:	f8dd e00c 	ldr.w	lr, [sp, #12]
    94dc:	4608      	mov	r0, r1
    94de:	2200      	movs	r2, #0
    94e0:	e005      	b.n	94ee <____strtol_l_internal+0x2ce>
    94e2:	f81e 9f01 	ldrb.w	r9, [lr, #1]!
    94e6:	f810 8f01 	ldrb.w	r8, [r0, #1]!
    94ea:	45c1      	cmp	r9, r8
    94ec:	d114      	bne.n	9518 <____strtol_l_internal+0x2f8>
    94ee:	3201      	adds	r2, #1
    94f0:	42a2      	cmp	r2, r4
    94f2:	d1f6      	bne.n	94e2 <____strtol_l_internal+0x2c2>
    94f4:	f81c 6b01 	ldrb.w	r6, [ip], #1
    94f8:	3101      	adds	r1, #1
    94fa:	2e00      	cmp	r6, #0
    94fc:	d1e4      	bne.n	94c8 <____strtol_l_internal+0x2a8>
    94fe:	9a03      	ldr	r2, [sp, #12]
    9500:	4658      	mov	r0, fp
    9502:	f000 f81b 	bl	953c <__correctly_grouped_prefixmb>
    9506:	f89b 6000 	ldrb.w	r6, [fp]
    950a:	220a      	movs	r2, #10
    950c:	4684      	mov	ip, r0
    950e:	2008      	movs	r0, #8
    9510:	e6c7      	b.n	92a2 <____strtol_l_internal+0x82>
    9512:	bf00      	nop
    9514:	00048ba8 	.word	0x00048ba8
    9518:	f837 2016 	ldrh.w	r2, [r7, r6, lsl #1]
    951c:	0552      	lsls	r2, r2, #21
    951e:	d5ee      	bpl.n	94fe <____strtol_l_internal+0x2de>
    9520:	6bea      	ldr	r2, [r5, #60]	; 0x3c
    9522:	f852 2026 	ldr.w	r2, [r2, r6, lsl #2]
    9526:	2a40      	cmp	r2, #64	; 0x40
    9528:	dde4      	ble.n	94f4 <____strtol_l_internal+0x2d4>
    952a:	e7e8      	b.n	94fe <____strtol_l_internal+0x2de>

0000952c <__strtol_l>:
    952c:	b500      	push	{lr}
    952e:	b083      	sub	sp, #12
    9530:	9300      	str	r3, [sp, #0]
    9532:	2300      	movs	r3, #0
    9534:	f7ff fe74 	bl	9220 <____strtol_l_internal>
    9538:	b003      	add	sp, #12
    953a:	bd00      	pop	{pc}

0000953c <__correctly_grouped_prefixmb>:
    953c:	e92d 4ff0 	stmdb	sp!, {r4, r5, r6, r7, r8, r9, sl, fp, lr}
    9540:	b085      	sub	sp, #20
    9542:	4604      	mov	r4, r0
    9544:	4615      	mov	r5, r2
    9546:	9100      	str	r1, [sp, #0]
    9548:	9302      	str	r3, [sp, #8]
    954a:	2b00      	cmp	r3, #0
    954c:	d03f      	beq.n	95ce <__correctly_grouped_prefixmb+0x92>
    954e:	4610      	mov	r0, r2
    9550:	f006 ea66 	blx	fa20 <strlen>
    9554:	9900      	ldr	r1, [sp, #0]
    9556:	42a1      	cmp	r1, r4
    9558:	d934      	bls.n	95c4 <__correctly_grouped_prefixmb+0x88>
    955a:	46a0      	mov	r8, r4
    955c:	f100 39ff 	add.w	r9, r0, #4294967295	; 0xffffffff
    9560:	3802      	subs	r0, #2
    9562:	9003      	str	r0, [sp, #12]
    9564:	9900      	ldr	r1, [sp, #0]
    9566:	1e4e      	subs	r6, r1, #1
    9568:	45b0      	cmp	r8, r6
    956a:	d830      	bhi.n	95ce <__correctly_grouped_prefixmb+0x92>
    956c:	9a03      	ldr	r2, [sp, #12]
    956e:	782c      	ldrb	r4, [r5, #0]
    9570:	188f      	adds	r7, r1, r2
    9572:	e002      	b.n	957a <__correctly_grouped_prefixmb+0x3e>
    9574:	3e01      	subs	r6, #1
    9576:	45b0      	cmp	r8, r6
    9578:	d829      	bhi.n	95ce <__correctly_grouped_prefixmb+0x92>
    957a:	f817 3901 	ldrb.w	r3, [r7], #-1
    957e:	429c      	cmp	r4, r3
    9580:	d1f8      	bne.n	9574 <__correctly_grouped_prefixmb+0x38>
    9582:	786b      	ldrb	r3, [r5, #1]
    9584:	b16b      	cbz	r3, 95a2 <__correctly_grouped_prefixmb+0x66>
    9586:	783a      	ldrb	r2, [r7, #0]
    9588:	429a      	cmp	r2, r3
    958a:	d1f3      	bne.n	9574 <__correctly_grouped_prefixmb+0x38>
    958c:	1c6a      	adds	r2, r5, #1
    958e:	4639      	mov	r1, r7
    9590:	e003      	b.n	959a <__correctly_grouped_prefixmb+0x5e>
    9592:	f811 0d01 	ldrb.w	r0, [r1, #-1]!
    9596:	4298      	cmp	r0, r3
    9598:	d1ec      	bne.n	9574 <__correctly_grouped_prefixmb+0x38>
    959a:	f812 3f01 	ldrb.w	r3, [r2, #1]!
    959e:	2b00      	cmp	r3, #0
    95a0:	d1f7      	bne.n	9592 <__correctly_grouped_prefixmb+0x56>
    95a2:	45b0      	cmp	r8, r6
    95a4:	9601      	str	r6, [sp, #4]
    95a6:	d812      	bhi.n	95ce <__correctly_grouped_prefixmb+0x92>
    95a8:	9902      	ldr	r1, [sp, #8]
    95aa:	780b      	ldrb	r3, [r1, #0]
    95ac:	9900      	ldr	r1, [sp, #0]
    95ae:	3301      	adds	r3, #1
    95b0:	1b8a      	subs	r2, r1, r6
    95b2:	429a      	cmp	r2, r3
    95b4:	d00f      	beq.n	95d6 <__correctly_grouped_prefixmb+0x9a>
    95b6:	bfc8      	it	gt
    95b8:	18f6      	addgt	r6, r6, r3
    95ba:	9600      	str	r6, [sp, #0]
    95bc:	9900      	ldr	r1, [sp, #0]
    95be:	4588      	cmp	r8, r1
    95c0:	d3d0      	bcc.n	9564 <__correctly_grouped_prefixmb+0x28>
    95c2:	4644      	mov	r4, r8
    95c4:	9900      	ldr	r1, [sp, #0]
    95c6:	42a1      	cmp	r1, r4
    95c8:	bf38      	it	cc
    95ca:	4621      	movcc	r1, r4
    95cc:	9100      	str	r1, [sp, #0]
    95ce:	9800      	ldr	r0, [sp, #0]
    95d0:	b005      	add	sp, #20
    95d2:	e8bd 8ff0 	ldmia.w	sp!, {r4, r5, r6, r7, r8, r9, sl, fp, pc}
    95d6:	f8dd b008 	ldr.w	fp, [sp, #8]
    95da:	f89b a001 	ldrb.w	sl, [fp, #1]
    95de:	f1ba 0f00 	cmp.w	sl, #0
    95e2:	d04e      	beq.n	9682 <__correctly_grouped_prefixmb+0x146>
    95e4:	f10b 0b01 	add.w	fp, fp, #1
    95e8:	f1ba 0fff 	cmp.w	sl, #255	; 0xff
    95ec:	f106 3cff 	add.w	ip, r6, #4294967295	; 0xffffffff
    95f0:	d02b      	beq.n	964a <__correctly_grouped_prefixmb+0x10e>
    95f2:	45e0      	cmp	r8, ip
    95f4:	d853      	bhi.n	969e <__correctly_grouped_prefixmb+0x162>
    95f6:	444e      	add	r6, r9
    95f8:	4667      	mov	r7, ip
    95fa:	2c00      	cmp	r4, #0
    95fc:	d049      	beq.n	9692 <__correctly_grouped_prefixmb+0x156>
    95fe:	f816 3d01 	ldrb.w	r3, [r6, #-1]!
    9602:	42a3      	cmp	r3, r4
    9604:	bf04      	itt	eq
    9606:	462a      	moveq	r2, r5
    9608:	4631      	moveq	r1, r6
    960a:	d004      	beq.n	9616 <__correctly_grouped_prefixmb+0xda>
    960c:	e012      	b.n	9634 <__correctly_grouped_prefixmb+0xf8>
    960e:	f811 0d01 	ldrb.w	r0, [r1, #-1]!
    9612:	4298      	cmp	r0, r3
    9614:	d10e      	bne.n	9634 <__correctly_grouped_prefixmb+0xf8>
    9616:	f812 3f01 	ldrb.w	r3, [r2, #1]!
    961a:	2b00      	cmp	r3, #0
    961c:	d1f7      	bne.n	960e <__correctly_grouped_prefixmb+0xd2>
    961e:	45b8      	cmp	r8, r7
    9620:	463e      	mov	r6, r7
    9622:	d839      	bhi.n	9698 <__correctly_grouped_prefixmb+0x15c>
    9624:	ebc7 070c 	rsb	r7, r7, ip
    9628:	4557      	cmp	r7, sl
    962a:	d0d6      	beq.n	95da <__correctly_grouped_prefixmb+0x9e>
    962c:	9901      	ldr	r1, [sp, #4]
    962e:	3901      	subs	r1, #1
    9630:	9100      	str	r1, [sp, #0]
    9632:	e7c3      	b.n	95bc <__correctly_grouped_prefixmb+0x80>
    9634:	3f01      	subs	r7, #1
    9636:	45b8      	cmp	r8, r7
    9638:	d9e1      	bls.n	95fe <__correctly_grouped_prefixmb+0xc2>
    963a:	ebc7 0c0c 	rsb	ip, r7, ip
    963e:	45d4      	cmp	ip, sl
    9640:	ddc5      	ble.n	95ce <__correctly_grouped_prefixmb+0x92>
    9642:	9901      	ldr	r1, [sp, #4]
    9644:	3901      	subs	r1, #1
    9646:	9100      	str	r1, [sp, #0]
    9648:	e7b8      	b.n	95bc <__correctly_grouped_prefixmb+0x80>
    964a:	45e0      	cmp	r8, ip
    964c:	d8bf      	bhi.n	95ce <__correctly_grouped_prefixmb+0x92>
    964e:	444e      	add	r6, r9
    9650:	b17c      	cbz	r4, 9672 <__correctly_grouped_prefixmb+0x136>
    9652:	f816 3d01 	ldrb.w	r3, [r6, #-1]!
    9656:	42a3      	cmp	r3, r4
    9658:	bf04      	itt	eq
    965a:	462a      	moveq	r2, r5
    965c:	4631      	moveq	r1, r6
    965e:	d004      	beq.n	966a <__correctly_grouped_prefixmb+0x12e>
    9660:	e012      	b.n	9688 <__correctly_grouped_prefixmb+0x14c>
    9662:	f811 0d01 	ldrb.w	r0, [r1, #-1]!
    9666:	4298      	cmp	r0, r3
    9668:	d10e      	bne.n	9688 <__correctly_grouped_prefixmb+0x14c>
    966a:	f812 3f01 	ldrb.w	r3, [r2, #1]!
    966e:	2b00      	cmp	r3, #0
    9670:	d1f7      	bne.n	9662 <__correctly_grouped_prefixmb+0x126>
    9672:	45e0      	cmp	r8, ip
    9674:	4666      	mov	r6, ip
    9676:	d8aa      	bhi.n	95ce <__correctly_grouped_prefixmb+0x92>
    9678:	f89b a001 	ldrb.w	sl, [fp, #1]
    967c:	f1ba 0f00 	cmp.w	sl, #0
    9680:	d1b0      	bne.n	95e4 <__correctly_grouped_prefixmb+0xa8>
    9682:	f89b a000 	ldrb.w	sl, [fp]
    9686:	e7af      	b.n	95e8 <__correctly_grouped_prefixmb+0xac>
    9688:	f10c 3cff 	add.w	ip, ip, #4294967295	; 0xffffffff
    968c:	45e0      	cmp	r8, ip
    968e:	d9e0      	bls.n	9652 <__correctly_grouped_prefixmb+0x116>
    9690:	e79d      	b.n	95ce <__correctly_grouped_prefixmb+0x92>
    9692:	45b8      	cmp	r8, r7
    9694:	4666      	mov	r6, ip
    9696:	d9c5      	bls.n	9624 <__correctly_grouped_prefixmb+0xe8>
    9698:	ebc6 0c0c 	rsb	ip, r6, ip
    969c:	e7cf      	b.n	963e <__correctly_grouped_prefixmb+0x102>
    969e:	f04f 0c00 	mov.w	ip, #0
    96a2:	e7cc      	b.n	963e <__correctly_grouped_prefixmb+0x102>

000096a4 <__fcloseall>:
    96a4:	f001 b808 	b.w	a6b8 <_IO_cleanup>

000096a8 <__libc_message>:
    96a8:	b40e      	push	{r1, r2, r3}
    96aa:	e92d 4ff0 	stmdb	sp!, {r4, r5, r6, r7, r8, r9, sl, fp, lr}
    96ae:	f5ad 6da2 	sub.w	sp, sp, #1296	; 0x510
    96b2:	af00      	add	r7, sp, #0
    96b4:	f507 63a6 	add.w	r3, r7, #1328	; 0x530
    96b8:	3304      	adds	r3, #4
    96ba:	6078      	str	r0, [r7, #4]
    96bc:	48a8      	ldr	r0, [pc, #672]	; (9960 <__libc_message+0x2b8>)
    96be:	f853 1b04 	ldr.w	r1, [r3], #4
    96c2:	f8c7 1534 	str.w	r1, [r7, #1332]	; 0x534
    96c6:	f8c7 3508 	str.w	r3, [r7, #1288]	; 0x508
    96ca:	f8c7 350c 	str.w	r3, [r7, #1292]	; 0x50c
    96ce:	f00c fe45 	bl	1635c <__secure_getenv>
    96d2:	2800      	cmp	r0, #0
    96d4:	d02e      	beq.n	9734 <__libc_message+0x8c>
    96d6:	7803      	ldrb	r3, [r0, #0]
    96d8:	f04f 0b02 	mov.w	fp, #2
    96dc:	2b00      	cmp	r3, #0
    96de:	d029      	beq.n	9734 <__libc_message+0x8c>
    96e0:	f8d7 3534 	ldr.w	r3, [r7, #1332]	; 0x534
    96e4:	781d      	ldrb	r5, [r3, #0]
    96e6:	2d00      	cmp	r5, #0
    96e8:	f000 8088 	beq.w	97fc <__libc_message+0x154>
    96ec:	2600      	movs	r6, #0
    96ee:	f8d7 4534 	ldr.w	r4, [r7, #1332]	; 0x534
    96f2:	46b0      	mov	r8, r6
    96f4:	7823      	ldrb	r3, [r4, #0]
    96f6:	4620      	mov	r0, r4
    96f8:	e005      	b.n	9706 <__libc_message+0x5e>
    96fa:	3001      	adds	r0, #1
    96fc:	2125      	movs	r1, #37	; 0x25
    96fe:	f007 f865 	bl	107cc <__strchrnul>
    9702:	7803      	ldrb	r3, [r0, #0]
    9704:	b123      	cbz	r3, 9710 <__libc_message+0x68>
    9706:	2b25      	cmp	r3, #37	; 0x25
    9708:	d1f7      	bne.n	96fa <__libc_message+0x52>
    970a:	7843      	ldrb	r3, [r0, #1]
    970c:	2b73      	cmp	r3, #115	; 0x73
    970e:	d1f4      	bne.n	96fa <__libc_message+0x52>
    9710:	2d25      	cmp	r5, #37	; 0x25
    9712:	d025      	beq.n	9760 <__libc_message+0xb8>
    9714:	b086      	sub	sp, #24
    9716:	4625      	mov	r5, r4
    9718:	1b02      	subs	r2, r0, r4
    971a:	1c74      	adds	r4, r6, #1
    971c:	9500      	str	r5, [sp, #0]
    971e:	466b      	mov	r3, sp
    9720:	9201      	str	r2, [sp, #4]
    9722:	f8cd 8008 	str.w	r8, [sp, #8]
    9726:	7805      	ldrb	r5, [r0, #0]
    9728:	2d00      	cmp	r5, #0
    972a:	d031      	beq.n	9790 <__libc_message+0xe8>
    972c:	4626      	mov	r6, r4
    972e:	4698      	mov	r8, r3
    9730:	4604      	mov	r4, r0
    9732:	e7df      	b.n	96f4 <__libc_message+0x4c>
    9734:	488b      	ldr	r0, [pc, #556]	; (9964 <__libc_message+0x2bc>)
    9736:	f640 1102 	movw	r1, #2306	; 0x902
    973a:	f04f 0c05 	mov.w	ip, #5
    973e:	f7ff fb6f 	bl	8e20 <__libc_do_syscall>
    9742:	f510 5f80 	cmn.w	r0, #4096	; 0x1000
    9746:	4683      	mov	fp, r0
    9748:	d9ca      	bls.n	96e0 <__libc_message+0x38>
    974a:	4b87      	ldr	r3, [pc, #540]	; (9968 <__libc_message+0x2c0>)
    974c:	ee1d 2f70 	mrc	15, 0, r2, cr13, cr0, {3}
    9750:	f1c0 0100 	rsb	r1, r0, #0
    9754:	f04f 0b02 	mov.w	fp, #2
    9758:	447b      	add	r3, pc
    975a:	681b      	ldr	r3, [r3, #0]
    975c:	50d1      	str	r1, [r2, r3]
    975e:	e7bf      	b.n	96e0 <__libc_message+0x38>
    9760:	7863      	ldrb	r3, [r4, #1]
    9762:	2b73      	cmp	r3, #115	; 0x73
    9764:	d1d6      	bne.n	9714 <__libc_message+0x6c>
    9766:	f8d7 3508 	ldr.w	r3, [r7, #1288]	; 0x508
    976a:	1d1a      	adds	r2, r3, #4
    976c:	f8c7 2508 	str.w	r2, [r7, #1288]	; 0x508
    9770:	681d      	ldr	r5, [r3, #0]
    9772:	4628      	mov	r0, r5
    9774:	f006 e954 	blx	fa20 <strlen>
    9778:	b086      	sub	sp, #24
    977a:	9500      	str	r5, [sp, #0]
    977c:	466b      	mov	r3, sp
    977e:	f8cd 8008 	str.w	r8, [sp, #8]
    9782:	4602      	mov	r2, r0
    9784:	1ca0      	adds	r0, r4, #2
    9786:	9201      	str	r2, [sp, #4]
    9788:	1c74      	adds	r4, r6, #1
    978a:	7805      	ldrb	r5, [r0, #0]
    978c:	2d00      	cmp	r5, #0
    978e:	d1cd      	bne.n	972c <__libc_message+0x84>
    9790:	00e1      	lsls	r1, r4, #3
    9792:	4632      	mov	r2, r6
    9794:	3108      	adds	r1, #8
    9796:	46aa      	mov	sl, r5
    9798:	ebad 0d01 	sub.w	sp, sp, r1
    979c:	eb0d 06c6 	add.w	r6, sp, r6, lsl #3
    97a0:	466d      	mov	r5, sp
    97a2:	6859      	ldr	r1, [r3, #4]
    97a4:	3a01      	subs	r2, #1
    97a6:	6818      	ldr	r0, [r3, #0]
    97a8:	448a      	add	sl, r1
    97aa:	689b      	ldr	r3, [r3, #8]
    97ac:	6071      	str	r1, [r6, #4]
    97ae:	6030      	str	r0, [r6, #0]
    97b0:	3e08      	subs	r6, #8
    97b2:	1c51      	adds	r1, r2, #1
    97b4:	d1f5      	bne.n	97a2 <__libc_message+0xfa>
    97b6:	4658      	mov	r0, fp
    97b8:	4629      	mov	r1, r5
    97ba:	4622      	mov	r2, r4
    97bc:	f04f 0c92 	mov.w	ip, #146	; 0x92
    97c0:	f7ff fb2e 	bl	8e20 <__libc_do_syscall>
    97c4:	f510 5f80 	cmn.w	r0, #4096	; 0x1000
    97c8:	4681      	mov	r9, r0
    97ca:	bf94      	ite	ls
    97cc:	2600      	movls	r6, #0
    97ce:	2601      	movhi	r6, #1
    97d0:	f110 0f04 	cmn.w	r0, #4
    97d4:	bf14      	ite	ne
    97d6:	2300      	movne	r3, #0
    97d8:	2301      	moveq	r3, #1
    97da:	401e      	ands	r6, r3
    97dc:	d1eb      	bne.n	97b6 <__libc_message+0x10e>
    97de:	687b      	ldr	r3, [r7, #4]
    97e0:	b9ab      	cbnz	r3, 980e <__libc_message+0x166>
    97e2:	2301      	movs	r3, #1
    97e4:	45ca      	cmp	sl, r9
    97e6:	d109      	bne.n	97fc <__libc_message+0x154>
    97e8:	687a      	ldr	r2, [r7, #4]
    97ea:	2a00      	cmp	r2, #0
    97ec:	d139      	bne.n	9862 <__libc_message+0x1ba>
    97ee:	f507 67a2 	add.w	r7, r7, #1296	; 0x510
    97f2:	46bd      	mov	sp, r7
    97f4:	e8bd 4ff0 	ldmia.w	sp!, {r4, r5, r6, r7, r8, r9, sl, fp, lr}
    97f8:	b003      	add	sp, #12
    97fa:	4770      	bx	lr
    97fc:	2003      	movs	r0, #3
    97fe:	f8d7 1534 	ldr.w	r1, [r7, #1332]	; 0x534
    9802:	f8d7 250c 	ldr.w	r2, [r7, #1292]	; 0x50c
    9806:	f007 fcc5 	bl	11194 <__vsyslog>
    980a:	2300      	movs	r3, #0
    980c:	e7ec      	b.n	97e8 <__libc_message+0x140>
    980e:	f10a 0001 	add.w	r0, sl, #1
    9812:	f004 fd2b 	bl	e26c <__libc_malloc>
    9816:	6038      	str	r0, [r7, #0]
    9818:	2800      	cmp	r0, #0
    981a:	d0e2      	beq.n	97e2 <__libc_message+0x13a>
    981c:	46b0      	mov	r8, r6
    981e:	19ab      	adds	r3, r5, r6
    9820:	59a9      	ldr	r1, [r5, r6]
    9822:	f108 0801 	add.w	r8, r8, #1
    9826:	3608      	adds	r6, #8
    9828:	685a      	ldr	r2, [r3, #4]
    982a:	f006 fc81 	bl	10130 <__mempcpy>
    982e:	4544      	cmp	r4, r8
    9830:	dcf5      	bgt.n	981e <__libc_message+0x176>
    9832:	4b4e      	ldr	r3, [pc, #312]	; (996c <__libc_message+0x2c4>)
    9834:	2200      	movs	r2, #0
    9836:	7002      	strb	r2, [r0, #0]
    9838:	6818      	ldr	r0, [r3, #0]
    983a:	6839      	ldr	r1, [r7, #0]
    983c:	f3bf 8f5f 	dmb	sy
    9840:	e853 2f00 	ldrex	r2, [r3]
    9844:	4282      	cmp	r2, r0
    9846:	d105      	bne.n	9854 <__libc_message+0x1ac>
    9848:	e843 1200 	strex	r2, r1, [r3]
    984c:	f092 0f00 	teq	r2, #0
    9850:	d1f6      	bne.n	9840 <__libc_message+0x198>
    9852:	4602      	mov	r2, r0
    9854:	f3bf 8f5f 	dmb	sy
    9858:	4290      	cmp	r0, r2
    985a:	d1ed      	bne.n	9838 <__libc_message+0x190>
    985c:	f004 ff6a 	bl	e734 <__cfree>
    9860:	e7bf      	b.n	97e2 <__libc_message+0x13a>
    9862:	2a01      	cmp	r2, #1
    9864:	dd00      	ble.n	9868 <__libc_message+0x1c0>
    9866:	b90b      	cbnz	r3, 986c <__libc_message+0x1c4>
    9868:	f7ff fafe 	bl	8e68 <abort>
    986c:	2140      	movs	r1, #64	; 0x40
    986e:	f507 6081 	add.w	r0, r7, #1032	; 0x408
    9872:	f008 f827 	bl	118c4 <__backtrace>
    9876:	2802      	cmp	r0, #2
    9878:	4603      	mov	r3, r0
    987a:	ddf5      	ble.n	9868 <__libc_message+0x1c0>
    987c:	4658      	mov	r0, fp
    987e:	493c      	ldr	r1, [pc, #240]	; (9970 <__libc_message+0x2c8>)
    9880:	221d      	movs	r2, #29
    9882:	f04f 0c04 	mov.w	ip, #4
    9886:	f7ff facb 	bl	8e20 <__libc_do_syscall>
    988a:	f510 5f80 	cmn.w	r0, #4096	; 0x1000
    988e:	d906      	bls.n	989e <__libc_message+0x1f6>
    9890:	4a38      	ldr	r2, [pc, #224]	; (9974 <__libc_message+0x2cc>)
    9892:	ee1d 1f70 	mrc	15, 0, r1, cr13, cr0, {3}
    9896:	4240      	negs	r0, r0
    9898:	447a      	add	r2, pc
    989a:	6812      	ldr	r2, [r2, #0]
    989c:	5088      	str	r0, [r1, r2]
    989e:	f507 6080 	add.w	r0, r7, #1024	; 0x400
    98a2:	1e59      	subs	r1, r3, #1
    98a4:	465a      	mov	r2, fp
    98a6:	300c      	adds	r0, #12
    98a8:	f008 f830 	bl	1190c <__backtrace_symbols_fd>
    98ac:	4658      	mov	r0, fp
    98ae:	4932      	ldr	r1, [pc, #200]	; (9978 <__libc_message+0x2d0>)
    98b0:	221d      	movs	r2, #29
    98b2:	f04f 0c04 	mov.w	ip, #4
    98b6:	f7ff fab3 	bl	8e20 <__libc_do_syscall>
    98ba:	f510 5f80 	cmn.w	r0, #4096	; 0x1000
    98be:	d906      	bls.n	98ce <__libc_message+0x226>
    98c0:	4b2e      	ldr	r3, [pc, #184]	; (997c <__libc_message+0x2d4>)
    98c2:	ee1d 2f70 	mrc	15, 0, r2, cr13, cr0, {3}
    98c6:	4240      	negs	r0, r0
    98c8:	447b      	add	r3, pc
    98ca:	681b      	ldr	r3, [r3, #0]
    98cc:	50d0      	str	r0, [r2, r3]
    98ce:	482c      	ldr	r0, [pc, #176]	; (9980 <__libc_message+0x2d8>)
    98d0:	2100      	movs	r1, #0
    98d2:	f04f 0c05 	mov.w	ip, #5
    98d6:	f7ff faa3 	bl	8e20 <__libc_do_syscall>
    98da:	f510 5f80 	cmn.w	r0, #4096	; 0x1000
    98de:	bf98      	it	ls
    98e0:	4604      	movls	r4, r0
    98e2:	d908      	bls.n	98f6 <__libc_message+0x24e>
    98e4:	4b27      	ldr	r3, [pc, #156]	; (9984 <__libc_message+0x2dc>)
    98e6:	ee1d 2f70 	mrc	15, 0, r2, cr13, cr0, {3}
    98ea:	f04f 34ff 	mov.w	r4, #4294967295	; 0xffffffff
    98ee:	4240      	negs	r0, r0
    98f0:	447b      	add	r3, pc
    98f2:	681b      	ldr	r3, [r3, #0]
    98f4:	50d0      	str	r0, [r2, r3]
    98f6:	4d24      	ldr	r5, [pc, #144]	; (9988 <__libc_message+0x2e0>)
    98f8:	ee1d 6f70 	mrc	15, 0, r6, cr13, cr0, {3}
    98fc:	4620      	mov	r0, r4
    98fe:	f107 0108 	add.w	r1, r7, #8
    9902:	f44f 6280 	mov.w	r2, #1024	; 0x400
    9906:	f04f 0c03 	mov.w	ip, #3
    990a:	f7ff fa89 	bl	8e20 <__libc_do_syscall>
    990e:	f510 5f80 	cmn.w	r0, #4096	; 0x1000
    9912:	4603      	mov	r3, r0
    9914:	d81b      	bhi.n	994e <__libc_message+0x2a6>
    9916:	2800      	cmp	r0, #0
    9918:	dd13      	ble.n	9942 <__libc_message+0x29a>
    991a:	4658      	mov	r0, fp
    991c:	461a      	mov	r2, r3
    991e:	f04f 0c04 	mov.w	ip, #4
    9922:	f7ff fa7d 	bl	8e20 <__libc_do_syscall>
    9926:	f510 5f80 	cmn.w	r0, #4096	; 0x1000
    992a:	bf98      	it	ls
    992c:	4602      	movls	r2, r0
    992e:	d906      	bls.n	993e <__libc_message+0x296>
    9930:	4629      	mov	r1, r5
    9932:	4479      	add	r1, pc
    9934:	6809      	ldr	r1, [r1, #0]
    9936:	f04f 32ff 	mov.w	r2, #4294967295	; 0xffffffff
    993a:	4240      	negs	r0, r0
    993c:	5070      	str	r0, [r6, r1]
    993e:	4293      	cmp	r3, r2
    9940:	d0dc      	beq.n	98fc <__libc_message+0x254>
    9942:	4620      	mov	r0, r4
    9944:	f04f 0c06 	mov.w	ip, #6
    9948:	f7ff fa6a 	bl	8e20 <__libc_do_syscall>
    994c:	e78c      	b.n	9868 <__libc_message+0x1c0>
    994e:	4a0f      	ldr	r2, [pc, #60]	; (998c <__libc_message+0x2e4>)
    9950:	ee1d 1f70 	mrc	15, 0, r1, cr13, cr0, {3}
    9954:	4243      	negs	r3, r0
    9956:	447a      	add	r2, pc
    9958:	6812      	ldr	r2, [r2, #0]
    995a:	508b      	str	r3, [r1, r2]
    995c:	e7f1      	b.n	9942 <__libc_message+0x29a>
    995e:	bf00      	nop
    9960:	00048c58 	.word	0x00048c58
    9964:	00048c6c 	.word	0x00048c6c
    9968:	0005d4d4 	.word	0x0005d4d4
    996c:	000679f0 	.word	0x000679f0
    9970:	00048c78 	.word	0x00048c78
    9974:	0005d394 	.word	0x0005d394
    9978:	00048c98 	.word	0x00048c98
    997c:	0005d364 	.word	0x0005d364
    9980:	00048cb8 	.word	0x00048cb8
    9984:	0005d33c 	.word	0x0005d33c
    9988:	0005d2fa 	.word	0x0005d2fa
    998c:	0005d2d6 	.word	0x0005d2d6

00009990 <__libc_fatal>:
    9990:	4604      	mov	r4, r0
    9992:	b508      	push	{r3, lr}
    9994:	2001      	movs	r0, #1
    9996:	4902      	ldr	r1, [pc, #8]	; (99a0 <__libc_fatal+0x10>)
    9998:	4622      	mov	r2, r4
    999a:	f7ff fe85 	bl	96a8 <__libc_message>
    999e:	e7f9      	b.n	9994 <__libc_fatal+0x4>
    99a0:	0005d59c 	.word	0x0005d59c

000099a4 <flush_cleanup>:
    99a4:	b510      	push	{r4, lr}
    99a6:	4c2c      	ldr	r4, [pc, #176]	; (9a58 <flush_cleanup+0xb4>)
    99a8:	68a3      	ldr	r3, [r4, #8]
    99aa:	b113      	cbz	r3, 99b2 <flush_cleanup+0xe>
    99ac:	681a      	ldr	r2, [r3, #0]
    99ae:	0412      	lsls	r2, r2, #16
    99b0:	d51c      	bpl.n	99ec <flush_cleanup+0x48>
    99b2:	6923      	ldr	r3, [r4, #16]
    99b4:	4928      	ldr	r1, [pc, #160]	; (9a58 <flush_cleanup+0xb4>)
    99b6:	3b01      	subs	r3, #1
    99b8:	6123      	str	r3, [r4, #16]
    99ba:	b9b3      	cbnz	r3, 99ea <flush_cleanup+0x46>
    99bc:	f101 020c 	add.w	r2, r1, #12
    99c0:	4618      	mov	r0, r3
    99c2:	614b      	str	r3, [r1, #20]
    99c4:	68e3      	ldr	r3, [r4, #12]
    99c6:	f3bf 8f5f 	dmb	sy
    99ca:	e852 1f00 	ldrex	r1, [r2]
    99ce:	4299      	cmp	r1, r3
    99d0:	d105      	bne.n	99de <flush_cleanup+0x3a>
    99d2:	e842 0100 	strex	r1, r0, [r2]
    99d6:	f091 0f00 	teq	r1, #0
    99da:	d1f6      	bne.n	99ca <flush_cleanup+0x26>
    99dc:	4619      	mov	r1, r3
    99de:	f3bf 8f5f 	dmb	sy
    99e2:	428b      	cmp	r3, r1
    99e4:	d1ee      	bne.n	99c4 <flush_cleanup+0x20>
    99e6:	2b01      	cmp	r3, #1
    99e8:	dc28      	bgt.n	9a3c <flush_cleanup+0x98>
    99ea:	bd10      	pop	{r4, pc}
    99ec:	6c98      	ldr	r0, [r3, #72]	; 0x48
    99ee:	6843      	ldr	r3, [r0, #4]
    99f0:	3b01      	subs	r3, #1
    99f2:	6043      	str	r3, [r0, #4]
    99f4:	2b00      	cmp	r3, #0
    99f6:	d1dc      	bne.n	99b2 <flush_cleanup+0xe>
    99f8:	461a      	mov	r2, r3
    99fa:	6083      	str	r3, [r0, #8]
    99fc:	6803      	ldr	r3, [r0, #0]
    99fe:	f3bf 8f5f 	dmb	sy
    9a02:	e850 1f00 	ldrex	r1, [r0]
    9a06:	4299      	cmp	r1, r3
    9a08:	d105      	bne.n	9a16 <flush_cleanup+0x72>
    9a0a:	e840 2100 	strex	r1, r2, [r0]
    9a0e:	f091 0f00 	teq	r1, #0
    9a12:	d1f6      	bne.n	9a02 <flush_cleanup+0x5e>
    9a14:	4619      	mov	r1, r3
    9a16:	f3bf 8f5f 	dmb	sy
    9a1a:	428b      	cmp	r3, r1
    9a1c:	d1ee      	bne.n	99fc <flush_cleanup+0x58>
    9a1e:	2b01      	cmp	r3, #1
    9a20:	ddc7      	ble.n	99b2 <flush_cleanup+0xe>
    9a22:	ee1d 1f70 	mrc	15, 0, r1, cr13, cr0, {3}
    9a26:	2201      	movs	r2, #1
    9a28:	f5a1 6198 	sub.w	r1, r1, #1216	; 0x4c0
    9a2c:	2300      	movs	r3, #0
    9a2e:	f04f 0cf0 	mov.w	ip, #240	; 0xf0
    9a32:	6889      	ldr	r1, [r1, #8]
    9a34:	4311      	orrs	r1, r2
    9a36:	f7ff f9f3 	bl	8e20 <__libc_do_syscall>
    9a3a:	e7ba      	b.n	99b2 <flush_cleanup+0xe>
    9a3c:	ee1d 1f70 	mrc	15, 0, r1, cr13, cr0, {3}
    9a40:	2201      	movs	r2, #1
    9a42:	f5a1 6198 	sub.w	r1, r1, #1216	; 0x4c0
    9a46:	4805      	ldr	r0, [pc, #20]	; (9a5c <flush_cleanup+0xb8>)
    9a48:	2300      	movs	r3, #0
    9a4a:	f04f 0cf0 	mov.w	ip, #240	; 0xf0
    9a4e:	6889      	ldr	r1, [r1, #8]
    9a50:	4311      	orrs	r1, r2
    9a52:	f7ff f9e5 	bl	8e20 <__libc_do_syscall>
    9a56:	e7c8      	b.n	99ea <flush_cleanup+0x46>
    9a58:	00067c00 	.word	0x00067c00
    9a5c:	00067c0c 	.word	0x00067c0c

00009a60 <save_for_backup>:
    9a60:	e92d 4ff0 	stmdb	sp!, {r4, r5, r6, r7, r8, r9, sl, fp, lr}
    9a64:	4605      	mov	r5, r0
    9a66:	f8d0 b00c 	ldr.w	fp, [r0, #12]
    9a6a:	b083      	sub	sp, #12
    9a6c:	6b00      	ldr	r0, [r0, #48]	; 0x30
    9a6e:	460f      	mov	r7, r1
    9a70:	ebcb 0c01 	rsb	ip, fp, r1
    9a74:	2800      	cmp	r0, #0
    9a76:	d068      	beq.n	9b4a <save_for_backup+0xea>
    9a78:	4664      	mov	r4, ip
    9a7a:	4603      	mov	r3, r0
    9a7c:	689a      	ldr	r2, [r3, #8]
    9a7e:	681b      	ldr	r3, [r3, #0]
    9a80:	4294      	cmp	r4, r2
    9a82:	bfa8      	it	ge
    9a84:	4614      	movge	r4, r2
    9a86:	2b00      	cmp	r3, #0
    9a88:	d1f8      	bne.n	9a7c <save_for_backup+0x1c>
    9a8a:	6ae9      	ldr	r1, [r5, #44]	; 0x2c
    9a8c:	ebc4 0a0c 	rsb	sl, r4, ip
    9a90:	6a6e      	ldr	r6, [r5, #36]	; 0x24
    9a92:	ebc6 0801 	rsb	r8, r6, r1
    9a96:	45c2      	cmp	sl, r8
    9a98:	d813      	bhi.n	9ac2 <save_for_backup+0x62>
    9a9a:	2c00      	cmp	r4, #0
    9a9c:	ebca 0808 	rsb	r8, sl, r8
    9aa0:	db3f      	blt.n	9b22 <save_for_backup+0xc2>
    9aa2:	f1ba 0f00 	cmp.w	sl, #0
    9aa6:	d12f      	bne.n	9b08 <save_for_backup+0xa8>
    9aa8:	4446      	add	r6, r8
    9aaa:	62ae      	str	r6, [r5, #40]	; 0x28
    9aac:	b130      	cbz	r0, 9abc <save_for_backup+0x5c>
    9aae:	6883      	ldr	r3, [r0, #8]
    9ab0:	ebcc 0303 	rsb	r3, ip, r3
    9ab4:	6083      	str	r3, [r0, #8]
    9ab6:	6800      	ldr	r0, [r0, #0]
    9ab8:	2800      	cmp	r0, #0
    9aba:	d1f8      	bne.n	9aae <save_for_backup+0x4e>
    9abc:	b003      	add	sp, #12
    9abe:	e8bd 8ff0 	ldmia.w	sp!, {r4, r5, r6, r7, r8, r9, sl, fp, pc}
    9ac2:	f10a 0964 	add.w	r9, sl, #100	; 0x64
    9ac6:	9101      	str	r1, [sp, #4]
    9ac8:	4648      	mov	r0, r9
    9aca:	f004 fbcf 	bl	e26c <__libc_malloc>
    9ace:	9901      	ldr	r1, [sp, #4]
    9ad0:	4606      	mov	r6, r0
    9ad2:	f04f 30ff 	mov.w	r0, #4294967295	; 0xffffffff
    9ad6:	2e00      	cmp	r6, #0
    9ad8:	d0f0      	beq.n	9abc <save_for_backup+0x5c>
    9ada:	2c00      	cmp	r4, #0
    9adc:	db3c      	blt.n	9b58 <save_for_backup+0xf8>
    9ade:	f106 0064 	add.w	r0, r6, #100	; 0x64
    9ae2:	eb0b 0104 	add.w	r1, fp, r4
    9ae6:	4652      	mov	r2, sl
    9ae8:	f006 eb5a 	blx	101a0 <memcpy>
    9aec:	6a68      	ldr	r0, [r5, #36]	; 0x24
    9aee:	f04f 0864 	mov.w	r8, #100	; 0x64
    9af2:	f004 fe1f 	bl	e734 <__cfree>
    9af6:	68eb      	ldr	r3, [r5, #12]
    9af8:	eb06 0209 	add.w	r2, r6, r9
    9afc:	626e      	str	r6, [r5, #36]	; 0x24
    9afe:	62ea      	str	r2, [r5, #44]	; 0x2c
    9b00:	ebc3 0c07 	rsb	ip, r3, r7
    9b04:	6b28      	ldr	r0, [r5, #48]	; 0x30
    9b06:	e7cf      	b.n	9aa8 <save_for_backup+0x48>
    9b08:	eb06 0008 	add.w	r0, r6, r8
    9b0c:	eb0b 0104 	add.w	r1, fp, r4
    9b10:	4652      	mov	r2, sl
    9b12:	f006 eb46 	blx	101a0 <memcpy>
    9b16:	68eb      	ldr	r3, [r5, #12]
    9b18:	6a6e      	ldr	r6, [r5, #36]	; 0x24
    9b1a:	6b28      	ldr	r0, [r5, #48]	; 0x30
    9b1c:	ebc3 0c07 	rsb	ip, r3, r7
    9b20:	e7c2      	b.n	9aa8 <save_for_backup+0x48>
    9b22:	1909      	adds	r1, r1, r4
    9b24:	4262      	negs	r2, r4
    9b26:	eb06 0008 	add.w	r0, r6, r8
    9b2a:	ebc4 0408 	rsb	r4, r4, r8
    9b2e:	f006 e920 	blx	fd70 <memmove>
    9b32:	68e9      	ldr	r1, [r5, #12]
    9b34:	6a68      	ldr	r0, [r5, #36]	; 0x24
    9b36:	1a7a      	subs	r2, r7, r1
    9b38:	1900      	adds	r0, r0, r4
    9b3a:	f006 eb32 	blx	101a0 <memcpy>
    9b3e:	68eb      	ldr	r3, [r5, #12]
    9b40:	6a6e      	ldr	r6, [r5, #36]	; 0x24
    9b42:	ebc3 0c07 	rsb	ip, r3, r7
    9b46:	6b28      	ldr	r0, [r5, #48]	; 0x30
    9b48:	e7ae      	b.n	9aa8 <save_for_backup+0x48>
    9b4a:	6ae9      	ldr	r1, [r5, #44]	; 0x2c
    9b4c:	4664      	mov	r4, ip
    9b4e:	6a6e      	ldr	r6, [r5, #36]	; 0x24
    9b50:	4682      	mov	sl, r0
    9b52:	ebc6 0801 	rsb	r8, r6, r1
    9b56:	e7a0      	b.n	9a9a <save_for_backup+0x3a>
    9b58:	1909      	adds	r1, r1, r4
    9b5a:	4262      	negs	r2, r4
    9b5c:	f106 0064 	add.w	r0, r6, #100	; 0x64
    9b60:	f006 fae6 	bl	10130 <__mempcpy>
    9b64:	68e9      	ldr	r1, [r5, #12]
    9b66:	1a7a      	subs	r2, r7, r1
    9b68:	f006 fae2 	bl	10130 <__mempcpy>
    9b6c:	e7be      	b.n	9aec <save_for_backup+0x8c>
    9b6e:	bf00      	nop

00009b70 <_IO_un_link>:
    9b70:	6803      	ldr	r3, [r0, #0]
    9b72:	b5f0      	push	{r4, r5, r6, r7, lr}
    9b74:	0619      	lsls	r1, r3, #24
    9b76:	b085      	sub	sp, #20
    9b78:	4607      	mov	r7, r0
    9b7a:	f140 808e 	bpl.w	9c9a <_IO_un_link+0x12a>
    9b7e:	4d6b      	ldr	r5, [pc, #428]	; (9d2c <_IO_un_link+0x1bc>)
    9b80:	3500      	adds	r5, #0
    9b82:	bf18      	it	ne
    9b84:	2501      	movne	r5, #1
    9b86:	2d00      	cmp	r5, #0
    9b88:	f040 8091 	bne.w	9cae <_IO_un_link+0x13e>
    9b8c:	4b68      	ldr	r3, [pc, #416]	; (9d30 <_IO_un_link+0x1c0>)
    9b8e:	9501      	str	r5, [sp, #4]
    9b90:	9300      	str	r3, [sp, #0]
    9b92:	4c68      	ldr	r4, [pc, #416]	; (9d34 <_IO_un_link+0x1c4>)
    9b94:	ee1d 6f70 	mrc	15, 0, r6, cr13, cr0, {3}
    9b98:	f5a6 6698 	sub.w	r6, r6, #1216	; 0x4c0
    9b9c:	6963      	ldr	r3, [r4, #20]
    9b9e:	42b3      	cmp	r3, r6
    9ba0:	d015      	beq.n	9bce <_IO_un_link+0x5e>
    9ba2:	f104 000c 	add.w	r0, r4, #12
    9ba6:	2300      	movs	r3, #0
    9ba8:	2101      	movs	r1, #1
    9baa:	f3bf 8f5f 	dmb	sy
    9bae:	e850 2f00 	ldrex	r2, [r0]
    9bb2:	429a      	cmp	r2, r3
    9bb4:	d105      	bne.n	9bc2 <_IO_un_link+0x52>
    9bb6:	e840 1200 	strex	r2, r1, [r0]
    9bba:	f092 0f00 	teq	r2, #0
    9bbe:	d1f6      	bne.n	9bae <_IO_un_link+0x3e>
    9bc0:	461a      	mov	r2, r3
    9bc2:	f3bf 8f5f 	dmb	sy
    9bc6:	2a00      	cmp	r2, #0
    9bc8:	f040 80a8 	bne.w	9d1c <_IO_un_link+0x1ac>
    9bcc:	6166      	str	r6, [r4, #20]
    9bce:	6923      	ldr	r3, [r4, #16]
    9bd0:	6839      	ldr	r1, [r7, #0]
    9bd2:	3301      	adds	r3, #1
    9bd4:	60a7      	str	r7, [r4, #8]
    9bd6:	f411 4000 	ands.w	r0, r1, #32768	; 0x8000
    9bda:	6123      	str	r3, [r4, #16]
    9bdc:	d11e      	bne.n	9c1c <_IO_un_link+0xac>
    9bde:	6cbb      	ldr	r3, [r7, #72]	; 0x48
    9be0:	689a      	ldr	r2, [r3, #8]
    9be2:	4296      	cmp	r6, r2
    9be4:	d014      	beq.n	9c10 <_IO_un_link+0xa0>
    9be6:	2101      	movs	r1, #1
    9be8:	f3bf 8f5f 	dmb	sy
    9bec:	e853 2f00 	ldrex	r2, [r3]
    9bf0:	4282      	cmp	r2, r0
    9bf2:	d105      	bne.n	9c00 <_IO_un_link+0x90>
    9bf4:	e843 1200 	strex	r2, r1, [r3]
    9bf8:	f092 0f00 	teq	r2, #0
    9bfc:	d1f6      	bne.n	9bec <_IO_un_link+0x7c>
    9bfe:	4602      	mov	r2, r0
    9c00:	f3bf 8f5f 	dmb	sy
    9c04:	2a00      	cmp	r2, #0
    9c06:	f040 808c 	bne.w	9d22 <_IO_un_link+0x1b2>
    9c0a:	6cba      	ldr	r2, [r7, #72]	; 0x48
    9c0c:	4613      	mov	r3, r2
    9c0e:	6096      	str	r6, [r2, #8]
    9c10:	6839      	ldr	r1, [r7, #0]
    9c12:	685a      	ldr	r2, [r3, #4]
    9c14:	f401 4000 	and.w	r0, r1, #32768	; 0x8000
    9c18:	3201      	adds	r2, #1
    9c1a:	605a      	str	r2, [r3, #4]
    9c1c:	4b46      	ldr	r3, [pc, #280]	; (9d38 <_IO_un_link+0x1c8>)
    9c1e:	681a      	ldr	r2, [r3, #0]
    9c20:	b172      	cbz	r2, 9c40 <_IO_un_link+0xd0>
    9c22:	4297      	cmp	r7, r2
    9c24:	d068      	beq.n	9cf8 <_IO_un_link+0x188>
    9c26:	6b53      	ldr	r3, [r2, #52]	; 0x34
    9c28:	b153      	cbz	r3, 9c40 <_IO_un_link+0xd0>
    9c2a:	3234      	adds	r2, #52	; 0x34
    9c2c:	429f      	cmp	r7, r3
    9c2e:	d102      	bne.n	9c36 <_IO_un_link+0xc6>
    9c30:	e035      	b.n	9c9e <_IO_un_link+0x12e>
    9c32:	429f      	cmp	r7, r3
    9c34:	d033      	beq.n	9c9e <_IO_un_link+0x12e>
    9c36:	f103 0234 	add.w	r2, r3, #52	; 0x34
    9c3a:	6b5b      	ldr	r3, [r3, #52]	; 0x34
    9c3c:	2b00      	cmp	r3, #0
    9c3e:	d1f8      	bne.n	9c32 <_IO_un_link+0xc2>
    9c40:	f021 0180 	bic.w	r1, r1, #128	; 0x80
    9c44:	6039      	str	r1, [r7, #0]
    9c46:	b928      	cbnz	r0, 9c54 <_IO_un_link+0xe4>
    9c48:	6cbb      	ldr	r3, [r7, #72]	; 0x48
    9c4a:	685a      	ldr	r2, [r3, #4]
    9c4c:	3a01      	subs	r2, #1
    9c4e:	605a      	str	r2, [r3, #4]
    9c50:	2a00      	cmp	r2, #0
    9c52:	d032      	beq.n	9cba <_IO_un_link+0x14a>
    9c54:	6923      	ldr	r3, [r4, #16]
    9c56:	2200      	movs	r2, #0
    9c58:	4936      	ldr	r1, [pc, #216]	; (9d34 <_IO_un_link+0x1c4>)
    9c5a:	3b01      	subs	r3, #1
    9c5c:	60a2      	str	r2, [r4, #8]
    9c5e:	6123      	str	r3, [r4, #16]
    9c60:	b9b3      	cbnz	r3, 9c90 <_IO_un_link+0x120>
    9c62:	f101 000c 	add.w	r0, r1, #12
    9c66:	461a      	mov	r2, r3
    9c68:	614b      	str	r3, [r1, #20]
    9c6a:	68e3      	ldr	r3, [r4, #12]
    9c6c:	f3bf 8f5f 	dmb	sy
    9c70:	e850 1f00 	ldrex	r1, [r0]
    9c74:	4299      	cmp	r1, r3
    9c76:	d105      	bne.n	9c84 <_IO_un_link+0x114>
    9c78:	e840 2100 	strex	r1, r2, [r0]
    9c7c:	f091 0f00 	teq	r1, #0
    9c80:	d1f6      	bne.n	9c70 <_IO_un_link+0x100>
    9c82:	4619      	mov	r1, r3
    9c84:	f3bf 8f5f 	dmb	sy
    9c88:	428b      	cmp	r3, r1
    9c8a:	d1ee      	bne.n	9c6a <_IO_un_link+0xfa>
    9c8c:	2b01      	cmp	r3, #1
    9c8e:	dc3b      	bgt.n	9d08 <_IO_un_link+0x198>
    9c90:	b11d      	cbz	r5, 9c9a <_IO_un_link+0x12a>
    9c92:	4668      	mov	r0, sp
    9c94:	2100      	movs	r1, #0
    9c96:	f3af 8000 	nop.w
    9c9a:	b005      	add	sp, #20
    9c9c:	bdf0      	pop	{r4, r5, r6, r7, pc}
    9c9e:	f8d7 c034 	ldr.w	ip, [r7, #52]	; 0x34
    9ca2:	69a3      	ldr	r3, [r4, #24]
    9ca4:	f8c2 c000 	str.w	ip, [r2]
    9ca8:	3301      	adds	r3, #1
    9caa:	61a3      	str	r3, [r4, #24]
    9cac:	e7c8      	b.n	9c40 <_IO_un_link+0xd0>
    9cae:	4668      	mov	r0, sp
    9cb0:	491f      	ldr	r1, [pc, #124]	; (9d30 <_IO_un_link+0x1c0>)
    9cb2:	2200      	movs	r2, #0
    9cb4:	f3af 8000 	nop.w
    9cb8:	e76b      	b.n	9b92 <_IO_un_link+0x22>
    9cba:	4601      	mov	r1, r0
    9cbc:	6098      	str	r0, [r3, #8]
    9cbe:	681a      	ldr	r2, [r3, #0]
    9cc0:	f3bf 8f5f 	dmb	sy
    9cc4:	e853 0f00 	ldrex	r0, [r3]
    9cc8:	4290      	cmp	r0, r2
    9cca:	d105      	bne.n	9cd8 <_IO_un_link+0x168>
    9ccc:	e843 1000 	strex	r0, r1, [r3]
    9cd0:	f090 0f00 	teq	r0, #0
    9cd4:	d1f6      	bne.n	9cc4 <_IO_un_link+0x154>
    9cd6:	4610      	mov	r0, r2
    9cd8:	f3bf 8f5f 	dmb	sy
    9cdc:	4282      	cmp	r2, r0
    9cde:	d1ee      	bne.n	9cbe <_IO_un_link+0x14e>
    9ce0:	2a01      	cmp	r2, #1
    9ce2:	ddb7      	ble.n	9c54 <_IO_un_link+0xe4>
    9ce4:	68b1      	ldr	r1, [r6, #8]
    9ce6:	2201      	movs	r2, #1
    9ce8:	4618      	mov	r0, r3
    9cea:	f04f 0cf0 	mov.w	ip, #240	; 0xf0
    9cee:	2300      	movs	r3, #0
    9cf0:	4311      	orrs	r1, r2
    9cf2:	f7ff f895 	bl	8e20 <__libc_do_syscall>
    9cf6:	e7ad      	b.n	9c54 <_IO_un_link+0xe4>
    9cf8:	f8d7 c034 	ldr.w	ip, [r7, #52]	; 0x34
    9cfc:	69a2      	ldr	r2, [r4, #24]
    9cfe:	f8c3 c000 	str.w	ip, [r3]
    9d02:	1c53      	adds	r3, r2, #1
    9d04:	61a3      	str	r3, [r4, #24]
    9d06:	e79b      	b.n	9c40 <_IO_un_link+0xd0>
    9d08:	68b1      	ldr	r1, [r6, #8]
    9d0a:	2201      	movs	r2, #1
    9d0c:	480b      	ldr	r0, [pc, #44]	; (9d3c <_IO_un_link+0x1cc>)
    9d0e:	2300      	movs	r3, #0
    9d10:	4311      	orrs	r1, r2
    9d12:	f04f 0cf0 	mov.w	ip, #240	; 0xf0
    9d16:	f7ff f883 	bl	8e20 <__libc_do_syscall>
    9d1a:	e7b9      	b.n	9c90 <_IO_un_link+0x120>
    9d1c:	f007 fbd0 	bl	114c0 <__lll_lock_wait_private>
    9d20:	e754      	b.n	9bcc <_IO_un_link+0x5c>
    9d22:	4618      	mov	r0, r3
    9d24:	f007 fbcc 	bl	114c0 <__lll_lock_wait_private>
    9d28:	e76f      	b.n	9c0a <_IO_un_link+0x9a>
    9d2a:	bf00      	nop
    9d2c:	00000000 	.word	0x00000000
    9d30:	000099a5 	.word	0x000099a5
    9d34:	00067c00 	.word	0x00067c00
    9d38:	00066c70 	.word	0x00066c70
    9d3c:	00067c0c 	.word	0x00067c0c

00009d40 <_IO_link_in>:
    9d40:	6803      	ldr	r3, [r0, #0]
    9d42:	e92d 43f0 	stmdb	sp!, {r4, r5, r6, r7, r8, r9, lr}
    9d46:	f013 0280 	ands.w	r2, r3, #128	; 0x80
    9d4a:	b085      	sub	sp, #20
    9d4c:	4607      	mov	r7, r0
    9d4e:	f040 8084 	bne.w	9e5a <_IO_link_in+0x11a>
    9d52:	4d61      	ldr	r5, [pc, #388]	; (9ed8 <_IO_link_in+0x198>)
    9d54:	f043 0380 	orr.w	r3, r3, #128	; 0x80
    9d58:	6003      	str	r3, [r0, #0]
    9d5a:	3500      	adds	r5, #0
    9d5c:	bf18      	it	ne
    9d5e:	2501      	movne	r5, #1
    9d60:	2d00      	cmp	r5, #0
    9d62:	f040 8085 	bne.w	9e70 <_IO_link_in+0x130>
    9d66:	4b5d      	ldr	r3, [pc, #372]	; (9edc <_IO_link_in+0x19c>)
    9d68:	9501      	str	r5, [sp, #4]
    9d6a:	9300      	str	r3, [sp, #0]
    9d6c:	4c5c      	ldr	r4, [pc, #368]	; (9ee0 <_IO_link_in+0x1a0>)
    9d6e:	ee1d 6f70 	mrc	15, 0, r6, cr13, cr0, {3}
    9d72:	f5a6 6698 	sub.w	r6, r6, #1216	; 0x4c0
    9d76:	6963      	ldr	r3, [r4, #20]
    9d78:	42b3      	cmp	r3, r6
    9d7a:	d015      	beq.n	9da8 <_IO_link_in+0x68>
    9d7c:	f104 000c 	add.w	r0, r4, #12
    9d80:	2300      	movs	r3, #0
    9d82:	2101      	movs	r1, #1
    9d84:	f3bf 8f5f 	dmb	sy
    9d88:	e850 2f00 	ldrex	r2, [r0]
    9d8c:	429a      	cmp	r2, r3
    9d8e:	d105      	bne.n	9d9c <_IO_link_in+0x5c>
    9d90:	e840 1200 	strex	r2, r1, [r0]
    9d94:	f092 0f00 	teq	r2, #0
    9d98:	d1f6      	bne.n	9d88 <_IO_link_in+0x48>
    9d9a:	461a      	mov	r2, r3
    9d9c:	f3bf 8f5f 	dmb	sy
    9da0:	2a00      	cmp	r2, #0
    9da2:	f040 8088 	bne.w	9eb6 <_IO_link_in+0x176>
    9da6:	6166      	str	r6, [r4, #20]
    9da8:	6922      	ldr	r2, [r4, #16]
    9daa:	683b      	ldr	r3, [r7, #0]
    9dac:	3201      	adds	r2, #1
    9dae:	60a7      	str	r7, [r4, #8]
    9db0:	f413 4100 	ands.w	r1, r3, #32768	; 0x8000
    9db4:	6122      	str	r2, [r4, #16]
    9db6:	4a4a      	ldr	r2, [pc, #296]	; (9ee0 <_IO_link_in+0x1a0>)
    9db8:	d152      	bne.n	9e60 <_IO_link_in+0x120>
    9dba:	6cb8      	ldr	r0, [r7, #72]	; 0x48
    9dbc:	6882      	ldr	r2, [r0, #8]
    9dbe:	4296      	cmp	r6, r2
    9dc0:	d013      	beq.n	9dea <_IO_link_in+0xaa>
    9dc2:	2201      	movs	r2, #1
    9dc4:	f3bf 8f5f 	dmb	sy
    9dc8:	e850 3f00 	ldrex	r3, [r0]
    9dcc:	428b      	cmp	r3, r1
    9dce:	d105      	bne.n	9ddc <_IO_link_in+0x9c>
    9dd0:	e840 2300 	strex	r3, r2, [r0]
    9dd4:	f093 0f00 	teq	r3, #0
    9dd8:	d1f6      	bne.n	9dc8 <_IO_link_in+0x88>
    9dda:	460b      	mov	r3, r1
    9ddc:	f3bf 8f5f 	dmb	sy
    9de0:	2b00      	cmp	r3, #0
    9de2:	d175      	bne.n	9ed0 <_IO_link_in+0x190>
    9de4:	6cb8      	ldr	r0, [r7, #72]	; 0x48
    9de6:	683b      	ldr	r3, [r7, #0]
    9de8:	6086      	str	r6, [r0, #8]
    9dea:	493e      	ldr	r1, [pc, #248]	; (9ee4 <_IO_link_in+0x1a4>)
    9dec:	041b      	lsls	r3, r3, #16
    9dee:	6842      	ldr	r2, [r0, #4]
    9df0:	f8d4 9018 	ldr.w	r9, [r4, #24]
    9df4:	f8d1 c000 	ldr.w	ip, [r1]
    9df8:	f102 0801 	add.w	r8, r2, #1
    9dfc:	600f      	str	r7, [r1, #0]
    9dfe:	f109 0101 	add.w	r1, r9, #1
    9e02:	f8c0 8004 	str.w	r8, [r0, #4]
    9e06:	61a1      	str	r1, [r4, #24]
    9e08:	f8c7 c034 	str.w	ip, [r7, #52]	; 0x34
    9e0c:	d402      	bmi.n	9e14 <_IO_link_in+0xd4>
    9e0e:	6042      	str	r2, [r0, #4]
    9e10:	2a00      	cmp	r2, #0
    9e12:	d032      	beq.n	9e7a <_IO_link_in+0x13a>
    9e14:	6923      	ldr	r3, [r4, #16]
    9e16:	2100      	movs	r1, #0
    9e18:	4a31      	ldr	r2, [pc, #196]	; (9ee0 <_IO_link_in+0x1a0>)
    9e1a:	3b01      	subs	r3, #1
    9e1c:	60a1      	str	r1, [r4, #8]
    9e1e:	6123      	str	r3, [r4, #16]
    9e20:	b9b3      	cbnz	r3, 9e50 <_IO_link_in+0x110>
    9e22:	f102 000c 	add.w	r0, r2, #12
    9e26:	4619      	mov	r1, r3
    9e28:	6153      	str	r3, [r2, #20]
    9e2a:	68e3      	ldr	r3, [r4, #12]
    9e2c:	f3bf 8f5f 	dmb	sy
    9e30:	e850 2f00 	ldrex	r2, [r0]
    9e34:	429a      	cmp	r2, r3
    9e36:	d105      	bne.n	9e44 <_IO_link_in+0x104>
    9e38:	e840 1200 	strex	r2, r1, [r0]
    9e3c:	f092 0f00 	teq	r2, #0
    9e40:	d1f6      	bne.n	9e30 <_IO_link_in+0xf0>
    9e42:	461a      	mov	r2, r3
    9e44:	f3bf 8f5f 	dmb	sy
    9e48:	4293      	cmp	r3, r2
    9e4a:	d1ee      	bne.n	9e2a <_IO_link_in+0xea>
    9e4c:	2b01      	cmp	r3, #1
    9e4e:	dc35      	bgt.n	9ebc <_IO_link_in+0x17c>
    9e50:	b11d      	cbz	r5, 9e5a <_IO_link_in+0x11a>
    9e52:	4668      	mov	r0, sp
    9e54:	2100      	movs	r1, #0
    9e56:	f3af 8000 	nop.w
    9e5a:	b005      	add	sp, #20
    9e5c:	e8bd 83f0 	ldmia.w	sp!, {r4, r5, r6, r7, r8, r9, pc}
    9e60:	4b20      	ldr	r3, [pc, #128]	; (9ee4 <_IO_link_in+0x1a4>)
    9e62:	6990      	ldr	r0, [r2, #24]
    9e64:	6819      	ldr	r1, [r3, #0]
    9e66:	3001      	adds	r0, #1
    9e68:	601f      	str	r7, [r3, #0]
    9e6a:	6190      	str	r0, [r2, #24]
    9e6c:	6379      	str	r1, [r7, #52]	; 0x34
    9e6e:	e7d1      	b.n	9e14 <_IO_link_in+0xd4>
    9e70:	4668      	mov	r0, sp
    9e72:	491a      	ldr	r1, [pc, #104]	; (9edc <_IO_link_in+0x19c>)
    9e74:	f3af 8000 	nop.w
    9e78:	e778      	b.n	9d6c <_IO_link_in+0x2c>
    9e7a:	4611      	mov	r1, r2
    9e7c:	6082      	str	r2, [r0, #8]
    9e7e:	6803      	ldr	r3, [r0, #0]
    9e80:	f3bf 8f5f 	dmb	sy
    9e84:	e850 2f00 	ldrex	r2, [r0]
    9e88:	429a      	cmp	r2, r3
    9e8a:	d105      	bne.n	9e98 <_IO_link_in+0x158>
    9e8c:	e840 1200 	strex	r2, r1, [r0]
    9e90:	f092 0f00 	teq	r2, #0
    9e94:	d1f6      	bne.n	9e84 <_IO_link_in+0x144>
    9e96:	461a      	mov	r2, r3
    9e98:	f3bf 8f5f 	dmb	sy
    9e9c:	4293      	cmp	r3, r2
    9e9e:	d1ee      	bne.n	9e7e <_IO_link_in+0x13e>
    9ea0:	2b01      	cmp	r3, #1
    9ea2:	ddb7      	ble.n	9e14 <_IO_link_in+0xd4>
    9ea4:	68b1      	ldr	r1, [r6, #8]
    9ea6:	2201      	movs	r2, #1
    9ea8:	2300      	movs	r3, #0
    9eaa:	f04f 0cf0 	mov.w	ip, #240	; 0xf0
    9eae:	4311      	orrs	r1, r2
    9eb0:	f7fe ffb6 	bl	8e20 <__libc_do_syscall>
    9eb4:	e7ae      	b.n	9e14 <_IO_link_in+0xd4>
    9eb6:	f007 fb03 	bl	114c0 <__lll_lock_wait_private>
    9eba:	e774      	b.n	9da6 <_IO_link_in+0x66>
    9ebc:	68b1      	ldr	r1, [r6, #8]
    9ebe:	2201      	movs	r2, #1
    9ec0:	4809      	ldr	r0, [pc, #36]	; (9ee8 <_IO_link_in+0x1a8>)
    9ec2:	2300      	movs	r3, #0
    9ec4:	4311      	orrs	r1, r2
    9ec6:	f04f 0cf0 	mov.w	ip, #240	; 0xf0
    9eca:	f7fe ffa9 	bl	8e20 <__libc_do_syscall>
    9ece:	e7bf      	b.n	9e50 <_IO_link_in+0x110>
    9ed0:	f007 faf6 	bl	114c0 <__lll_lock_wait_private>
    9ed4:	e786      	b.n	9de4 <_IO_link_in+0xa4>
    9ed6:	bf00      	nop
    9ed8:	00000000 	.word	0x00000000
    9edc:	000099a5 	.word	0x000099a5
    9ee0:	00067c00 	.word	0x00067c00
    9ee4:	00066c70 	.word	0x00066c70
    9ee8:	00067c0c 	.word	0x00067c0c

00009eec <_IO_least_marker>:
    9eec:	68c2      	ldr	r2, [r0, #12]
    9eee:	6b03      	ldr	r3, [r0, #48]	; 0x30
    9ef0:	1a88      	subs	r0, r1, r2
    9ef2:	b133      	cbz	r3, 9f02 <_IO_least_marker+0x16>
    9ef4:	689a      	ldr	r2, [r3, #8]
    9ef6:	681b      	ldr	r3, [r3, #0]
    9ef8:	4290      	cmp	r0, r2
    9efa:	bfa8      	it	ge
    9efc:	4610      	movge	r0, r2
    9efe:	2b00      	cmp	r3, #0
    9f00:	d1f8      	bne.n	9ef4 <_IO_least_marker+0x8>
    9f02:	4770      	bx	lr

00009f04 <_IO_switch_to_main_get_area>:
    9f04:	6a43      	ldr	r3, [r0, #36]	; 0x24
    9f06:	b430      	push	{r4, r5}
    9f08:	68c2      	ldr	r2, [r0, #12]
    9f0a:	6884      	ldr	r4, [r0, #8]
    9f0c:	6ac5      	ldr	r5, [r0, #44]	; 0x2c
    9f0e:	6801      	ldr	r1, [r0, #0]
    9f10:	62c4      	str	r4, [r0, #44]	; 0x2c
    9f12:	f421 7180 	bic.w	r1, r1, #256	; 0x100
    9f16:	6085      	str	r5, [r0, #8]
    9f18:	6001      	str	r1, [r0, #0]
    9f1a:	60c3      	str	r3, [r0, #12]
    9f1c:	6242      	str	r2, [r0, #36]	; 0x24
    9f1e:	6043      	str	r3, [r0, #4]
    9f20:	bc30      	pop	{r4, r5}
    9f22:	4770      	bx	lr

00009f24 <_IO_switch_to_backup_area>:
    9f24:	6ac3      	ldr	r3, [r0, #44]	; 0x2c
    9f26:	b430      	push	{r4, r5}
    9f28:	68c2      	ldr	r2, [r0, #12]
    9f2a:	6885      	ldr	r5, [r0, #8]
    9f2c:	6a41      	ldr	r1, [r0, #36]	; 0x24
    9f2e:	6804      	ldr	r4, [r0, #0]
    9f30:	6083      	str	r3, [r0, #8]
    9f32:	f444 7480 	orr.w	r4, r4, #256	; 0x100
    9f36:	62c5      	str	r5, [r0, #44]	; 0x2c
    9f38:	6004      	str	r4, [r0, #0]
    9f3a:	60c1      	str	r1, [r0, #12]
    9f3c:	6242      	str	r2, [r0, #36]	; 0x24
    9f3e:	6043      	str	r3, [r0, #4]
    9f40:	bc30      	pop	{r4, r5}
    9f42:	4770      	bx	lr

00009f44 <_IO_switch_to_get_mode>:
    9f44:	6943      	ldr	r3, [r0, #20]
    9f46:	6902      	ldr	r2, [r0, #16]
    9f48:	b510      	push	{r4, lr}
    9f4a:	4293      	cmp	r3, r2
    9f4c:	4604      	mov	r4, r0
    9f4e:	d813      	bhi.n	9f78 <_IO_switch_to_get_mode+0x34>
    9f50:	6822      	ldr	r2, [r4, #0]
    9f52:	05d1      	lsls	r1, r2, #23
    9f54:	d40d      	bmi.n	9f72 <_IO_switch_to_get_mode+0x2e>
    9f56:	69e0      	ldr	r0, [r4, #28]
    9f58:	68a1      	ldr	r1, [r4, #8]
    9f5a:	60e0      	str	r0, [r4, #12]
    9f5c:	4299      	cmp	r1, r3
    9f5e:	bf38      	it	cc
    9f60:	60a3      	strcc	r3, [r4, #8]
    9f62:	2000      	movs	r0, #0
    9f64:	f422 6200 	bic.w	r2, r2, #2048	; 0x800
    9f68:	6063      	str	r3, [r4, #4]
    9f6a:	61a3      	str	r3, [r4, #24]
    9f6c:	6123      	str	r3, [r4, #16]
    9f6e:	6022      	str	r2, [r4, #0]
    9f70:	bd10      	pop	{r4, pc}
    9f72:	6aa1      	ldr	r1, [r4, #40]	; 0x28
    9f74:	60e1      	str	r1, [r4, #12]
    9f76:	e7f4      	b.n	9f62 <_IO_switch_to_get_mode+0x1e>
    9f78:	f8d0 3098 	ldr.w	r3, [r0, #152]	; 0x98
    9f7c:	f04f 31ff 	mov.w	r1, #4294967295	; 0xffffffff
    9f80:	68db      	ldr	r3, [r3, #12]
    9f82:	4798      	blx	r3
    9f84:	1c43      	adds	r3, r0, #1
    9f86:	d0f3      	beq.n	9f70 <_IO_switch_to_get_mode+0x2c>
    9f88:	6963      	ldr	r3, [r4, #20]
    9f8a:	e7e1      	b.n	9f50 <_IO_switch_to_get_mode+0xc>

00009f8c <_IO_free_backup_area>:
    9f8c:	b538      	push	{r3, r4, r5, lr}
    9f8e:	4604      	mov	r4, r0
    9f90:	6803      	ldr	r3, [r0, #0]
    9f92:	05da      	lsls	r2, r3, #23
    9f94:	bf58      	it	pl
    9f96:	6a40      	ldrpl	r0, [r0, #36]	; 0x24
    9f98:	d50b      	bpl.n	9fb2 <_IO_free_backup_area+0x26>
    9f9a:	6a62      	ldr	r2, [r4, #36]	; 0x24
    9f9c:	f423 7380 	bic.w	r3, r3, #256	; 0x100
    9fa0:	68a1      	ldr	r1, [r4, #8]
    9fa2:	6ae5      	ldr	r5, [r4, #44]	; 0x2c
    9fa4:	68e0      	ldr	r0, [r4, #12]
    9fa6:	6023      	str	r3, [r4, #0]
    9fa8:	60a5      	str	r5, [r4, #8]
    9faa:	62e1      	str	r1, [r4, #44]	; 0x2c
    9fac:	60e2      	str	r2, [r4, #12]
    9fae:	6260      	str	r0, [r4, #36]	; 0x24
    9fb0:	6062      	str	r2, [r4, #4]
    9fb2:	f004 fbbf 	bl	e734 <__cfree>
    9fb6:	2300      	movs	r3, #0
    9fb8:	6263      	str	r3, [r4, #36]	; 0x24
    9fba:	62e3      	str	r3, [r4, #44]	; 0x2c
    9fbc:	62a3      	str	r3, [r4, #40]	; 0x28
    9fbe:	bd38      	pop	{r3, r4, r5, pc}

00009fc0 <__overflow>:
    9fc0:	b508      	push	{r3, lr}
    9fc2:	6ec3      	ldr	r3, [r0, #108]	; 0x6c
    9fc4:	b913      	cbnz	r3, 9fcc <__overflow+0xc>
    9fc6:	f04f 33ff 	mov.w	r3, #4294967295	; 0xffffffff
    9fca:	66c3      	str	r3, [r0, #108]	; 0x6c
    9fcc:	f8d0 3098 	ldr.w	r3, [r0, #152]	; 0x98
    9fd0:	68db      	ldr	r3, [r3, #12]
    9fd2:	4798      	blx	r3
    9fd4:	bd08      	pop	{r3, pc}
    9fd6:	bf00      	nop

00009fd8 <__underflow>:
    9fd8:	b538      	push	{r3, r4, r5, lr}
    9fda:	4604      	mov	r4, r0
    9fdc:	6ec3      	ldr	r3, [r0, #108]	; 0x6c
    9fde:	b9db      	cbnz	r3, a018 <__underflow+0x40>
    9fe0:	f04f 33ff 	mov.w	r3, #4294967295	; 0xffffffff
    9fe4:	66c3      	str	r3, [r0, #108]	; 0x6c
    9fe6:	6823      	ldr	r3, [r4, #0]
    9fe8:	051a      	lsls	r2, r3, #20
    9fea:	d42b      	bmi.n	a044 <__underflow+0x6c>
    9fec:	6863      	ldr	r3, [r4, #4]
    9fee:	68a2      	ldr	r2, [r4, #8]
    9ff0:	4293      	cmp	r3, r2
    9ff2:	d325      	bcc.n	a040 <__underflow+0x68>
    9ff4:	6823      	ldr	r3, [r4, #0]
    9ff6:	05d9      	lsls	r1, r3, #23
    9ff8:	d413      	bmi.n	a022 <__underflow+0x4a>
    9ffa:	6b23      	ldr	r3, [r4, #48]	; 0x30
    9ffc:	2b00      	cmp	r3, #0
    9ffe:	d027      	beq.n	a050 <__underflow+0x78>
    a000:	4620      	mov	r0, r4
    a002:	68a1      	ldr	r1, [r4, #8]
    a004:	f7ff fd2c 	bl	9a60 <save_for_backup>
    a008:	2800      	cmp	r0, #0
    a00a:	d128      	bne.n	a05e <__underflow+0x86>
    a00c:	f8d4 3098 	ldr.w	r3, [r4, #152]	; 0x98
    a010:	4620      	mov	r0, r4
    a012:	691b      	ldr	r3, [r3, #16]
    a014:	4798      	blx	r3
    a016:	bd38      	pop	{r3, r4, r5, pc}
    a018:	3301      	adds	r3, #1
    a01a:	d0e4      	beq.n	9fe6 <__underflow+0xe>
    a01c:	f04f 30ff 	mov.w	r0, #4294967295	; 0xffffffff
    a020:	bd38      	pop	{r3, r4, r5, pc}
    a022:	6a61      	ldr	r1, [r4, #36]	; 0x24
    a024:	f423 7380 	bic.w	r3, r3, #256	; 0x100
    a028:	6ae0      	ldr	r0, [r4, #44]	; 0x2c
    a02a:	68e5      	ldr	r5, [r4, #12]
    a02c:	4288      	cmp	r0, r1
    a02e:	6023      	str	r3, [r4, #0]
    a030:	60a0      	str	r0, [r4, #8]
    a032:	62e2      	str	r2, [r4, #44]	; 0x2c
    a034:	60e1      	str	r1, [r4, #12]
    a036:	6265      	str	r5, [r4, #36]	; 0x24
    a038:	6061      	str	r1, [r4, #4]
    a03a:	d9de      	bls.n	9ffa <__underflow+0x22>
    a03c:	7808      	ldrb	r0, [r1, #0]
    a03e:	bd38      	pop	{r3, r4, r5, pc}
    a040:	7818      	ldrb	r0, [r3, #0]
    a042:	bd38      	pop	{r3, r4, r5, pc}
    a044:	4620      	mov	r0, r4
    a046:	f7ff ff7d 	bl	9f44 <_IO_switch_to_get_mode>
    a04a:	1c43      	adds	r3, r0, #1
    a04c:	d1ce      	bne.n	9fec <__underflow+0x14>
    a04e:	bd38      	pop	{r3, r4, r5, pc}
    a050:	6a63      	ldr	r3, [r4, #36]	; 0x24
    a052:	2b00      	cmp	r3, #0
    a054:	d0da      	beq.n	a00c <__underflow+0x34>
    a056:	4620      	mov	r0, r4
    a058:	f7ff ff98 	bl	9f8c <_IO_free_backup_area>
    a05c:	e7d6      	b.n	a00c <__underflow+0x34>
    a05e:	f04f 30ff 	mov.w	r0, #4294967295	; 0xffffffff
    a062:	e7f4      	b.n	a04e <__underflow+0x76>

0000a064 <__uflow>:
    a064:	b538      	push	{r3, r4, r5, lr}
    a066:	4604      	mov	r4, r0
    a068:	6ec3      	ldr	r3, [r0, #108]	; 0x6c
    a06a:	b9db      	cbnz	r3, a0a4 <__uflow+0x40>
    a06c:	f04f 33ff 	mov.w	r3, #4294967295	; 0xffffffff
    a070:	66c3      	str	r3, [r0, #108]	; 0x6c
    a072:	6823      	ldr	r3, [r4, #0]
    a074:	051a      	lsls	r2, r3, #20
    a076:	d42f      	bmi.n	a0d8 <__uflow+0x74>
    a078:	6863      	ldr	r3, [r4, #4]
    a07a:	68a2      	ldr	r2, [r4, #8]
    a07c:	4293      	cmp	r3, r2
    a07e:	d327      	bcc.n	a0d0 <__uflow+0x6c>
    a080:	6823      	ldr	r3, [r4, #0]
    a082:	05d9      	lsls	r1, r3, #23
    a084:	d413      	bmi.n	a0ae <__uflow+0x4a>
    a086:	6b23      	ldr	r3, [r4, #48]	; 0x30
    a088:	2b00      	cmp	r3, #0
    a08a:	d02b      	beq.n	a0e4 <__uflow+0x80>
    a08c:	4620      	mov	r0, r4
    a08e:	68a1      	ldr	r1, [r4, #8]
    a090:	f7ff fce6 	bl	9a60 <save_for_backup>
    a094:	2800      	cmp	r0, #0
    a096:	d12c      	bne.n	a0f2 <__uflow+0x8e>
    a098:	f8d4 3098 	ldr.w	r3, [r4, #152]	; 0x98
    a09c:	4620      	mov	r0, r4
    a09e:	695b      	ldr	r3, [r3, #20]
    a0a0:	4798      	blx	r3
    a0a2:	bd38      	pop	{r3, r4, r5, pc}
    a0a4:	3301      	adds	r3, #1
    a0a6:	d0e4      	beq.n	a072 <__uflow+0xe>
    a0a8:	f04f 30ff 	mov.w	r0, #4294967295	; 0xffffffff
    a0ac:	bd38      	pop	{r3, r4, r5, pc}
    a0ae:	6a61      	ldr	r1, [r4, #36]	; 0x24
    a0b0:	f423 7380 	bic.w	r3, r3, #256	; 0x100
    a0b4:	6ae0      	ldr	r0, [r4, #44]	; 0x2c
    a0b6:	68e5      	ldr	r5, [r4, #12]
    a0b8:	4288      	cmp	r0, r1
    a0ba:	6023      	str	r3, [r4, #0]
    a0bc:	60a0      	str	r0, [r4, #8]
    a0be:	62e2      	str	r2, [r4, #44]	; 0x2c
    a0c0:	60e1      	str	r1, [r4, #12]
    a0c2:	6265      	str	r5, [r4, #36]	; 0x24
    a0c4:	6061      	str	r1, [r4, #4]
    a0c6:	d9de      	bls.n	a086 <__uflow+0x22>
    a0c8:	f811 0b01 	ldrb.w	r0, [r1], #1
    a0cc:	6061      	str	r1, [r4, #4]
    a0ce:	bd38      	pop	{r3, r4, r5, pc}
    a0d0:	f813 0b01 	ldrb.w	r0, [r3], #1
    a0d4:	6063      	str	r3, [r4, #4]
    a0d6:	bd38      	pop	{r3, r4, r5, pc}
    a0d8:	4620      	mov	r0, r4
    a0da:	f7ff ff33 	bl	9f44 <_IO_switch_to_get_mode>
    a0de:	1c43      	adds	r3, r0, #1
    a0e0:	d1ca      	bne.n	a078 <__uflow+0x14>
    a0e2:	bd38      	pop	{r3, r4, r5, pc}
    a0e4:	6a63      	ldr	r3, [r4, #36]	; 0x24
    a0e6:	2b00      	cmp	r3, #0
    a0e8:	d0d6      	beq.n	a098 <__uflow+0x34>
    a0ea:	4620      	mov	r0, r4
    a0ec:	f7ff ff4e 	bl	9f8c <_IO_free_backup_area>
    a0f0:	e7d2      	b.n	a098 <__uflow+0x34>
    a0f2:	f04f 30ff 	mov.w	r0, #4294967295	; 0xffffffff
    a0f6:	e7f4      	b.n	a0e2 <__uflow+0x7e>

0000a0f8 <_IO_setb>:
    a0f8:	b5f8      	push	{r3, r4, r5, r6, r7, lr}
    a0fa:	460d      	mov	r5, r1
    a0fc:	69c1      	ldr	r1, [r0, #28]
    a0fe:	461f      	mov	r7, r3
    a100:	4604      	mov	r4, r0
    a102:	4616      	mov	r6, r2
    a104:	6803      	ldr	r3, [r0, #0]
    a106:	b109      	cbz	r1, a10c <_IO_setb+0x14>
    a108:	07d8      	lsls	r0, r3, #31
    a10a:	d50a      	bpl.n	a122 <_IO_setb+0x2a>
    a10c:	61e5      	str	r5, [r4, #28]
    a10e:	6226      	str	r6, [r4, #32]
    a110:	b91f      	cbnz	r7, a11a <_IO_setb+0x22>
    a112:	f043 0301 	orr.w	r3, r3, #1
    a116:	6023      	str	r3, [r4, #0]
    a118:	bdf8      	pop	{r3, r4, r5, r6, r7, pc}
    a11a:	f023 0301 	bic.w	r3, r3, #1
    a11e:	6023      	str	r3, [r4, #0]
    a120:	bdf8      	pop	{r3, r4, r5, r6, r7, pc}
    a122:	6a23      	ldr	r3, [r4, #32]
    a124:	4608      	mov	r0, r1
    a126:	1a59      	subs	r1, r3, r1
    a128:	f501 617e 	add.w	r1, r1, #4064	; 0xfe0
    a12c:	311f      	adds	r1, #31
    a12e:	f421 617e 	bic.w	r1, r1, #4064	; 0xfe0
    a132:	f021 011f 	bic.w	r1, r1, #31
    a136:	f007 e8cc 	blx	112d0 <__munmap>
    a13a:	6823      	ldr	r3, [r4, #0]
    a13c:	e7e6      	b.n	a10c <_IO_setb+0x14>
    a13e:	bf00      	nop

0000a140 <_IO_doallocbuf>:
    a140:	69c3      	ldr	r3, [r0, #28]
    a142:	b510      	push	{r4, lr}
    a144:	4604      	mov	r4, r0
    a146:	b103      	cbz	r3, a14a <_IO_doallocbuf+0xa>
    a148:	bd10      	pop	{r4, pc}
    a14a:	6803      	ldr	r3, [r0, #0]
    a14c:	079b      	lsls	r3, r3, #30
    a14e:	d502      	bpl.n	a156 <_IO_doallocbuf+0x16>
    a150:	6ec3      	ldr	r3, [r0, #108]	; 0x6c
    a152:	2b00      	cmp	r3, #0
    a154:	dd06      	ble.n	a164 <_IO_doallocbuf+0x24>
    a156:	f8d4 3098 	ldr.w	r3, [r4, #152]	; 0x98
    a15a:	4620      	mov	r0, r4
    a15c:	6b5b      	ldr	r3, [r3, #52]	; 0x34
    a15e:	4798      	blx	r3
    a160:	3001      	adds	r0, #1
    a162:	d1f1      	bne.n	a148 <_IO_doallocbuf+0x8>
    a164:	4620      	mov	r0, r4
    a166:	2300      	movs	r3, #0
    a168:	f104 0147 	add.w	r1, r4, #71	; 0x47
    a16c:	f104 0248 	add.w	r2, r4, #72	; 0x48
    a170:	e8bd 4010 	ldmia.w	sp!, {r4, lr}
    a174:	f7ff bfc0 	b.w	a0f8 <_IO_setb>

0000a178 <_IO_default_underflow>:
    a178:	f04f 30ff 	mov.w	r0, #4294967295	; 0xffffffff
    a17c:	4770      	bx	lr
    a17e:	bf00      	nop

0000a180 <_IO_default_uflow>:
    a180:	f8d0 3098 	ldr.w	r3, [r0, #152]	; 0x98
    a184:	b510      	push	{r4, lr}
    a186:	4604      	mov	r4, r0
    a188:	691b      	ldr	r3, [r3, #16]
    a18a:	4798      	blx	r3
    a18c:	1c42      	adds	r2, r0, #1
    a18e:	bf1e      	ittt	ne
    a190:	6863      	ldrne	r3, [r4, #4]
    a192:	f813 0b01 	ldrbne.w	r0, [r3], #1
    a196:	6063      	strne	r3, [r4, #4]
    a198:	bd10      	pop	{r4, pc}
    a19a:	bf00      	nop

0000a19c <_IO_default_xsputn>:
    a19c:	e92d 41f0 	stmdb	sp!, {r4, r5, r6, r7, r8, lr}
    a1a0:	4605      	mov	r5, r0
    a1a2:	4690      	mov	r8, r2
    a1a4:	2a00      	cmp	r2, #0
    a1a6:	d02f      	beq.n	a208 <_IO_default_xsputn+0x6c>
    a1a8:	4614      	mov	r4, r2
    a1aa:	460e      	mov	r6, r1
    a1ac:	6968      	ldr	r0, [r5, #20]
    a1ae:	69af      	ldr	r7, [r5, #24]
    a1b0:	42b8      	cmp	r0, r7
    a1b2:	d211      	bcs.n	a1d8 <_IO_default_xsputn+0x3c>
    a1b4:	1a3f      	subs	r7, r7, r0
    a1b6:	42bc      	cmp	r4, r7
    a1b8:	bf38      	it	cc
    a1ba:	4627      	movcc	r7, r4
    a1bc:	2f14      	cmp	r7, #20
    a1be:	d817      	bhi.n	a1f0 <_IO_default_xsputn+0x54>
    a1c0:	b14f      	cbz	r7, a1d6 <_IO_default_xsputn+0x3a>
    a1c2:	19f1      	adds	r1, r6, r7
    a1c4:	4603      	mov	r3, r0
    a1c6:	f816 2b01 	ldrb.w	r2, [r6], #1
    a1ca:	428e      	cmp	r6, r1
    a1cc:	f803 2b01 	strb.w	r2, [r3], #1
    a1d0:	d1f9      	bne.n	a1c6 <_IO_default_xsputn+0x2a>
    a1d2:	19c0      	adds	r0, r0, r7
    a1d4:	6168      	str	r0, [r5, #20]
    a1d6:	1be4      	subs	r4, r4, r7
    a1d8:	b194      	cbz	r4, a200 <_IO_default_xsputn+0x64>
    a1da:	f8d5 3098 	ldr.w	r3, [r5, #152]	; 0x98
    a1de:	4628      	mov	r0, r5
    a1e0:	7831      	ldrb	r1, [r6, #0]
    a1e2:	68db      	ldr	r3, [r3, #12]
    a1e4:	4798      	blx	r3
    a1e6:	3001      	adds	r0, #1
    a1e8:	d00a      	beq.n	a200 <_IO_default_xsputn+0x64>
    a1ea:	3601      	adds	r6, #1
    a1ec:	3c01      	subs	r4, #1
    a1ee:	e7dd      	b.n	a1ac <_IO_default_xsputn+0x10>
    a1f0:	4631      	mov	r1, r6
    a1f2:	463a      	mov	r2, r7
    a1f4:	f005 ff9c 	bl	10130 <__mempcpy>
    a1f8:	19f6      	adds	r6, r6, r7
    a1fa:	1be4      	subs	r4, r4, r7
    a1fc:	6168      	str	r0, [r5, #20]
    a1fe:	e7eb      	b.n	a1d8 <_IO_default_xsputn+0x3c>
    a200:	ebc4 0008 	rsb	r0, r4, r8
    a204:	e8bd 81f0 	ldmia.w	sp!, {r4, r5, r6, r7, r8, pc}
    a208:	4610      	mov	r0, r2
    a20a:	e8bd 81f0 	ldmia.w	sp!, {r4, r5, r6, r7, r8, pc}
    a20e:	bf00      	nop

0000a210 <_IO_sgetn>:
    a210:	b508      	push	{r3, lr}
    a212:	f8d0 3098 	ldr.w	r3, [r0, #152]	; 0x98
    a216:	6a1b      	ldr	r3, [r3, #32]
    a218:	4798      	blx	r3
    a21a:	bd08      	pop	{r3, pc}

0000a21c <_IO_default_xsgetn>:
    a21c:	e92d 41f0 	stmdb	sp!, {r4, r5, r6, r7, r8, lr}
    a220:	4617      	mov	r7, r2
    a222:	4604      	mov	r4, r0
    a224:	4688      	mov	r8, r1
    a226:	4615      	mov	r5, r2
    a228:	6863      	ldr	r3, [r4, #4]
    a22a:	68a6      	ldr	r6, [r4, #8]
    a22c:	42b3      	cmp	r3, r6
    a22e:	d211      	bcs.n	a254 <_IO_default_xsgetn+0x38>
    a230:	1af6      	subs	r6, r6, r3
    a232:	42b5      	cmp	r5, r6
    a234:	bf38      	it	cc
    a236:	462e      	movcc	r6, r5
    a238:	2e14      	cmp	r6, #20
    a23a:	d814      	bhi.n	a266 <_IO_default_xsgetn+0x4a>
    a23c:	b14e      	cbz	r6, a252 <_IO_default_xsgetn+0x36>
    a23e:	1998      	adds	r0, r3, r6
    a240:	4642      	mov	r2, r8
    a242:	f813 1b01 	ldrb.w	r1, [r3], #1
    a246:	4283      	cmp	r3, r0
    a248:	f802 1b01 	strb.w	r1, [r2], #1
    a24c:	d1f9      	bne.n	a242 <_IO_default_xsgetn+0x26>
    a24e:	44b0      	add	r8, r6
    a250:	6063      	str	r3, [r4, #4]
    a252:	1bad      	subs	r5, r5, r6
    a254:	b125      	cbz	r5, a260 <_IO_default_xsgetn+0x44>
    a256:	4620      	mov	r0, r4
    a258:	f7ff febe 	bl	9fd8 <__underflow>
    a25c:	3001      	adds	r0, #1
    a25e:	d1e3      	bne.n	a228 <_IO_default_xsgetn+0xc>
    a260:	1b78      	subs	r0, r7, r5
    a262:	e8bd 81f0 	ldmia.w	sp!, {r4, r5, r6, r7, r8, pc}
    a266:	4640      	mov	r0, r8
    a268:	4619      	mov	r1, r3
    a26a:	4632      	mov	r2, r6
    a26c:	1bad      	subs	r5, r5, r6
    a26e:	f005 ff5f 	bl	10130 <__mempcpy>
    a272:	6863      	ldr	r3, [r4, #4]
    a274:	199b      	adds	r3, r3, r6
    a276:	6063      	str	r3, [r4, #4]
    a278:	4680      	mov	r8, r0
    a27a:	e7eb      	b.n	a254 <_IO_default_xsgetn+0x38>

0000a27c <_IO_default_setbuf>:
    a27c:	b5f8      	push	{r3, r4, r5, r6, r7, lr}
    a27e:	4604      	mov	r4, r0
    a280:	f8d0 3098 	ldr.w	r3, [r0, #152]	; 0x98
    a284:	460f      	mov	r7, r1
    a286:	4616      	mov	r6, r2
    a288:	6b1b      	ldr	r3, [r3, #48]	; 0x30
    a28a:	4798      	blx	r3
    a28c:	3001      	adds	r0, #1
    a28e:	d026      	beq.n	a2de <_IO_default_setbuf+0x62>
    a290:	f1d7 0301 	rsbs	r3, r7, #1
    a294:	6825      	ldr	r5, [r4, #0]
    a296:	bf38      	it	cc
    a298:	2300      	movcc	r3, #0
    a29a:	2e00      	cmp	r6, #0
    a29c:	bf08      	it	eq
    a29e:	f043 0301 	orreq.w	r3, r3, #1
    a2a2:	b983      	cbnz	r3, a2c6 <_IO_default_setbuf+0x4a>
    a2a4:	f025 0502 	bic.w	r5, r5, #2
    a2a8:	4639      	mov	r1, r7
    a2aa:	4620      	mov	r0, r4
    a2ac:	19ba      	adds	r2, r7, r6
    a2ae:	6025      	str	r5, [r4, #0]
    a2b0:	f7ff ff22 	bl	a0f8 <_IO_setb>
    a2b4:	2300      	movs	r3, #0
    a2b6:	61a3      	str	r3, [r4, #24]
    a2b8:	6163      	str	r3, [r4, #20]
    a2ba:	6123      	str	r3, [r4, #16]
    a2bc:	60a3      	str	r3, [r4, #8]
    a2be:	6063      	str	r3, [r4, #4]
    a2c0:	60e3      	str	r3, [r4, #12]
    a2c2:	4620      	mov	r0, r4
    a2c4:	bdf8      	pop	{r3, r4, r5, r6, r7, pc}
    a2c6:	4621      	mov	r1, r4
    a2c8:	f045 0502 	orr.w	r5, r5, #2
    a2cc:	4620      	mov	r0, r4
    a2ce:	f104 0248 	add.w	r2, r4, #72	; 0x48
    a2d2:	2300      	movs	r3, #0
    a2d4:	f841 5b47 	str.w	r5, [r1], #71
    a2d8:	f7ff ff0e 	bl	a0f8 <_IO_setb>
    a2dc:	e7ea      	b.n	a2b4 <_IO_default_setbuf+0x38>
    a2de:	2400      	movs	r4, #0
    a2e0:	e7ef      	b.n	a2c2 <_IO_default_setbuf+0x46>
    a2e2:	bf00      	nop

0000a2e4 <_IO_default_seekpos>:
    a2e4:	b510      	push	{r4, lr}
    a2e6:	b082      	sub	sp, #8
    a2e8:	f8d0 1098 	ldr.w	r1, [r0, #152]	; 0x98
    a2ec:	2400      	movs	r4, #0
    a2ee:	9400      	str	r4, [sp, #0]
    a2f0:	9c04      	ldr	r4, [sp, #16]
    a2f2:	9401      	str	r4, [sp, #4]
    a2f4:	6a49      	ldr	r1, [r1, #36]	; 0x24
    a2f6:	4788      	blx	r1
    a2f8:	b002      	add	sp, #8
    a2fa:	bd10      	pop	{r4, pc}

0000a2fc <_IO_default_doallocate>:
    a2fc:	b530      	push	{r4, r5, lr}
    a2fe:	2500      	movs	r5, #0
    a300:	b083      	sub	sp, #12
    a302:	2203      	movs	r2, #3
    a304:	2322      	movs	r3, #34	; 0x22
    a306:	4604      	mov	r4, r0
    a308:	f44f 5100 	mov.w	r1, #8192	; 0x2000
    a30c:	4628      	mov	r0, r5
    a30e:	9501      	str	r5, [sp, #4]
    a310:	f04f 35ff 	mov.w	r5, #4294967295	; 0xffffffff
    a314:	9500      	str	r5, [sp, #0]
    a316:	f006 efb4 	blx	11280 <__mmap>
    a31a:	42a8      	cmp	r0, r5
    a31c:	d007      	beq.n	a32e <_IO_default_doallocate+0x32>
    a31e:	4601      	mov	r1, r0
    a320:	2301      	movs	r3, #1
    a322:	4620      	mov	r0, r4
    a324:	f501 5200 	add.w	r2, r1, #8192	; 0x2000
    a328:	f7ff fee6 	bl	a0f8 <_IO_setb>
    a32c:	2001      	movs	r0, #1
    a32e:	b003      	add	sp, #12
    a330:	bd30      	pop	{r4, r5, pc}
    a332:	bf00      	nop

0000a334 <_IO_old_init>:
    a334:	6c82      	ldr	r2, [r0, #72]	; 0x48
    a336:	f041 417b 	orr.w	r1, r1, #4211081216	; 0xfb000000
    a33a:	2300      	movs	r3, #0
    a33c:	f441 012d 	orr.w	r1, r1, #11337728	; 0xad0000
    a340:	63c3      	str	r3, [r0, #60]	; 0x3c
    a342:	6001      	str	r1, [r0, #0]
    a344:	61c3      	str	r3, [r0, #28]
    a346:	6203      	str	r3, [r0, #32]
    a348:	60c3      	str	r3, [r0, #12]
    a34a:	6043      	str	r3, [r0, #4]
    a34c:	6083      	str	r3, [r0, #8]
    a34e:	6103      	str	r3, [r0, #16]
    a350:	6143      	str	r3, [r0, #20]
    a352:	6183      	str	r3, [r0, #24]
    a354:	6343      	str	r3, [r0, #52]	; 0x34
    a356:	6243      	str	r3, [r0, #36]	; 0x24
    a358:	6283      	str	r3, [r0, #40]	; 0x28
    a35a:	62c3      	str	r3, [r0, #44]	; 0x2c
    a35c:	6303      	str	r3, [r0, #48]	; 0x30
    a35e:	f8a0 3044 	strh.w	r3, [r0, #68]	; 0x44
    a362:	b112      	cbz	r2, a36a <_IO_old_init+0x36>
    a364:	6013      	str	r3, [r2, #0]
    a366:	6053      	str	r3, [r2, #4]
    a368:	6093      	str	r3, [r2, #8]
    a36a:	4770      	bx	lr

0000a36c <_IO_no_init>:
    a36c:	b570      	push	{r4, r5, r6, lr}
    a36e:	4615      	mov	r5, r2
    a370:	4604      	mov	r4, r0
    a372:	461e      	mov	r6, r3
    a374:	f7ff ffde 	bl	a334 <_IO_old_init>
    a378:	2d00      	cmp	r5, #0
    a37a:	66e5      	str	r5, [r4, #108]	; 0x6c
    a37c:	db0f      	blt.n	a39e <_IO_no_init+0x32>
    a37e:	9a04      	ldr	r2, [sp, #16]
    a380:	2300      	movs	r3, #0
    a382:	65e6      	str	r6, [r4, #92]	; 0x5c
    a384:	61b3      	str	r3, [r6, #24]
    a386:	f8c6 20b8 	str.w	r2, [r6, #184]	; 0xb8
    a38a:	61f3      	str	r3, [r6, #28]
    a38c:	60b3      	str	r3, [r6, #8]
    a38e:	6033      	str	r3, [r6, #0]
    a390:	6073      	str	r3, [r6, #4]
    a392:	60f3      	str	r3, [r6, #12]
    a394:	6133      	str	r3, [r6, #16]
    a396:	6173      	str	r3, [r6, #20]
    a398:	6233      	str	r3, [r6, #32]
    a39a:	6273      	str	r3, [r6, #36]	; 0x24
    a39c:	62b3      	str	r3, [r6, #40]	; 0x28
    a39e:	2300      	movs	r3, #0
    a3a0:	6623      	str	r3, [r4, #96]	; 0x60
    a3a2:	bd70      	pop	{r4, r5, r6, pc}

0000a3a4 <_IO_init>:
    a3a4:	b510      	push	{r4, lr}
    a3a6:	2400      	movs	r4, #0
    a3a8:	b082      	sub	sp, #8
    a3aa:	f04f 32ff 	mov.w	r2, #4294967295	; 0xffffffff
    a3ae:	4623      	mov	r3, r4
    a3b0:	9400      	str	r4, [sp, #0]
    a3b2:	f7ff ffdb 	bl	a36c <_IO_no_init>
    a3b6:	b002      	add	sp, #8
    a3b8:	bd10      	pop	{r4, pc}
    a3ba:	bf00      	nop

0000a3bc <_IO_default_sync>:
    a3bc:	2000      	movs	r0, #0
    a3be:	4770      	bx	lr

0000a3c0 <_IO_default_finish>:
    a3c0:	b538      	push	{r3, r4, r5, lr}
    a3c2:	4604      	mov	r4, r0
    a3c4:	69c3      	ldr	r3, [r0, #28]
    a3c6:	b11b      	cbz	r3, a3d0 <_IO_default_finish+0x10>
    a3c8:	6805      	ldr	r5, [r0, #0]
    a3ca:	f015 0501 	ands.w	r5, r5, #1
    a3ce:	d011      	beq.n	a3f4 <_IO_default_finish+0x34>
    a3d0:	6b23      	ldr	r3, [r4, #48]	; 0x30
    a3d2:	b123      	cbz	r3, a3de <_IO_default_finish+0x1e>
    a3d4:	2200      	movs	r2, #0
    a3d6:	605a      	str	r2, [r3, #4]
    a3d8:	681b      	ldr	r3, [r3, #0]
    a3da:	2b00      	cmp	r3, #0
    a3dc:	d1fb      	bne.n	a3d6 <_IO_default_finish+0x16>
    a3de:	6a60      	ldr	r0, [r4, #36]	; 0x24
    a3e0:	b118      	cbz	r0, a3ea <_IO_default_finish+0x2a>
    a3e2:	f004 f9a7 	bl	e734 <__cfree>
    a3e6:	2300      	movs	r3, #0
    a3e8:	6263      	str	r3, [r4, #36]	; 0x24
    a3ea:	4620      	mov	r0, r4
    a3ec:	e8bd 4038 	ldmia.w	sp!, {r3, r4, r5, lr}
    a3f0:	f7ff bbbe 	b.w	9b70 <_IO_un_link>
    a3f4:	6a01      	ldr	r1, [r0, #32]
    a3f6:	4618      	mov	r0, r3
    a3f8:	1acb      	subs	r3, r1, r3
    a3fa:	f503 617e 	add.w	r1, r3, #4064	; 0xfe0
    a3fe:	311f      	adds	r1, #31
    a400:	f421 617e 	bic.w	r1, r1, #4064	; 0xfe0
    a404:	f021 011f 	bic.w	r1, r1, #31
    a408:	f006 ef62 	blx	112d0 <__munmap>
    a40c:	6225      	str	r5, [r4, #32]
    a40e:	61e5      	str	r5, [r4, #28]
    a410:	e7de      	b.n	a3d0 <_IO_default_finish+0x10>
    a412:	bf00      	nop

0000a414 <_IO_default_seekoff>:
    a414:	f04f 30ff 	mov.w	r0, #4294967295	; 0xffffffff
    a418:	f04f 31ff 	mov.w	r1, #4294967295	; 0xffffffff
    a41c:	4770      	bx	lr
    a41e:	bf00      	nop

0000a420 <_IO_sputbackc>:
    a420:	6843      	ldr	r3, [r0, #4]
    a422:	68c2      	ldr	r2, [r0, #12]
    a424:	b510      	push	{r4, lr}
    a426:	4293      	cmp	r3, r2
    a428:	4604      	mov	r4, r0
    a42a:	d904      	bls.n	a436 <_IO_sputbackc+0x16>
    a42c:	f813 0c01 	ldrb.w	r0, [r3, #-1]
    a430:	b2ca      	uxtb	r2, r1
    a432:	4290      	cmp	r0, r2
    a434:	d00b      	beq.n	a44e <_IO_sputbackc+0x2e>
    a436:	f8d4 3098 	ldr.w	r3, [r4, #152]	; 0x98
    a43a:	4620      	mov	r0, r4
    a43c:	699b      	ldr	r3, [r3, #24]
    a43e:	4798      	blx	r3
    a440:	1c41      	adds	r1, r0, #1
    a442:	d003      	beq.n	a44c <_IO_sputbackc+0x2c>
    a444:	6823      	ldr	r3, [r4, #0]
    a446:	f023 0310 	bic.w	r3, r3, #16
    a44a:	6023      	str	r3, [r4, #0]
    a44c:	bd10      	pop	{r4, pc}
    a44e:	3b01      	subs	r3, #1
    a450:	6063      	str	r3, [r4, #4]
    a452:	e7f7      	b.n	a444 <_IO_sputbackc+0x24>

0000a454 <_IO_sungetc>:
    a454:	6843      	ldr	r3, [r0, #4]
    a456:	68c2      	ldr	r2, [r0, #12]
    a458:	b510      	push	{r4, lr}
    a45a:	4293      	cmp	r3, r2
    a45c:	4604      	mov	r4, r0
    a45e:	d908      	bls.n	a472 <_IO_sungetc+0x1e>
    a460:	1e5a      	subs	r2, r3, #1
    a462:	6042      	str	r2, [r0, #4]
    a464:	f813 0c01 	ldrb.w	r0, [r3, #-1]
    a468:	6823      	ldr	r3, [r4, #0]
    a46a:	f023 0310 	bic.w	r3, r3, #16
    a46e:	6023      	str	r3, [r4, #0]
    a470:	bd10      	pop	{r4, pc}
    a472:	f8d0 3098 	ldr.w	r3, [r0, #152]	; 0x98
    a476:	f04f 31ff 	mov.w	r1, #4294967295	; 0xffffffff
    a47a:	699b      	ldr	r3, [r3, #24]
    a47c:	4798      	blx	r3
    a47e:	1c43      	adds	r3, r0, #1
    a480:	d1f2      	bne.n	a468 <_IO_sungetc+0x14>
    a482:	bd10      	pop	{r4, pc}

0000a484 <_IO_adjust_column>:
    a484:	188b      	adds	r3, r1, r2
    a486:	4299      	cmp	r1, r3
    a488:	b470      	push	{r4, r5, r6}
    a48a:	d210      	bcs.n	a4ae <_IO_adjust_column+0x2a>
    a48c:	f813 5c01 	ldrb.w	r5, [r3, #-1]
    a490:	1e5c      	subs	r4, r3, #1
    a492:	2d0a      	cmp	r5, #10
    a494:	bf18      	it	ne
    a496:	4625      	movne	r5, r4
    a498:	d105      	bne.n	a4a6 <_IO_adjust_column+0x22>
    a49a:	e00b      	b.n	a4b4 <_IO_adjust_column+0x30>
    a49c:	f815 6c01 	ldrb.w	r6, [r5, #-1]
    a4a0:	4625      	mov	r5, r4
    a4a2:	2e0a      	cmp	r6, #10
    a4a4:	d006      	beq.n	a4b4 <_IO_adjust_column+0x30>
    a4a6:	428c      	cmp	r4, r1
    a4a8:	f104 34ff 	add.w	r4, r4, #4294967295	; 0xffffffff
    a4ac:	d1f6      	bne.n	a49c <_IO_adjust_column+0x18>
    a4ae:	1810      	adds	r0, r2, r0
    a4b0:	bc70      	pop	{r4, r5, r6}
    a4b2:	4770      	bx	lr
    a4b4:	1b1b      	subs	r3, r3, r4
    a4b6:	1e58      	subs	r0, r3, #1
    a4b8:	e7fa      	b.n	a4b0 <_IO_adjust_column+0x2c>
    a4ba:	bf00      	nop

0000a4bc <_IO_flush_all_lockp>:
    a4bc:	4b79      	ldr	r3, [pc, #484]	; (a6a4 <_IO_flush_all_lockp+0x1e8>)
    a4be:	e92d 4ff0 	stmdb	sp!, {r4, r5, r6, r7, r8, r9, sl, fp, lr}
    a4c2:	f113 0b00 	adds.w	fp, r3, #0
    a4c6:	b085      	sub	sp, #20
    a4c8:	4606      	mov	r6, r0
    a4ca:	bf18      	it	ne
    a4cc:	f04f 0b01 	movne.w	fp, #1
    a4d0:	f1bb 0f00 	cmp.w	fp, #0
    a4d4:	f040 80c0 	bne.w	a658 <_IO_flush_all_lockp+0x19c>
    a4d8:	4b73      	ldr	r3, [pc, #460]	; (a6a8 <_IO_flush_all_lockp+0x1ec>)
    a4da:	f8cd b004 	str.w	fp, [sp, #4]
    a4de:	9300      	str	r3, [sp, #0]
    a4e0:	4d72      	ldr	r5, [pc, #456]	; (a6ac <_IO_flush_all_lockp+0x1f0>)
    a4e2:	b1fe      	cbz	r6, a524 <_IO_flush_all_lockp+0x68>
    a4e4:	ee1d 4f70 	mrc	15, 0, r4, cr13, cr0, {3}
    a4e8:	696b      	ldr	r3, [r5, #20]
    a4ea:	f5a4 6498 	sub.w	r4, r4, #1216	; 0x4c0
    a4ee:	42a3      	cmp	r3, r4
    a4f0:	d015      	beq.n	a51e <_IO_flush_all_lockp+0x62>
    a4f2:	f105 000c 	add.w	r0, r5, #12
    a4f6:	2300      	movs	r3, #0
    a4f8:	2101      	movs	r1, #1
    a4fa:	f3bf 8f5f 	dmb	sy
    a4fe:	e850 2f00 	ldrex	r2, [r0]
    a502:	429a      	cmp	r2, r3
    a504:	d105      	bne.n	a512 <_IO_flush_all_lockp+0x56>
    a506:	e840 1200 	strex	r2, r1, [r0]
    a50a:	f092 0f00 	teq	r2, #0
    a50e:	d1f6      	bne.n	a4fe <_IO_flush_all_lockp+0x42>
    a510:	461a      	mov	r2, r3
    a512:	f3bf 8f5f 	dmb	sy
    a516:	2a00      	cmp	r2, #0
    a518:	f040 80b1 	bne.w	a67e <_IO_flush_all_lockp+0x1c2>
    a51c:	616c      	str	r4, [r5, #20]
    a51e:	692b      	ldr	r3, [r5, #16]
    a520:	3301      	adds	r3, #1
    a522:	612b      	str	r3, [r5, #16]
    a524:	f8df 918c 	ldr.w	r9, [pc, #396]	; a6b4 <_IO_flush_all_lockp+0x1f8>
    a528:	69af      	ldr	r7, [r5, #24]
    a52a:	f8d9 4000 	ldr.w	r4, [r9]
    a52e:	46a0      	mov	r8, r4
    a530:	2c00      	cmp	r4, #0
    a532:	d064      	beq.n	a5fe <_IO_flush_all_lockp+0x142>
    a534:	ee1d af70 	mrc	15, 0, sl, cr13, cr0, {3}
    a538:	f04f 0800 	mov.w	r8, #0
    a53c:	f5aa 6a98 	sub.w	sl, sl, #1216	; 0x4c0
    a540:	60ac      	str	r4, [r5, #8]
    a542:	b1fe      	cbz	r6, a584 <_IO_flush_all_lockp+0xc8>
    a544:	6823      	ldr	r3, [r4, #0]
    a546:	f413 4300 	ands.w	r3, r3, #32768	; 0x8000
    a54a:	d11b      	bne.n	a584 <_IO_flush_all_lockp+0xc8>
    a54c:	6ca0      	ldr	r0, [r4, #72]	; 0x48
    a54e:	6882      	ldr	r2, [r0, #8]
    a550:	4552      	cmp	r2, sl
    a552:	d014      	beq.n	a57e <_IO_flush_all_lockp+0xc2>
    a554:	2101      	movs	r1, #1
    a556:	f3bf 8f5f 	dmb	sy
    a55a:	e850 2f00 	ldrex	r2, [r0]
    a55e:	429a      	cmp	r2, r3
    a560:	d105      	bne.n	a56e <_IO_flush_all_lockp+0xb2>
    a562:	e840 1200 	strex	r2, r1, [r0]
    a566:	f092 0f00 	teq	r2, #0
    a56a:	d1f6      	bne.n	a55a <_IO_flush_all_lockp+0x9e>
    a56c:	461a      	mov	r2, r3
    a56e:	f3bf 8f5f 	dmb	sy
    a572:	2a00      	cmp	r2, #0
    a574:	d176      	bne.n	a664 <_IO_flush_all_lockp+0x1a8>
    a576:	6ca3      	ldr	r3, [r4, #72]	; 0x48
    a578:	4618      	mov	r0, r3
    a57a:	f8c3 a008 	str.w	sl, [r3, #8]
    a57e:	6843      	ldr	r3, [r0, #4]
    a580:	3301      	adds	r3, #1
    a582:	6043      	str	r3, [r0, #4]
    a584:	6ee3      	ldr	r3, [r4, #108]	; 0x6c
    a586:	2b00      	cmp	r3, #0
    a588:	dd61      	ble.n	a64e <_IO_flush_all_lockp+0x192>
    a58a:	6de3      	ldr	r3, [r4, #92]	; 0x5c
    a58c:	691a      	ldr	r2, [r3, #16]
    a58e:	68db      	ldr	r3, [r3, #12]
    a590:	429a      	cmp	r2, r3
    a592:	d90b      	bls.n	a5ac <_IO_flush_all_lockp+0xf0>
    a594:	f8d4 3098 	ldr.w	r3, [r4, #152]	; 0x98
    a598:	4620      	mov	r0, r4
    a59a:	f04f 31ff 	mov.w	r1, #4294967295	; 0xffffffff
    a59e:	68db      	ldr	r3, [r3, #12]
    a5a0:	4798      	blx	r3
    a5a2:	f1b0 3fff 	cmp.w	r0, #4294967295	; 0xffffffff
    a5a6:	bf08      	it	eq
    a5a8:	f04f 38ff 	moveq.w	r8, #4294967295	; 0xffffffff
    a5ac:	b1e6      	cbz	r6, a5e8 <_IO_flush_all_lockp+0x12c>
    a5ae:	6823      	ldr	r3, [r4, #0]
    a5b0:	041a      	lsls	r2, r3, #16
    a5b2:	d419      	bmi.n	a5e8 <_IO_flush_all_lockp+0x12c>
    a5b4:	6ca0      	ldr	r0, [r4, #72]	; 0x48
    a5b6:	6843      	ldr	r3, [r0, #4]
    a5b8:	3b01      	subs	r3, #1
    a5ba:	6043      	str	r3, [r0, #4]
    a5bc:	b9a3      	cbnz	r3, a5e8 <_IO_flush_all_lockp+0x12c>
    a5be:	461a      	mov	r2, r3
    a5c0:	6083      	str	r3, [r0, #8]
    a5c2:	6803      	ldr	r3, [r0, #0]
    a5c4:	f3bf 8f5f 	dmb	sy
    a5c8:	e850 1f00 	ldrex	r1, [r0]
    a5cc:	4299      	cmp	r1, r3
    a5ce:	d105      	bne.n	a5dc <_IO_flush_all_lockp+0x120>
    a5d0:	e840 2100 	strex	r1, r2, [r0]
    a5d4:	f091 0f00 	teq	r1, #0
    a5d8:	d1f6      	bne.n	a5c8 <_IO_flush_all_lockp+0x10c>
    a5da:	4619      	mov	r1, r3
    a5dc:	f3bf 8f5f 	dmb	sy
    a5e0:	428b      	cmp	r3, r1
    a5e2:	d1ee      	bne.n	a5c2 <_IO_flush_all_lockp+0x106>
    a5e4:	2b01      	cmp	r3, #1
    a5e6:	dc40      	bgt.n	a66a <_IO_flush_all_lockp+0x1ae>
    a5e8:	69ab      	ldr	r3, [r5, #24]
    a5ea:	2200      	movs	r2, #0
    a5ec:	60aa      	str	r2, [r5, #8]
    a5ee:	429f      	cmp	r7, r3
    a5f0:	bf1a      	itte	ne
    a5f2:	f8d9 4000 	ldrne.w	r4, [r9]
    a5f6:	461f      	movne	r7, r3
    a5f8:	6b64      	ldreq	r4, [r4, #52]	; 0x34
    a5fa:	2c00      	cmp	r4, #0
    a5fc:	d1a0      	bne.n	a540 <_IO_flush_all_lockp+0x84>
    a5fe:	b1de      	cbz	r6, a638 <_IO_flush_all_lockp+0x17c>
    a600:	692b      	ldr	r3, [r5, #16]
    a602:	4a2a      	ldr	r2, [pc, #168]	; (a6ac <_IO_flush_all_lockp+0x1f0>)
    a604:	3b01      	subs	r3, #1
    a606:	612b      	str	r3, [r5, #16]
    a608:	b9b3      	cbnz	r3, a638 <_IO_flush_all_lockp+0x17c>
    a60a:	f102 000c 	add.w	r0, r2, #12
    a60e:	4619      	mov	r1, r3
    a610:	6153      	str	r3, [r2, #20]
    a612:	68eb      	ldr	r3, [r5, #12]
    a614:	f3bf 8f5f 	dmb	sy
    a618:	e850 2f00 	ldrex	r2, [r0]
    a61c:	429a      	cmp	r2, r3
    a61e:	d105      	bne.n	a62c <_IO_flush_all_lockp+0x170>
    a620:	e840 1200 	strex	r2, r1, [r0]
    a624:	f092 0f00 	teq	r2, #0
    a628:	d1f6      	bne.n	a618 <_IO_flush_all_lockp+0x15c>
    a62a:	461a      	mov	r2, r3
    a62c:	f3bf 8f5f 	dmb	sy
    a630:	4293      	cmp	r3, r2
    a632:	d1ee      	bne.n	a612 <_IO_flush_all_lockp+0x156>
    a634:	2b01      	cmp	r3, #1
    a636:	dc26      	bgt.n	a686 <_IO_flush_all_lockp+0x1ca>
    a638:	f1bb 0f00 	cmp.w	fp, #0
    a63c:	d003      	beq.n	a646 <_IO_flush_all_lockp+0x18a>
    a63e:	4668      	mov	r0, sp
    a640:	2100      	movs	r1, #0
    a642:	f3af 8000 	nop.w
    a646:	4640      	mov	r0, r8
    a648:	b005      	add	sp, #20
    a64a:	e8bd 8ff0 	ldmia.w	sp!, {r4, r5, r6, r7, r8, r9, sl, fp, pc}
    a64e:	6962      	ldr	r2, [r4, #20]
    a650:	6923      	ldr	r3, [r4, #16]
    a652:	429a      	cmp	r2, r3
    a654:	d89e      	bhi.n	a594 <_IO_flush_all_lockp+0xd8>
    a656:	e7a9      	b.n	a5ac <_IO_flush_all_lockp+0xf0>
    a658:	4668      	mov	r0, sp
    a65a:	4913      	ldr	r1, [pc, #76]	; (a6a8 <_IO_flush_all_lockp+0x1ec>)
    a65c:	2200      	movs	r2, #0
    a65e:	f3af 8000 	nop.w
    a662:	e73d      	b.n	a4e0 <_IO_flush_all_lockp+0x24>
    a664:	f006 ff2c 	bl	114c0 <__lll_lock_wait_private>
    a668:	e785      	b.n	a576 <_IO_flush_all_lockp+0xba>
    a66a:	f8da 1008 	ldr.w	r1, [sl, #8]
    a66e:	2201      	movs	r2, #1
    a670:	2300      	movs	r3, #0
    a672:	f04f 0cf0 	mov.w	ip, #240	; 0xf0
    a676:	4311      	orrs	r1, r2
    a678:	f7fe fbd2 	bl	8e20 <__libc_do_syscall>
    a67c:	e7b4      	b.n	a5e8 <_IO_flush_all_lockp+0x12c>
    a67e:	f006 ff1f 	bl	114c0 <__lll_lock_wait_private>
    a682:	616c      	str	r4, [r5, #20]
    a684:	e74b      	b.n	a51e <_IO_flush_all_lockp+0x62>
    a686:	ee1d 1f70 	mrc	15, 0, r1, cr13, cr0, {3}
    a68a:	2201      	movs	r2, #1
    a68c:	f5a1 6198 	sub.w	r1, r1, #1216	; 0x4c0
    a690:	4807      	ldr	r0, [pc, #28]	; (a6b0 <_IO_flush_all_lockp+0x1f4>)
    a692:	2300      	movs	r3, #0
    a694:	f04f 0cf0 	mov.w	ip, #240	; 0xf0
    a698:	6889      	ldr	r1, [r1, #8]
    a69a:	4311      	orrs	r1, r2
    a69c:	f7fe fbc0 	bl	8e20 <__libc_do_syscall>
    a6a0:	e7ca      	b.n	a638 <_IO_flush_all_lockp+0x17c>
    a6a2:	bf00      	nop
    a6a4:	00000000 	.word	0x00000000
    a6a8:	000099a5 	.word	0x000099a5
    a6ac:	00067c00 	.word	0x00067c00
    a6b0:	00067c0c 	.word	0x00067c0c
    a6b4:	00066c70 	.word	0x00066c70

0000a6b8 <_IO_cleanup>:
    a6b8:	e92d 47f0 	stmdb	sp!, {r4, r5, r6, r7, r8, r9, sl, lr}
    a6bc:	2000      	movs	r0, #0
    a6be:	f7ff fefd 	bl	a4bc <_IO_flush_all_lockp>
    a6c2:	4b53      	ldr	r3, [pc, #332]	; (a810 <_IO_cleanup+0x158>)
    a6c4:	681c      	ldr	r4, [r3, #0]
    a6c6:	4607      	mov	r7, r0
    a6c8:	2c00      	cmp	r4, #0
    a6ca:	d053      	beq.n	a774 <_IO_cleanup+0xbc>
    a6cc:	ee1d 5f70 	mrc	15, 0, r5, cr13, cr0, {3}
    a6d0:	4e50      	ldr	r6, [pc, #320]	; (a814 <_IO_cleanup+0x15c>)
    a6d2:	f5a5 6598 	sub.w	r5, r5, #1216	; 0x4c0
    a6d6:	6823      	ldr	r3, [r4, #0]
    a6d8:	f013 0902 	ands.w	r9, r3, #2
    a6dc:	d144      	bne.n	a768 <_IO_cleanup+0xb0>
    a6de:	f241 0208 	movw	r2, #4104	; 0x1008
    a6e2:	401a      	ands	r2, r3
    a6e4:	2a08      	cmp	r2, #8
    a6e6:	d03f      	beq.n	a768 <_IO_cleanup+0xb0>
    a6e8:	6ee3      	ldr	r3, [r4, #108]	; 0x6c
    a6ea:	2b00      	cmp	r3, #0
    a6ec:	d03c      	beq.n	a768 <_IO_cleanup+0xb0>
    a6ee:	6ca3      	ldr	r3, [r4, #72]	; 0x48
    a6f0:	689a      	ldr	r2, [r3, #8]
    a6f2:	42aa      	cmp	r2, r5
    a6f4:	d061      	beq.n	a7ba <_IO_cleanup+0x102>
    a6f6:	f04f 0a01 	mov.w	sl, #1
    a6fa:	f3bf 8f5f 	dmb	sy
    a6fe:	e853 2f00 	ldrex	r2, [r3]
    a702:	454a      	cmp	r2, r9
    a704:	d105      	bne.n	a712 <_IO_cleanup+0x5a>
    a706:	e843 a200 	strex	r2, sl, [r3]
    a70a:	f092 0f00 	teq	r2, #0
    a70e:	d1f6      	bne.n	a6fe <_IO_cleanup+0x46>
    a710:	464a      	mov	r2, r9
    a712:	f3bf 8f5f 	dmb	sy
    a716:	4690      	mov	r8, r2
    a718:	2a00      	cmp	r2, #0
    a71a:	d02e      	beq.n	a77a <_IO_cleanup+0xc2>
    a71c:	f006 e8d8 	blx	108d0 <__sched_yield>
    a720:	6ca3      	ldr	r3, [r4, #72]	; 0x48
    a722:	689a      	ldr	r2, [r3, #8]
    a724:	42aa      	cmp	r2, r5
    a726:	d071      	beq.n	a80c <_IO_cleanup+0x154>
    a728:	f3bf 8f5f 	dmb	sy
    a72c:	e853 2f00 	ldrex	r2, [r3]
    a730:	454a      	cmp	r2, r9
    a732:	d105      	bne.n	a740 <_IO_cleanup+0x88>
    a734:	e843 a200 	strex	r2, sl, [r3]
    a738:	f092 0f00 	teq	r2, #0
    a73c:	d1f6      	bne.n	a72c <_IO_cleanup+0x74>
    a73e:	464a      	mov	r2, r9
    a740:	f3bf 8f5f 	dmb	sy
    a744:	46d0      	mov	r8, sl
    a746:	b1c2      	cbz	r2, a77a <_IO_cleanup+0xc2>
    a748:	f006 e8c2 	blx	108d0 <__sched_yield>
    a74c:	7833      	ldrb	r3, [r6, #0]
    a74e:	f04f 0802 	mov.w	r8, #2
    a752:	b1cb      	cbz	r3, a788 <_IO_cleanup+0xd0>
    a754:	f8d4 3098 	ldr.w	r3, [r4, #152]	; 0x98
    a758:	2100      	movs	r1, #0
    a75a:	4620      	mov	r0, r4
    a75c:	460a      	mov	r2, r1
    a75e:	6adb      	ldr	r3, [r3, #44]	; 0x2c
    a760:	4798      	blx	r3
    a762:	f1b8 0f02 	cmp.w	r8, #2
    a766:	d12d      	bne.n	a7c4 <_IO_cleanup+0x10c>
    a768:	f04f 33ff 	mov.w	r3, #4294967295	; 0xffffffff
    a76c:	66e3      	str	r3, [r4, #108]	; 0x6c
    a76e:	6b64      	ldr	r4, [r4, #52]	; 0x34
    a770:	2c00      	cmp	r4, #0
    a772:	d1b0      	bne.n	a6d6 <_IO_cleanup+0x1e>
    a774:	4638      	mov	r0, r7
    a776:	e8bd 87f0 	ldmia.w	sp!, {r4, r5, r6, r7, r8, r9, sl, pc}
    a77a:	6ca3      	ldr	r3, [r4, #72]	; 0x48
    a77c:	2201      	movs	r2, #1
    a77e:	609d      	str	r5, [r3, #8]
    a780:	605a      	str	r2, [r3, #4]
    a782:	7833      	ldrb	r3, [r6, #0]
    a784:	2b00      	cmp	r3, #0
    a786:	d1e5      	bne.n	a754 <_IO_cleanup+0x9c>
    a788:	6823      	ldr	r3, [r4, #0]
    a78a:	07d9      	lsls	r1, r3, #31
    a78c:	d4e2      	bmi.n	a754 <_IO_cleanup+0x9c>
    a78e:	6871      	ldr	r1, [r6, #4]
    a790:	f043 0001 	orr.w	r0, r3, #1
    a794:	69e2      	ldr	r2, [r4, #28]
    a796:	6a23      	ldr	r3, [r4, #32]
    a798:	6621      	str	r1, [r4, #96]	; 0x60
    a79a:	2100      	movs	r1, #0
    a79c:	1a9b      	subs	r3, r3, r2
    a79e:	66a3      	str	r3, [r4, #104]	; 0x68
    a7a0:	f8d4 3098 	ldr.w	r3, [r4, #152]	; 0x98
    a7a4:	6020      	str	r0, [r4, #0]
    a7a6:	4620      	mov	r0, r4
    a7a8:	6662      	str	r2, [r4, #100]	; 0x64
    a7aa:	460a      	mov	r2, r1
    a7ac:	6074      	str	r4, [r6, #4]
    a7ae:	6adb      	ldr	r3, [r3, #44]	; 0x2c
    a7b0:	4798      	blx	r3
    a7b2:	f1b8 0f02 	cmp.w	r8, #2
    a7b6:	d0d7      	beq.n	a768 <_IO_cleanup+0xb0>
    a7b8:	e004      	b.n	a7c4 <_IO_cleanup+0x10c>
    a7ba:	46c8      	mov	r8, r9
    a7bc:	685a      	ldr	r2, [r3, #4]
    a7be:	3201      	adds	r2, #1
    a7c0:	605a      	str	r2, [r3, #4]
    a7c2:	e7de      	b.n	a782 <_IO_cleanup+0xca>
    a7c4:	6ca0      	ldr	r0, [r4, #72]	; 0x48
    a7c6:	6843      	ldr	r3, [r0, #4]
    a7c8:	3b01      	subs	r3, #1
    a7ca:	6043      	str	r3, [r0, #4]
    a7cc:	2b00      	cmp	r3, #0
    a7ce:	d1cb      	bne.n	a768 <_IO_cleanup+0xb0>
    a7d0:	461a      	mov	r2, r3
    a7d2:	6083      	str	r3, [r0, #8]
    a7d4:	6803      	ldr	r3, [r0, #0]
    a7d6:	f3bf 8f5f 	dmb	sy
    a7da:	e850 1f00 	ldrex	r1, [r0]
    a7de:	4299      	cmp	r1, r3
    a7e0:	d105      	bne.n	a7ee <_IO_cleanup+0x136>
    a7e2:	e840 2100 	strex	r1, r2, [r0]
    a7e6:	f091 0f00 	teq	r1, #0
    a7ea:	d1f6      	bne.n	a7da <_IO_cleanup+0x122>
    a7ec:	4619      	mov	r1, r3
    a7ee:	f3bf 8f5f 	dmb	sy
    a7f2:	428b      	cmp	r3, r1
    a7f4:	d1ee      	bne.n	a7d4 <_IO_cleanup+0x11c>
    a7f6:	2b01      	cmp	r3, #1
    a7f8:	ddb6      	ble.n	a768 <_IO_cleanup+0xb0>
    a7fa:	68a9      	ldr	r1, [r5, #8]
    a7fc:	2201      	movs	r2, #1
    a7fe:	2300      	movs	r3, #0
    a800:	f04f 0cf0 	mov.w	ip, #240	; 0xf0
    a804:	4311      	orrs	r1, r2
    a806:	f7fe fb0b 	bl	8e20 <__libc_do_syscall>
    a80a:	e7ad      	b.n	a768 <_IO_cleanup+0xb0>
    a80c:	46d0      	mov	r8, sl
    a80e:	e7d5      	b.n	a7bc <_IO_cleanup+0x104>
    a810:	00066c70 	.word	0x00066c70
    a814:	00067c00 	.word	0x00067c00

0000a818 <_IO_flush_all>:
    a818:	2001      	movs	r0, #1
    a81a:	f7ff be4f 	b.w	a4bc <_IO_flush_all_lockp>
    a81e:	bf00      	nop

0000a820 <_IO_flush_all_linebuffered>:
    a820:	4b6c      	ldr	r3, [pc, #432]	; (a9d4 <_IO_flush_all_linebuffered+0x1b4>)
    a822:	e92d 4ff0 	stmdb	sp!, {r4, r5, r6, r7, r8, r9, sl, fp, lr}
    a826:	f113 0b00 	adds.w	fp, r3, #0
    a82a:	b085      	sub	sp, #20
    a82c:	bf18      	it	ne
    a82e:	f04f 0b01 	movne.w	fp, #1
    a832:	f1bb 0f00 	cmp.w	fp, #0
    a836:	f040 80ab 	bne.w	a990 <_IO_flush_all_linebuffered+0x170>
    a83a:	4b67      	ldr	r3, [pc, #412]	; (a9d8 <_IO_flush_all_linebuffered+0x1b8>)
    a83c:	f8cd b004 	str.w	fp, [sp, #4]
    a840:	9300      	str	r3, [sp, #0]
    a842:	4d66      	ldr	r5, [pc, #408]	; (a9dc <_IO_flush_all_linebuffered+0x1bc>)
    a844:	ee1d 8f70 	mrc	15, 0, r8, cr13, cr0, {3}
    a848:	f5a8 6898 	sub.w	r8, r8, #1216	; 0x4c0
    a84c:	696b      	ldr	r3, [r5, #20]
    a84e:	4543      	cmp	r3, r8
    a850:	d016      	beq.n	a880 <_IO_flush_all_linebuffered+0x60>
    a852:	f105 000c 	add.w	r0, r5, #12
    a856:	2300      	movs	r3, #0
    a858:	2101      	movs	r1, #1
    a85a:	f3bf 8f5f 	dmb	sy
    a85e:	e850 2f00 	ldrex	r2, [r0]
    a862:	429a      	cmp	r2, r3
    a864:	d105      	bne.n	a872 <_IO_flush_all_linebuffered+0x52>
    a866:	e840 1200 	strex	r2, r1, [r0]
    a86a:	f092 0f00 	teq	r2, #0
    a86e:	d1f6      	bne.n	a85e <_IO_flush_all_linebuffered+0x3e>
    a870:	461a      	mov	r2, r3
    a872:	f3bf 8f5f 	dmb	sy
    a876:	2a00      	cmp	r2, #0
    a878:	f040 80a8 	bne.w	a9cc <_IO_flush_all_linebuffered+0x1ac>
    a87c:	f8c5 8014 	str.w	r8, [r5, #20]
    a880:	f8df 9160 	ldr.w	r9, [pc, #352]	; a9e4 <_IO_flush_all_linebuffered+0x1c4>
    a884:	692b      	ldr	r3, [r5, #16]
    a886:	69ae      	ldr	r6, [r5, #24]
    a888:	f8d9 4000 	ldr.w	r4, [r9]
    a88c:	3301      	adds	r3, #1
    a88e:	612b      	str	r3, [r5, #16]
    a890:	2c00      	cmp	r4, #0
    a892:	d058      	beq.n	a946 <_IO_flush_all_linebuffered+0x126>
    a894:	f04f 0a01 	mov.w	sl, #1
    a898:	2700      	movs	r7, #0
    a89a:	e025      	b.n	a8e8 <_IO_flush_all_linebuffered+0xc8>
    a89c:	6823      	ldr	r3, [r4, #0]
    a89e:	0418      	lsls	r0, r3, #16
    a8a0:	d418      	bmi.n	a8d4 <_IO_flush_all_linebuffered+0xb4>
    a8a2:	6ca0      	ldr	r0, [r4, #72]	; 0x48
    a8a4:	6843      	ldr	r3, [r0, #4]
    a8a6:	3b01      	subs	r3, #1
    a8a8:	6043      	str	r3, [r0, #4]
    a8aa:	b99b      	cbnz	r3, a8d4 <_IO_flush_all_linebuffered+0xb4>
    a8ac:	6083      	str	r3, [r0, #8]
    a8ae:	6803      	ldr	r3, [r0, #0]
    a8b0:	f3bf 8f5f 	dmb	sy
    a8b4:	e850 2f00 	ldrex	r2, [r0]
    a8b8:	429a      	cmp	r2, r3
    a8ba:	d105      	bne.n	a8c8 <_IO_flush_all_linebuffered+0xa8>
    a8bc:	e840 7200 	strex	r2, r7, [r0]
    a8c0:	f092 0f00 	teq	r2, #0
    a8c4:	d1f6      	bne.n	a8b4 <_IO_flush_all_linebuffered+0x94>
    a8c6:	461a      	mov	r2, r3
    a8c8:	f3bf 8f5f 	dmb	sy
    a8cc:	4293      	cmp	r3, r2
    a8ce:	d1ee      	bne.n	a8ae <_IO_flush_all_linebuffered+0x8e>
    a8d0:	2b01      	cmp	r3, #1
    a8d2:	dc63      	bgt.n	a99c <_IO_flush_all_linebuffered+0x17c>
    a8d4:	69ab      	ldr	r3, [r5, #24]
    a8d6:	60af      	str	r7, [r5, #8]
    a8d8:	429e      	cmp	r6, r3
    a8da:	bf1a      	itte	ne
    a8dc:	f8d9 4000 	ldrne.w	r4, [r9]
    a8e0:	461e      	movne	r6, r3
    a8e2:	6b64      	ldreq	r4, [r4, #52]	; 0x34
    a8e4:	2c00      	cmp	r4, #0
    a8e6:	d02d      	beq.n	a944 <_IO_flush_all_linebuffered+0x124>
    a8e8:	6823      	ldr	r3, [r4, #0]
    a8ea:	60ac      	str	r4, [r5, #8]
    a8ec:	f413 4300 	ands.w	r3, r3, #32768	; 0x8000
    a8f0:	d11a      	bne.n	a928 <_IO_flush_all_linebuffered+0x108>
    a8f2:	6ca0      	ldr	r0, [r4, #72]	; 0x48
    a8f4:	6882      	ldr	r2, [r0, #8]
    a8f6:	4590      	cmp	r8, r2
    a8f8:	d013      	beq.n	a922 <_IO_flush_all_linebuffered+0x102>
    a8fa:	f3bf 8f5f 	dmb	sy
    a8fe:	e850 2f00 	ldrex	r2, [r0]
    a902:	429a      	cmp	r2, r3
    a904:	d105      	bne.n	a912 <_IO_flush_all_linebuffered+0xf2>
    a906:	e840 a200 	strex	r2, sl, [r0]
    a90a:	f092 0f00 	teq	r2, #0
    a90e:	d1f6      	bne.n	a8fe <_IO_flush_all_linebuffered+0xde>
    a910:	461a      	mov	r2, r3
    a912:	f3bf 8f5f 	dmb	sy
    a916:	2a00      	cmp	r2, #0
    a918:	d14a      	bne.n	a9b0 <_IO_flush_all_linebuffered+0x190>
    a91a:	6ca3      	ldr	r3, [r4, #72]	; 0x48
    a91c:	4618      	mov	r0, r3
    a91e:	f8c3 8008 	str.w	r8, [r3, #8]
    a922:	6843      	ldr	r3, [r0, #4]
    a924:	3301      	adds	r3, #1
    a926:	6043      	str	r3, [r0, #4]
    a928:	6823      	ldr	r3, [r4, #0]
    a92a:	f403 7302 	and.w	r3, r3, #520	; 0x208
    a92e:	f5b3 7f00 	cmp.w	r3, #512	; 0x200
    a932:	d1b3      	bne.n	a89c <_IO_flush_all_linebuffered+0x7c>
    a934:	f8d4 3098 	ldr.w	r3, [r4, #152]	; 0x98
    a938:	4620      	mov	r0, r4
    a93a:	f04f 31ff 	mov.w	r1, #4294967295	; 0xffffffff
    a93e:	68db      	ldr	r3, [r3, #12]
    a940:	4798      	blx	r3
    a942:	e7ab      	b.n	a89c <_IO_flush_all_linebuffered+0x7c>
    a944:	692b      	ldr	r3, [r5, #16]
    a946:	3b01      	subs	r3, #1
    a948:	4a24      	ldr	r2, [pc, #144]	; (a9dc <_IO_flush_all_linebuffered+0x1bc>)
    a94a:	612b      	str	r3, [r5, #16]
    a94c:	b9b3      	cbnz	r3, a97c <_IO_flush_all_linebuffered+0x15c>
    a94e:	f102 000c 	add.w	r0, r2, #12
    a952:	4619      	mov	r1, r3
    a954:	6153      	str	r3, [r2, #20]
    a956:	68eb      	ldr	r3, [r5, #12]
    a958:	f3bf 8f5f 	dmb	sy
    a95c:	e850 2f00 	ldrex	r2, [r0]
    a960:	429a      	cmp	r2, r3
    a962:	d105      	bne.n	a970 <_IO_flush_all_linebuffered+0x150>
    a964:	e840 1200 	strex	r2, r1, [r0]
    a968:	f092 0f00 	teq	r2, #0
    a96c:	d1f6      	bne.n	a95c <_IO_flush_all_linebuffered+0x13c>
    a96e:	461a      	mov	r2, r3
    a970:	f3bf 8f5f 	dmb	sy
    a974:	4293      	cmp	r3, r2
    a976:	d1ee      	bne.n	a956 <_IO_flush_all_linebuffered+0x136>
    a978:	2b01      	cmp	r3, #1
    a97a:	dc1c      	bgt.n	a9b6 <_IO_flush_all_linebuffered+0x196>
    a97c:	f1bb 0f00 	cmp.w	fp, #0
    a980:	d003      	beq.n	a98a <_IO_flush_all_linebuffered+0x16a>
    a982:	4668      	mov	r0, sp
    a984:	2100      	movs	r1, #0
    a986:	f3af 8000 	nop.w
    a98a:	b005      	add	sp, #20
    a98c:	e8bd 8ff0 	ldmia.w	sp!, {r4, r5, r6, r7, r8, r9, sl, fp, pc}
    a990:	4668      	mov	r0, sp
    a992:	4911      	ldr	r1, [pc, #68]	; (a9d8 <_IO_flush_all_linebuffered+0x1b8>)
    a994:	2200      	movs	r2, #0
    a996:	f3af 8000 	nop.w
    a99a:	e752      	b.n	a842 <_IO_flush_all_linebuffered+0x22>
    a99c:	f8d8 1008 	ldr.w	r1, [r8, #8]
    a9a0:	2201      	movs	r2, #1
    a9a2:	2300      	movs	r3, #0
    a9a4:	f04f 0cf0 	mov.w	ip, #240	; 0xf0
    a9a8:	4311      	orrs	r1, r2
    a9aa:	f7fe fa39 	bl	8e20 <__libc_do_syscall>
    a9ae:	e791      	b.n	a8d4 <_IO_flush_all_linebuffered+0xb4>
    a9b0:	f006 fd86 	bl	114c0 <__lll_lock_wait_private>
    a9b4:	e7b1      	b.n	a91a <_IO_flush_all_linebuffered+0xfa>
    a9b6:	f8d8 1008 	ldr.w	r1, [r8, #8]
    a9ba:	2201      	movs	r2, #1
    a9bc:	4808      	ldr	r0, [pc, #32]	; (a9e0 <_IO_flush_all_linebuffered+0x1c0>)
    a9be:	2300      	movs	r3, #0
    a9c0:	4311      	orrs	r1, r2
    a9c2:	f04f 0cf0 	mov.w	ip, #240	; 0xf0
    a9c6:	f7fe fa2b 	bl	8e20 <__libc_do_syscall>
    a9ca:	e7d7      	b.n	a97c <_IO_flush_all_linebuffered+0x15c>
    a9cc:	f006 fd78 	bl	114c0 <__lll_lock_wait_private>
    a9d0:	e754      	b.n	a87c <_IO_flush_all_linebuffered+0x5c>
    a9d2:	bf00      	nop
    a9d4:	00000000 	.word	0x00000000
    a9d8:	000099a5 	.word	0x000099a5
    a9dc:	00067c00 	.word	0x00067c00
    a9e0:	00067c0c 	.word	0x00067c0c
    a9e4:	00066c70 	.word	0x00066c70

0000a9e8 <_IO_init_marker>:
    a9e8:	b538      	push	{r3, r4, r5, lr}
    a9ea:	4605      	mov	r5, r0
    a9ec:	680b      	ldr	r3, [r1, #0]
    a9ee:	460c      	mov	r4, r1
    a9f0:	6069      	str	r1, [r5, #4]
    a9f2:	051a      	lsls	r2, r3, #20
    a9f4:	d40a      	bmi.n	aa0c <_IO_init_marker+0x24>
    a9f6:	05db      	lsls	r3, r3, #23
    a9f8:	6862      	ldr	r2, [r4, #4]
    a9fa:	bf4c      	ite	mi
    a9fc:	68a3      	ldrmi	r3, [r4, #8]
    a9fe:	68e3      	ldrpl	r3, [r4, #12]
    aa00:	1ad3      	subs	r3, r2, r3
    aa02:	60ab      	str	r3, [r5, #8]
    aa04:	6b23      	ldr	r3, [r4, #48]	; 0x30
    aa06:	602b      	str	r3, [r5, #0]
    aa08:	6325      	str	r5, [r4, #48]	; 0x30
    aa0a:	bd38      	pop	{r3, r4, r5, pc}
    aa0c:	4608      	mov	r0, r1
    aa0e:	f7ff fa99 	bl	9f44 <_IO_switch_to_get_mode>
    aa12:	6823      	ldr	r3, [r4, #0]
    aa14:	e7ef      	b.n	a9f6 <_IO_init_marker+0xe>
    aa16:	bf00      	nop

0000aa18 <_IO_remove_marker>:
    aa18:	6842      	ldr	r2, [r0, #4]
    aa1a:	6b13      	ldr	r3, [r2, #48]	; 0x30
    aa1c:	b14b      	cbz	r3, aa32 <_IO_remove_marker+0x1a>
    aa1e:	3230      	adds	r2, #48	; 0x30
    aa20:	4298      	cmp	r0, r3
    aa22:	d102      	bne.n	aa2a <_IO_remove_marker+0x12>
    aa24:	e006      	b.n	aa34 <_IO_remove_marker+0x1c>
    aa26:	4298      	cmp	r0, r3
    aa28:	d004      	beq.n	aa34 <_IO_remove_marker+0x1c>
    aa2a:	461a      	mov	r2, r3
    aa2c:	681b      	ldr	r3, [r3, #0]
    aa2e:	2b00      	cmp	r3, #0
    aa30:	d1f9      	bne.n	aa26 <_IO_remove_marker+0xe>
    aa32:	4770      	bx	lr
    aa34:	6803      	ldr	r3, [r0, #0]
    aa36:	6013      	str	r3, [r2, #0]
    aa38:	4770      	bx	lr
    aa3a:	bf00      	nop

0000aa3c <_IO_marker_difference>:
    aa3c:	6883      	ldr	r3, [r0, #8]
    aa3e:	6888      	ldr	r0, [r1, #8]
    aa40:	1a18      	subs	r0, r3, r0
    aa42:	4770      	bx	lr

0000aa44 <_IO_marker_delta>:
    aa44:	6843      	ldr	r3, [r0, #4]
    aa46:	b153      	cbz	r3, aa5e <_IO_marker_delta+0x1a>
    aa48:	681a      	ldr	r2, [r3, #0]
    aa4a:	6880      	ldr	r0, [r0, #8]
    aa4c:	f412 7f80 	tst.w	r2, #256	; 0x100
    aa50:	685a      	ldr	r2, [r3, #4]
    aa52:	bf14      	ite	ne
    aa54:	689b      	ldrne	r3, [r3, #8]
    aa56:	68db      	ldreq	r3, [r3, #12]
    aa58:	1ad3      	subs	r3, r2, r3
    aa5a:	1ac0      	subs	r0, r0, r3
    aa5c:	4770      	bx	lr
    aa5e:	f04f 30ff 	mov.w	r0, #4294967295	; 0xffffffff
    aa62:	4770      	bx	lr

0000aa64 <_IO_seekmark>:
    aa64:	684b      	ldr	r3, [r1, #4]
    aa66:	b470      	push	{r4, r5, r6}
    aa68:	4283      	cmp	r3, r0
    aa6a:	bf18      	it	ne
    aa6c:	f04f 30ff 	movne.w	r0, #4294967295	; 0xffffffff
    aa70:	d115      	bne.n	aa9e <_IO_seekmark+0x3a>
    aa72:	688a      	ldr	r2, [r1, #8]
    aa74:	6819      	ldr	r1, [r3, #0]
    aa76:	2a00      	cmp	r2, #0
    aa78:	db13      	blt.n	aaa2 <_IO_seekmark+0x3e>
    aa7a:	05c8      	lsls	r0, r1, #23
    aa7c:	bf58      	it	pl
    aa7e:	68d9      	ldrpl	r1, [r3, #12]
    aa80:	d50a      	bpl.n	aa98 <_IO_seekmark+0x34>
    aa82:	689c      	ldr	r4, [r3, #8]
    aa84:	f421 7680 	bic.w	r6, r1, #256	; 0x100
    aa88:	6add      	ldr	r5, [r3, #44]	; 0x2c
    aa8a:	68d8      	ldr	r0, [r3, #12]
    aa8c:	6a59      	ldr	r1, [r3, #36]	; 0x24
    aa8e:	601e      	str	r6, [r3, #0]
    aa90:	609d      	str	r5, [r3, #8]
    aa92:	62dc      	str	r4, [r3, #44]	; 0x2c
    aa94:	60d9      	str	r1, [r3, #12]
    aa96:	6258      	str	r0, [r3, #36]	; 0x24
    aa98:	2000      	movs	r0, #0
    aa9a:	188a      	adds	r2, r1, r2
    aa9c:	605a      	str	r2, [r3, #4]
    aa9e:	bc70      	pop	{r4, r5, r6}
    aaa0:	4770      	bx	lr
    aaa2:	05c8      	lsls	r0, r1, #23
    aaa4:	bf48      	it	mi
    aaa6:	6899      	ldrmi	r1, [r3, #8]
    aaa8:	d4f6      	bmi.n	aa98 <_IO_seekmark+0x34>
    aaaa:	689d      	ldr	r5, [r3, #8]
    aaac:	f441 7680 	orr.w	r6, r1, #256	; 0x100
    aab0:	68d8      	ldr	r0, [r3, #12]
    aab2:	6ad9      	ldr	r1, [r3, #44]	; 0x2c
    aab4:	6a5c      	ldr	r4, [r3, #36]	; 0x24
    aab6:	601e      	str	r6, [r3, #0]
    aab8:	6099      	str	r1, [r3, #8]
    aaba:	62dd      	str	r5, [r3, #44]	; 0x2c
    aabc:	60dc      	str	r4, [r3, #12]
    aabe:	6258      	str	r0, [r3, #36]	; 0x24
    aac0:	e7ea      	b.n	aa98 <_IO_seekmark+0x34>
    aac2:	bf00      	nop

0000aac4 <_IO_unsave_markers>:
    aac4:	6b03      	ldr	r3, [r0, #48]	; 0x30
    aac6:	b10b      	cbz	r3, aacc <_IO_unsave_markers+0x8>
    aac8:	2300      	movs	r3, #0
    aaca:	6303      	str	r3, [r0, #48]	; 0x30
    aacc:	6a43      	ldr	r3, [r0, #36]	; 0x24
    aace:	b10b      	cbz	r3, aad4 <_IO_unsave_markers+0x10>
    aad0:	f7ff ba5c 	b.w	9f8c <_IO_free_backup_area>
    aad4:	4770      	bx	lr
    aad6:	bf00      	nop

0000aad8 <_IO_default_pbackfail>:
    aad8:	e92d 47f0 	stmdb	sp!, {r4, r5, r6, r7, r8, r9, sl, lr}
    aadc:	4604      	mov	r4, r0
    aade:	6845      	ldr	r5, [r0, #4]
    aae0:	460e      	mov	r6, r1
    aae2:	f8d0 a00c 	ldr.w	sl, [r0, #12]
    aae6:	6803      	ldr	r3, [r0, #0]
    aae8:	4555      	cmp	r5, sl
    aaea:	d920      	bls.n	ab2e <_IO_default_pbackfail+0x56>
    aaec:	05d9      	lsls	r1, r3, #23
    aaee:	d417      	bmi.n	ab20 <_IO_default_pbackfail+0x48>
    aaf0:	f815 3c01 	ldrb.w	r3, [r5, #-1]
    aaf4:	42b3      	cmp	r3, r6
    aaf6:	d051      	beq.n	ab9c <_IO_default_pbackfail+0xc4>
    aaf8:	6a43      	ldr	r3, [r0, #36]	; 0x24
    aafa:	2b00      	cmp	r3, #0
    aafc:	d053      	beq.n	aba6 <_IO_default_pbackfail+0xce>
    aafe:	4629      	mov	r1, r5
    ab00:	f7fe ffae 	bl	9a60 <save_for_backup>
    ab04:	2800      	cmp	r0, #0
    ab06:	d159      	bne.n	abbc <_IO_default_pbackfail+0xe4>
    ab08:	6ae5      	ldr	r5, [r4, #44]	; 0x2c
    ab0a:	6a60      	ldr	r0, [r4, #36]	; 0x24
    ab0c:	68a2      	ldr	r2, [r4, #8]
    ab0e:	6861      	ldr	r1, [r4, #4]
    ab10:	6823      	ldr	r3, [r4, #0]
    ab12:	60a5      	str	r5, [r4, #8]
    ab14:	f443 7380 	orr.w	r3, r3, #256	; 0x100
    ab18:	62e2      	str	r2, [r4, #44]	; 0x2c
    ab1a:	6023      	str	r3, [r4, #0]
    ab1c:	60e0      	str	r0, [r4, #12]
    ab1e:	6261      	str	r1, [r4, #36]	; 0x24
    ab20:	1e6b      	subs	r3, r5, #1
    ab22:	b2f0      	uxtb	r0, r6
    ab24:	6063      	str	r3, [r4, #4]
    ab26:	f805 0c01 	strb.w	r0, [r5, #-1]
    ab2a:	e8bd 87f0 	ldmia.w	sp!, {r4, r5, r6, r7, r8, r9, sl, pc}
    ab2e:	05da      	lsls	r2, r3, #23
    ab30:	d413      	bmi.n	ab5a <_IO_default_pbackfail+0x82>
    ab32:	6a40      	ldr	r0, [r0, #36]	; 0x24
    ab34:	2800      	cmp	r0, #0
    ab36:	d036      	beq.n	aba6 <_IO_default_pbackfail+0xce>
    ab38:	4629      	mov	r1, r5
    ab3a:	6ae5      	ldr	r5, [r4, #44]	; 0x2c
    ab3c:	68a2      	ldr	r2, [r4, #8]
    ab3e:	f443 7380 	orr.w	r3, r3, #256	; 0x100
    ab42:	60e0      	str	r0, [r4, #12]
    ab44:	b2f0      	uxtb	r0, r6
    ab46:	6023      	str	r3, [r4, #0]
    ab48:	1e6b      	subs	r3, r5, #1
    ab4a:	60a5      	str	r5, [r4, #8]
    ab4c:	62e2      	str	r2, [r4, #44]	; 0x2c
    ab4e:	6261      	str	r1, [r4, #36]	; 0x24
    ab50:	6063      	str	r3, [r4, #4]
    ab52:	f805 0c01 	strb.w	r0, [r5, #-1]
    ab56:	e8bd 87f0 	ldmia.w	sp!, {r4, r5, r6, r7, r8, r9, sl, pc}
    ab5a:	6883      	ldr	r3, [r0, #8]
    ab5c:	ebca 0903 	rsb	r9, sl, r3
    ab60:	ea4f 0849 	mov.w	r8, r9, lsl #1
    ab64:	4640      	mov	r0, r8
    ab66:	f003 fb81 	bl	e26c <__libc_malloc>
    ab6a:	4607      	mov	r7, r0
    ab6c:	2800      	cmp	r0, #0
    ab6e:	d029      	beq.n	abc4 <_IO_default_pbackfail+0xec>
    ab70:	eb00 0509 	add.w	r5, r0, r9
    ab74:	4651      	mov	r1, sl
    ab76:	464a      	mov	r2, r9
    ab78:	4628      	mov	r0, r5
    ab7a:	f005 eb12 	blx	101a0 <memcpy>
    ab7e:	68e0      	ldr	r0, [r4, #12]
    ab80:	f003 fdd8 	bl	e734 <__cfree>
    ab84:	eb07 0308 	add.w	r3, r7, r8
    ab88:	60e7      	str	r7, [r4, #12]
    ab8a:	b2f0      	uxtb	r0, r6
    ab8c:	60a3      	str	r3, [r4, #8]
    ab8e:	1e6b      	subs	r3, r5, #1
    ab90:	62a5      	str	r5, [r4, #40]	; 0x28
    ab92:	6063      	str	r3, [r4, #4]
    ab94:	f805 0c01 	strb.w	r0, [r5, #-1]
    ab98:	e8bd 87f0 	ldmia.w	sp!, {r4, r5, r6, r7, r8, r9, sl, pc}
    ab9c:	3d01      	subs	r5, #1
    ab9e:	b2d8      	uxtb	r0, r3
    aba0:	6065      	str	r5, [r4, #4]
    aba2:	e8bd 87f0 	ldmia.w	sp!, {r4, r5, r6, r7, r8, r9, sl, pc}
    aba6:	2080      	movs	r0, #128	; 0x80
    aba8:	f003 fb60 	bl	e26c <__libc_malloc>
    abac:	b130      	cbz	r0, abbc <_IO_default_pbackfail+0xe4>
    abae:	f100 0280 	add.w	r2, r0, #128	; 0x80
    abb2:	4629      	mov	r1, r5
    abb4:	6823      	ldr	r3, [r4, #0]
    abb6:	62a2      	str	r2, [r4, #40]	; 0x28
    abb8:	4615      	mov	r5, r2
    abba:	e7bf      	b.n	ab3c <_IO_default_pbackfail+0x64>
    abbc:	f04f 30ff 	mov.w	r0, #4294967295	; 0xffffffff
    abc0:	e8bd 87f0 	ldmia.w	sp!, {r4, r5, r6, r7, r8, r9, sl, pc}
    abc4:	f04f 30ff 	mov.w	r0, #4294967295	; 0xffffffff
    abc8:	e8bd 87f0 	ldmia.w	sp!, {r4, r5, r6, r7, r8, r9, sl, pc}

0000abcc <_IO_default_seek>:
    abcc:	f04f 30ff 	mov.w	r0, #4294967295	; 0xffffffff
    abd0:	f04f 31ff 	mov.w	r1, #4294967295	; 0xffffffff
    abd4:	4770      	bx	lr
    abd6:	bf00      	nop

0000abd8 <_IO_default_stat>:
    abd8:	f04f 30ff 	mov.w	r0, #4294967295	; 0xffffffff
    abdc:	4770      	bx	lr
    abde:	bf00      	nop

0000abe0 <_IO_default_read>:
    abe0:	f04f 30ff 	mov.w	r0, #4294967295	; 0xffffffff
    abe4:	4770      	bx	lr
    abe6:	bf00      	nop

0000abe8 <_IO_default_write>:
    abe8:	2000      	movs	r0, #0
    abea:	4770      	bx	lr

0000abec <_IO_default_showmanyc>:
    abec:	f04f 30ff 	mov.w	r0, #4294967295	; 0xffffffff
    abf0:	4770      	bx	lr
    abf2:	bf00      	nop

0000abf4 <_IO_default_imbue>:
    abf4:	4770      	bx	lr
    abf6:	bf00      	nop

0000abf8 <_IO_iter_begin>:
    abf8:	f646 4370 	movw	r3, #27760	; 0x6c70
    abfc:	f2c0 0306 	movt	r3, #6
    ac00:	6818      	ldr	r0, [r3, #0]
    ac02:	4770      	bx	lr

0000ac04 <_IO_iter_end>:
    ac04:	2000      	movs	r0, #0
    ac06:	4770      	bx	lr

0000ac08 <_IO_iter_next>:
    ac08:	6b40      	ldr	r0, [r0, #52]	; 0x34
    ac0a:	4770      	bx	lr

0000ac0c <_IO_iter_file>:
    ac0c:	4770      	bx	lr
    ac0e:	bf00      	nop

0000ac10 <_IO_list_lock>:
    ac10:	b538      	push	{r3, r4, r5, lr}
    ac12:	ee1d 5f70 	mrc	15, 0, r5, cr13, cr0, {3}
    ac16:	4c10      	ldr	r4, [pc, #64]	; (ac58 <_IO_list_lock+0x48>)
    ac18:	f5a5 6598 	sub.w	r5, r5, #1216	; 0x4c0
    ac1c:	6963      	ldr	r3, [r4, #20]
    ac1e:	42ab      	cmp	r3, r5
    ac20:	d013      	beq.n	ac4a <_IO_list_lock+0x3a>
    ac22:	f104 000c 	add.w	r0, r4, #12
    ac26:	2300      	movs	r3, #0
    ac28:	2101      	movs	r1, #1
    ac2a:	f3bf 8f5f 	dmb	sy
    ac2e:	e850 2f00 	ldrex	r2, [r0]
    ac32:	429a      	cmp	r2, r3
    ac34:	d105      	bne.n	ac42 <_IO_list_lock+0x32>
    ac36:	e840 1200 	strex	r2, r1, [r0]
    ac3a:	f092 0f00 	teq	r2, #0
    ac3e:	d1f6      	bne.n	ac2e <_IO_list_lock+0x1e>
    ac40:	461a      	mov	r2, r3
    ac42:	f3bf 8f5f 	dmb	sy
    ac46:	b922      	cbnz	r2, ac52 <_IO_list_lock+0x42>
    ac48:	6165      	str	r5, [r4, #20]
    ac4a:	6923      	ldr	r3, [r4, #16]
    ac4c:	3301      	adds	r3, #1
    ac4e:	6123      	str	r3, [r4, #16]
    ac50:	bd38      	pop	{r3, r4, r5, pc}
    ac52:	f006 fc35 	bl	114c0 <__lll_lock_wait_private>
    ac56:	e7f7      	b.n	ac48 <_IO_list_lock+0x38>
    ac58:	00067c00 	.word	0x00067c00

0000ac5c <_IO_list_unlock>:
    ac5c:	4b15      	ldr	r3, [pc, #84]	; (acb4 <_IO_list_unlock+0x58>)
    ac5e:	b510      	push	{r4, lr}
    ac60:	691a      	ldr	r2, [r3, #16]
    ac62:	3a01      	subs	r2, #1
    ac64:	611a      	str	r2, [r3, #16]
    ac66:	b9b2      	cbnz	r2, ac96 <_IO_list_unlock+0x3a>
    ac68:	f103 010c 	add.w	r1, r3, #12
    ac6c:	4610      	mov	r0, r2
    ac6e:	615a      	str	r2, [r3, #20]
    ac70:	68da      	ldr	r2, [r3, #12]
    ac72:	f3bf 8f5f 	dmb	sy
    ac76:	e851 4f00 	ldrex	r4, [r1]
    ac7a:	4294      	cmp	r4, r2
    ac7c:	d105      	bne.n	ac8a <_IO_list_unlock+0x2e>
    ac7e:	e841 0400 	strex	r4, r0, [r1]
    ac82:	f094 0f00 	teq	r4, #0
    ac86:	d1f6      	bne.n	ac76 <_IO_list_unlock+0x1a>
    ac88:	4614      	mov	r4, r2
    ac8a:	f3bf 8f5f 	dmb	sy
    ac8e:	42a2      	cmp	r2, r4
    ac90:	d1ee      	bne.n	ac70 <_IO_list_unlock+0x14>
    ac92:	2a01      	cmp	r2, #1
    ac94:	dc00      	bgt.n	ac98 <_IO_list_unlock+0x3c>
    ac96:	bd10      	pop	{r4, pc}
    ac98:	ee1d 1f70 	mrc	15, 0, r1, cr13, cr0, {3}
    ac9c:	2201      	movs	r2, #1
    ac9e:	f5a1 6198 	sub.w	r1, r1, #1216	; 0x4c0
    aca2:	4805      	ldr	r0, [pc, #20]	; (acb8 <_IO_list_unlock+0x5c>)
    aca4:	2300      	movs	r3, #0
    aca6:	f04f 0cf0 	mov.w	ip, #240	; 0xf0
    acaa:	6889      	ldr	r1, [r1, #8]
    acac:	4311      	orrs	r1, r2
    acae:	f7fe f8b7 	bl	8e20 <__libc_do_syscall>
    acb2:	e7f0      	b.n	ac96 <_IO_list_unlock+0x3a>
    acb4:	00067c00 	.word	0x00067c00
    acb8:	00067c0c 	.word	0x00067c0c

0000acbc <_IO_list_resetlock>:
    acbc:	f647 4300 	movw	r3, #31744	; 0x7c00
    acc0:	f2c0 0306 	movt	r3, #6
    acc4:	2200      	movs	r2, #0
    acc6:	60da      	str	r2, [r3, #12]
    acc8:	611a      	str	r2, [r3, #16]
    acca:	615a      	str	r2, [r3, #20]
    accc:	4770      	bx	lr
    acce:	bf00      	nop

0000acd0 <ptmalloc_unlock_all2>:
    acd0:	4b12      	ldr	r3, [pc, #72]	; (ad1c <ptmalloc_unlock_all2+0x4c>)
    acd2:	b4f0      	push	{r4, r5, r6, r7}
    acd4:	681b      	ldr	r3, [r3, #0]
    acd6:	2b00      	cmp	r3, #0
    acd8:	dd1d      	ble.n	ad16 <ptmalloc_unlock_all2+0x46>
    acda:	4a11      	ldr	r2, [pc, #68]	; (ad20 <ptmalloc_unlock_all2+0x50>)
    acdc:	2000      	movs	r0, #0
    acde:	4c11      	ldr	r4, [pc, #68]	; (ad24 <ptmalloc_unlock_all2+0x54>)
    ace0:	f8d2 744c 	ldr.w	r7, [r2, #1100]	; 0x44c
    ace4:	447c      	add	r4, pc
    ace6:	6824      	ldr	r4, [r4, #0]
    ace8:	f8d2 6450 	ldr.w	r6, [r2, #1104]	; 0x450
    acec:	4611      	mov	r1, r2
    acee:	f8d2 5454 	ldr.w	r5, [r2, #1108]	; 0x454
    acf2:	4613      	mov	r3, r2
    acf4:	ee1d 2f70 	mrc	15, 0, r2, cr13, cr0, {3}
    acf8:	5117      	str	r7, [r2, r4]
    acfa:	4a0b      	ldr	r2, [pc, #44]	; (ad28 <ptmalloc_unlock_all2+0x58>)
    acfc:	6016      	str	r6, [r2, #0]
    acfe:	4a0b      	ldr	r2, [pc, #44]	; (ad2c <ptmalloc_unlock_all2+0x5c>)
    ad00:	6015      	str	r5, [r2, #0]
    ad02:	6018      	str	r0, [r3, #0]
    ad04:	2200      	movs	r2, #0
    ad06:	f8d3 3440 	ldr.w	r3, [r3, #1088]	; 0x440
    ad0a:	428b      	cmp	r3, r1
    ad0c:	d1f9      	bne.n	ad02 <ptmalloc_unlock_all2+0x32>
    ad0e:	f8c3 2458 	str.w	r2, [r3, #1112]	; 0x458
    ad12:	f8c3 245c 	str.w	r2, [r3, #1116]	; 0x45c
    ad16:	bcf0      	pop	{r4, r5, r6, r7}
    ad18:	4770      	bx	lr
    ad1a:	bf00      	nop
    ad1c:	00067090 	.word	0x00067090
    ad20:	00067c40 	.word	0x00067c40
    ad24:	0005bf14 	.word	0x0005bf14
    ad28:	000670a4 	.word	0x000670a4
    ad2c:	00068108 	.word	0x00068108

0000ad30 <mem2mem_check>:
    ad30:	b430      	push	{r4, r5}
    ad32:	b1f0      	cbz	r0, ad72 <mem2mem_check+0x42>
    ad34:	f850 3c04 	ldr.w	r3, [r0, #-4]
    ad38:	f1a0 0508 	sub.w	r5, r0, #8
    ad3c:	f013 0f02 	tst.w	r3, #2
    ad40:	f023 0307 	bic.w	r3, r3, #7
    ad44:	bf0c      	ite	eq
    ad46:	2205      	moveq	r2, #5
    ad48:	2209      	movne	r2, #9
    ad4a:	1a9b      	subs	r3, r3, r2
    ad4c:	428b      	cmp	r3, r1
    ad4e:	d90c      	bls.n	ad6a <mem2mem_check+0x3a>
    ad50:	1a5a      	subs	r2, r3, r1
    ad52:	2aff      	cmp	r2, #255	; 0xff
    ad54:	d90f      	bls.n	ad76 <mem2mem_check+0x46>
    ad56:	24ff      	movs	r4, #255	; 0xff
    ad58:	e001      	b.n	ad5e <mem2mem_check+0x2e>
    ad5a:	2aff      	cmp	r2, #255	; 0xff
    ad5c:	d90b      	bls.n	ad76 <mem2mem_check+0x46>
    ad5e:	54c4      	strb	r4, [r0, r3]
    ad60:	3bff      	subs	r3, #255	; 0xff
    ad62:	4299      	cmp	r1, r3
    ad64:	ebc1 0203 	rsb	r2, r1, r3
    ad68:	d3f7      	bcc.n	ad5a <mem2mem_check+0x2a>
    ad6a:	08eb      	lsrs	r3, r5, #3
    ad6c:	ea83 25d5 	eor.w	r5, r3, r5, lsr #11
    ad70:	5445      	strb	r5, [r0, r1]
    ad72:	bc30      	pop	{r4, r5}
    ad74:	4770      	bx	lr
    ad76:	54c2      	strb	r2, [r0, r3]
    ad78:	e7f7      	b.n	ad6a <mem2mem_check+0x3a>
    ad7a:	bf00      	nop

0000ad7c <sYSTRIm>:
    ad7c:	6b0a      	ldr	r2, [r1, #48]	; 0x30
    ad7e:	4b1e      	ldr	r3, [pc, #120]	; (adf8 <sYSTRIm+0x7c>)
    ad80:	e92d 41f0 	stmdb	sp!, {r4, r5, r6, r7, r8, lr}
    ad84:	460c      	mov	r4, r1
    ad86:	6855      	ldr	r5, [r2, #4]
    ad88:	f8d3 347c 	ldr.w	r3, [r3, #1148]	; 0x47c
    ad8c:	f025 0507 	bic.w	r5, r5, #7
    ad90:	1a2e      	subs	r6, r5, r0
    ad92:	425b      	negs	r3, r3
    ad94:	3e11      	subs	r6, #17
    ad96:	401e      	ands	r6, r3
    ad98:	2e00      	cmp	r6, #0
    ad9a:	dd08      	ble.n	adae <sYSTRIm+0x32>
    ad9c:	4f17      	ldr	r7, [pc, #92]	; (adfc <sYSTRIm+0x80>)
    ad9e:	2000      	movs	r0, #0
    ada0:	687b      	ldr	r3, [r7, #4]
    ada2:	4798      	blx	r3
    ada4:	6b23      	ldr	r3, [r4, #48]	; 0x30
    ada6:	195b      	adds	r3, r3, r5
    ada8:	4298      	cmp	r0, r3
    adaa:	4680      	mov	r8, r0
    adac:	d002      	beq.n	adb4 <sYSTRIm+0x38>
    adae:	2000      	movs	r0, #0
    adb0:	e8bd 81f0 	ldmia.w	sp!, {r4, r5, r6, r7, r8, pc}
    adb4:	687b      	ldr	r3, [r7, #4]
    adb6:	4270      	negs	r0, r6
    adb8:	4798      	blx	r3
    adba:	4b11      	ldr	r3, [pc, #68]	; (ae00 <sYSTRIm+0x84>)
    adbc:	681b      	ldr	r3, [r3, #0]
    adbe:	b9c3      	cbnz	r3, adf2 <sYSTRIm+0x76>
    adc0:	687b      	ldr	r3, [r7, #4]
    adc2:	2000      	movs	r0, #0
    adc4:	4798      	blx	r3
    adc6:	b190      	cbz	r0, adee <sYSTRIm+0x72>
    adc8:	ebb8 0800 	subs.w	r8, r8, r0
    adcc:	d00e      	beq.n	adec <sYSTRIm+0x70>
    adce:	6b23      	ldr	r3, [r4, #48]	; 0x30
    add0:	ebc8 0505 	rsb	r5, r8, r5
    add4:	f8d4 2444 	ldr.w	r2, [r4, #1092]	; 0x444
    add8:	f045 0501 	orr.w	r5, r5, #1
    addc:	2001      	movs	r0, #1
    adde:	ebc8 0202 	rsb	r2, r8, r2
    ade2:	f8c4 2444 	str.w	r2, [r4, #1092]	; 0x444
    ade6:	605d      	str	r5, [r3, #4]
    ade8:	e8bd 81f0 	ldmia.w	sp!, {r4, r5, r6, r7, r8, pc}
    adec:	4640      	mov	r0, r8
    adee:	e8bd 81f0 	ldmia.w	sp!, {r4, r5, r6, r7, r8, pc}
    adf2:	4798      	blx	r3
    adf4:	e7e4      	b.n	adc0 <sYSTRIm+0x44>
    adf6:	bf00      	nop
    adf8:	00067c40 	.word	0x00067c40
    adfc:	00067090 	.word	0x00067090
    ae00:	00068104 	.word	0x00068104

0000ae04 <mem2chunk_check>:
    ae04:	e92d 43f8 	stmdb	sp!, {r3, r4, r5, r6, r7, r8, r9, lr}
    ae08:	f010 0807 	ands.w	r8, r0, #7
    ae0c:	4604      	mov	r4, r0
    ae0e:	460f      	mov	r7, r1
    ae10:	f040 80a5 	bne.w	af5e <mem2chunk_check+0x15a>
    ae14:	f850 6c04 	ldr.w	r6, [r0, #-4]
    ae18:	f1a0 0508 	sub.w	r5, r0, #8
    ae1c:	f016 0102 	ands.w	r1, r6, #2
    ae20:	d148      	bne.n	aeb4 <mem2chunk_check+0xb0>
    ae22:	4b71      	ldr	r3, [pc, #452]	; (afe8 <mem2chunk_check+0x1e4>)
    ae24:	f026 0207 	bic.w	r2, r6, #7
    ae28:	6858      	ldr	r0, [r3, #4]
    ae2a:	f010 0f02 	tst.w	r0, #2
    ae2e:	bf14      	ite	ne
    ae30:	2000      	movne	r0, #0
    ae32:	2001      	moveq	r0, #1
    ae34:	b160      	cbz	r0, ae50 <mem2chunk_check+0x4c>
    ae36:	f8d3 c48c 	ldr.w	ip, [r3, #1164]	; 0x48c
    ae3a:	4565      	cmp	r5, ip
    ae3c:	f0c0 80c4 	bcc.w	afc8 <mem2chunk_check+0x1c4>
    ae40:	f8d3 9444 	ldr.w	r9, [r3, #1092]	; 0x444
    ae44:	eb05 0802 	add.w	r8, r5, r2
    ae48:	44cc      	add	ip, r9
    ae4a:	45e0      	cmp	r8, ip
    ae4c:	f080 80bc 	bcs.w	afc8 <mem2chunk_check+0x1c4>
    ae50:	2a0f      	cmp	r2, #15
    ae52:	f240 8084 	bls.w	af5e <mem2chunk_check+0x15a>
    ae56:	18a9      	adds	r1, r5, r2
    ae58:	6849      	ldr	r1, [r1, #4]
    ae5a:	f011 0101 	ands.w	r1, r1, #1
    ae5e:	f000 80b3 	beq.w	afc8 <mem2chunk_check+0x1c4>
    ae62:	f016 0601 	ands.w	r6, r6, #1
    ae66:	d06b      	beq.n	af40 <mem2chunk_check+0x13c>
    ae68:	3203      	adds	r2, #3
    ae6a:	08ee      	lsrs	r6, r5, #3
    ae6c:	ea86 26d5 	eor.w	r6, r6, r5, lsr #11
    ae70:	18a8      	adds	r0, r5, r2
    ae72:	5ca9      	ldrb	r1, [r5, r2]
    ae74:	b2f6      	uxtb	r6, r6
    ae76:	42b1      	cmp	r1, r6
    ae78:	460b      	mov	r3, r1
    ae7a:	d013      	beq.n	aea4 <mem2chunk_check+0xa0>
    ae7c:	2900      	cmp	r1, #0
    ae7e:	f000 80a3 	beq.w	afc8 <mem2chunk_check+0x1c4>
    ae82:	3108      	adds	r1, #8
    ae84:	428a      	cmp	r2, r1
    ae86:	d205      	bcs.n	ae94 <mem2chunk_check+0x90>
    ae88:	e069      	b.n	af5e <mem2chunk_check+0x15a>
    ae8a:	2b00      	cmp	r3, #0
    ae8c:	f000 809e 	beq.w	afcc <mem2chunk_check+0x1c8>
    ae90:	4294      	cmp	r4, r2
    ae92:	d864      	bhi.n	af5e <mem2chunk_check+0x15a>
    ae94:	1ad2      	subs	r2, r2, r3
    ae96:	18a8      	adds	r0, r5, r2
    ae98:	5cab      	ldrb	r3, [r5, r2]
    ae9a:	42b3      	cmp	r3, r6
    ae9c:	f103 0408 	add.w	r4, r3, #8
    aea0:	4619      	mov	r1, r3
    aea2:	d1f2      	bne.n	ae8a <mem2chunk_check+0x86>
    aea4:	43c9      	mvns	r1, r1
    aea6:	7001      	strb	r1, [r0, #0]
    aea8:	2f00      	cmp	r7, #0
    aeaa:	d059      	beq.n	af60 <mem2chunk_check+0x15c>
    aeac:	6038      	str	r0, [r7, #0]
    aeae:	4628      	mov	r0, r5
    aeb0:	e8bd 83f8 	ldmia.w	sp!, {r3, r4, r5, r6, r7, r8, r9, pc}
    aeb4:	f005 feb6 	bl	10c24 <__getpagesize>
    aeb8:	3801      	subs	r0, #1
    aeba:	ea10 0304 	ands.w	r3, r0, r4
    aebe:	bf0c      	ite	eq
    aec0:	2200      	moveq	r2, #0
    aec2:	2201      	movne	r2, #1
    aec4:	2b08      	cmp	r3, #8
    aec6:	bf0c      	ite	eq
    aec8:	2200      	moveq	r2, #0
    aeca:	f002 0201 	andne.w	r2, r2, #1
    aece:	b152      	cbz	r2, aee6 <mem2chunk_check+0xe2>
    aed0:	f1b3 0210 	subs.w	r2, r3, #16
    aed4:	bf18      	it	ne
    aed6:	2201      	movne	r2, #1
    aed8:	2b20      	cmp	r3, #32
    aeda:	bf0c      	ite	eq
    aedc:	2200      	moveq	r2, #0
    aede:	f002 0201 	andne.w	r2, r2, #1
    aee2:	2a00      	cmp	r2, #0
    aee4:	d13f      	bne.n	af66 <mem2chunk_check+0x162>
    aee6:	f854 3c04 	ldr.w	r3, [r4, #-4]
    aeea:	f003 0303 	and.w	r3, r3, #3
    aeee:	2b02      	cmp	r3, #2
    aef0:	d135      	bne.n	af5e <mem2chunk_check+0x15a>
    aef2:	f854 2c08 	ldr.w	r2, [r4, #-8]
    aef6:	f026 0607 	bic.w	r6, r6, #7
    aefa:	1aab      	subs	r3, r5, r2
    aefc:	18b2      	adds	r2, r6, r2
    aefe:	4313      	orrs	r3, r2
    af00:	ea10 0203 	ands.w	r2, r0, r3
    af04:	d12b      	bne.n	af5e <mem2chunk_check+0x15a>
    af06:	3e01      	subs	r6, #1
    af08:	08ec      	lsrs	r4, r5, #3
    af0a:	ea84 24d5 	eor.w	r4, r4, r5, lsr #11
    af0e:	19a8      	adds	r0, r5, r6
    af10:	5da9      	ldrb	r1, [r5, r6]
    af12:	b2e4      	uxtb	r4, r4
    af14:	42a1      	cmp	r1, r4
    af16:	460b      	mov	r3, r1
    af18:	d0c4      	beq.n	aea4 <mem2chunk_check+0xa0>
    af1a:	2900      	cmp	r1, #0
    af1c:	d054      	beq.n	afc8 <mem2chunk_check+0x1c4>
    af1e:	3108      	adds	r1, #8
    af20:	428e      	cmp	r6, r1
    af22:	d204      	bcs.n	af2e <mem2chunk_check+0x12a>
    af24:	e05e      	b.n	afe4 <mem2chunk_check+0x1e0>
    af26:	2b00      	cmp	r3, #0
    af28:	d050      	beq.n	afcc <mem2chunk_check+0x1c8>
    af2a:	42b2      	cmp	r2, r6
    af2c:	d817      	bhi.n	af5e <mem2chunk_check+0x15a>
    af2e:	1af6      	subs	r6, r6, r3
    af30:	19a8      	adds	r0, r5, r6
    af32:	5dab      	ldrb	r3, [r5, r6]
    af34:	42a3      	cmp	r3, r4
    af36:	f103 0208 	add.w	r2, r3, #8
    af3a:	4619      	mov	r1, r3
    af3c:	d1f3      	bne.n	af26 <mem2chunk_check+0x122>
    af3e:	e7b1      	b.n	aea4 <mem2chunk_check+0xa0>
    af40:	f854 1c08 	ldr.w	r1, [r4, #-8]
    af44:	f011 0407 	ands.w	r4, r1, #7
    af48:	bf18      	it	ne
    af4a:	4635      	movne	r5, r6
    af4c:	d108      	bne.n	af60 <mem2chunk_check+0x15c>
    af4e:	2800      	cmp	r0, #0
    af50:	d140      	bne.n	afd4 <mem2chunk_check+0x1d0>
    af52:	1a6b      	subs	r3, r5, r1
    af54:	685b      	ldr	r3, [r3, #4]
    af56:	f023 0307 	bic.w	r3, r3, #7
    af5a:	4299      	cmp	r1, r3
    af5c:	d084      	beq.n	ae68 <mem2chunk_check+0x64>
    af5e:	2500      	movs	r5, #0
    af60:	4628      	mov	r0, r5
    af62:	e8bd 83f8 	ldmia.w	sp!, {r3, r4, r5, r6, r7, r8, r9, pc}
    af66:	f1b3 0240 	subs.w	r2, r3, #64	; 0x40
    af6a:	bf18      	it	ne
    af6c:	2201      	movne	r2, #1
    af6e:	2b80      	cmp	r3, #128	; 0x80
    af70:	bf0c      	ite	eq
    af72:	2200      	moveq	r2, #0
    af74:	f002 0201 	andne.w	r2, r2, #1
    af78:	2a00      	cmp	r2, #0
    af7a:	d0b4      	beq.n	aee6 <mem2chunk_check+0xe2>
    af7c:	f5b3 7280 	subs.w	r2, r3, #256	; 0x100
    af80:	bf18      	it	ne
    af82:	2201      	movne	r2, #1
    af84:	f5b3 7f00 	cmp.w	r3, #512	; 0x200
    af88:	bf0c      	ite	eq
    af8a:	2200      	moveq	r2, #0
    af8c:	f002 0201 	andne.w	r2, r2, #1
    af90:	2a00      	cmp	r2, #0
    af92:	d0a8      	beq.n	aee6 <mem2chunk_check+0xe2>
    af94:	f5b3 6280 	subs.w	r2, r3, #1024	; 0x400
    af98:	bf18      	it	ne
    af9a:	2201      	movne	r2, #1
    af9c:	f5b3 6f00 	cmp.w	r3, #2048	; 0x800
    afa0:	bf0c      	ite	eq
    afa2:	2200      	moveq	r2, #0
    afa4:	f002 0201 	andne.w	r2, r2, #1
    afa8:	2a00      	cmp	r2, #0
    afaa:	d09c      	beq.n	aee6 <mem2chunk_check+0xe2>
    afac:	f5b3 5280 	subs.w	r2, r3, #4096	; 0x1000
    afb0:	bf18      	it	ne
    afb2:	2201      	movne	r2, #1
    afb4:	f5b3 5f00 	cmp.w	r3, #8192	; 0x2000
    afb8:	bf2c      	ite	cs
    afba:	2300      	movcs	r3, #0
    afbc:	f002 0301 	andcc.w	r3, r2, #1
    afc0:	2b00      	cmp	r3, #0
    afc2:	d090      	beq.n	aee6 <mem2chunk_check+0xe2>
    afc4:	4645      	mov	r5, r8
    afc6:	e7cb      	b.n	af60 <mem2chunk_check+0x15c>
    afc8:	460d      	mov	r5, r1
    afca:	e7c9      	b.n	af60 <mem2chunk_check+0x15c>
    afcc:	461d      	mov	r5, r3
    afce:	4628      	mov	r0, r5
    afd0:	e8bd 83f8 	ldmia.w	sp!, {r3, r4, r5, r6, r7, r8, r9, pc}
    afd4:	f8d3 048c 	ldr.w	r0, [r3, #1164]	; 0x48c
    afd8:	1a6b      	subs	r3, r5, r1
    afda:	4283      	cmp	r3, r0
    afdc:	bf38      	it	cc
    afde:	4625      	movcc	r5, r4
    afe0:	d2b8      	bcs.n	af54 <mem2chunk_check+0x150>
    afe2:	e7bd      	b.n	af60 <mem2chunk_check+0x15c>
    afe4:	4615      	mov	r5, r2
    afe6:	e7bb      	b.n	af60 <mem2chunk_check+0x15c>
    afe8:	00067c40 	.word	0x00067c40

0000afec <__malloc_assert>:
    afec:	b5f0      	push	{r4, r5, r6, r7, lr}
    afee:	4617      	mov	r7, r2
    aff0:	4a10      	ldr	r2, [pc, #64]	; (b034 <__malloc_assert+0x48>)
    aff2:	4605      	mov	r5, r0
    aff4:	4e10      	ldr	r6, [pc, #64]	; (b038 <__malloc_assert+0x4c>)
    aff6:	461c      	mov	r4, r3
    aff8:	4810      	ldr	r0, [pc, #64]	; (b03c <__malloc_assert+0x50>)
    affa:	b087      	sub	sp, #28
    affc:	6812      	ldr	r2, [r2, #0]
    affe:	468e      	mov	lr, r1
    b000:	7813      	ldrb	r3, [r2, #0]
    b002:	2b00      	cmp	r3, #0
    b004:	bf0c      	ite	eq
    b006:	4603      	moveq	r3, r0
    b008:	4633      	movne	r3, r6
    b00a:	b17c      	cbz	r4, b02c <__malloc_assert+0x40>
    b00c:	490c      	ldr	r1, [pc, #48]	; (b040 <__malloc_assert+0x54>)
    b00e:	2000      	movs	r0, #0
    b010:	f8cd e000 	str.w	lr, [sp]
    b014:	9701      	str	r7, [sp, #4]
    b016:	9402      	str	r4, [sp, #8]
    b018:	9603      	str	r6, [sp, #12]
    b01a:	9504      	str	r5, [sp, #16]
    b01c:	f012 f93a 	bl	1d294 <__fxprintf>
    b020:	4b08      	ldr	r3, [pc, #32]	; (b044 <__malloc_assert+0x58>)
    b022:	6818      	ldr	r0, [r3, #0]
    b024:	f012 fa88 	bl	1d538 <_IO_fflush>
    b028:	f7fd ff1e 	bl	8e68 <abort>
    b02c:	4604      	mov	r4, r0
    b02e:	4606      	mov	r6, r0
    b030:	e7ec      	b.n	b00c <__malloc_assert+0x20>
    b032:	bf00      	nop
    b034:	000670b8 	.word	0x000670b8
    b038:	0004db4c 	.word	0x0004db4c
    b03c:	0005d6b8 	.word	0x0005d6b8
    b040:	00048cc8 	.word	0x00048cc8
    b044:	00067190 	.word	0x00067190

0000b048 <new_heap>:
    b048:	e92d 41f0 	stmdb	sp!, {r4, r5, r6, r7, r8, lr}
    b04c:	b082      	sub	sp, #8
    b04e:	180c      	adds	r4, r1, r0
    b050:	4605      	mov	r5, r0
    b052:	f005 fde7 	bl	10c24 <__getpagesize>
    b056:	f5b4 4f00 	cmp.w	r4, #32768	; 0x8000
    b05a:	bf38      	it	cc
    b05c:	f44f 4400 	movcc.w	r4, #32768	; 0x8000
    b060:	4607      	mov	r7, r0
    b062:	d302      	bcc.n	b06a <new_heap+0x22>
    b064:	f5b4 1f80 	cmp.w	r4, #1048576	; 0x100000
    b068:	d82d      	bhi.n	b0c6 <new_heap+0x7e>
    b06a:	4d45      	ldr	r5, [pc, #276]	; (b180 <new_heap+0x138>)
    b06c:	f8d5 0490 	ldr.w	r0, [r5, #1168]	; 0x490
    b070:	2800      	cmp	r0, #0
    b072:	d034      	beq.n	b0de <new_heap+0x96>
    b074:	2600      	movs	r6, #0
    b076:	f44f 1180 	mov.w	r1, #1048576	; 0x100000
    b07a:	f244 0322 	movw	r3, #16418	; 0x4022
    b07e:	f04f 3eff 	mov.w	lr, #4294967295	; 0xffffffff
    b082:	4632      	mov	r2, r6
    b084:	9601      	str	r6, [sp, #4]
    b086:	f8cd e000 	str.w	lr, [sp]
    b08a:	f006 e8fa 	blx	11280 <__mmap>
    b08e:	f8c5 6490 	str.w	r6, [r5, #1168]	; 0x490
    b092:	f1b0 3fff 	cmp.w	r0, #4294967295	; 0xffffffff
    b096:	4680      	mov	r8, r0
    b098:	d021      	beq.n	b0de <new_heap+0x96>
    b09a:	f3c0 0313 	ubfx	r3, r0, #0, #20
    b09e:	b9d3      	cbnz	r3, b0d6 <new_heap+0x8e>
    b0a0:	3f01      	subs	r7, #1
    b0a2:	4640      	mov	r0, r8
    b0a4:	19e4      	adds	r4, r4, r7
    b0a6:	2203      	movs	r2, #3
    b0a8:	ea24 0407 	bic.w	r4, r4, r7
    b0ac:	4621      	mov	r1, r4
    b0ae:	f006 e920 	blx	112f0 <__mprotect>
    b0b2:	2800      	cmp	r0, #0
    b0b4:	d141      	bne.n	b13a <new_heap+0xf2>
    b0b6:	4640      	mov	r0, r8
    b0b8:	f8c8 4008 	str.w	r4, [r8, #8]
    b0bc:	f8c8 400c 	str.w	r4, [r8, #12]
    b0c0:	b002      	add	sp, #8
    b0c2:	e8bd 81f0 	ldmia.w	sp!, {r4, r5, r6, r7, r8, pc}
    b0c6:	f5b5 1f80 	cmp.w	r5, #1048576	; 0x100000
    b0ca:	bf98      	it	ls
    b0cc:	f44f 1480 	movls.w	r4, #1048576	; 0x100000
    b0d0:	d9cb      	bls.n	b06a <new_heap+0x22>
    b0d2:	2000      	movs	r0, #0
    b0d4:	e7f4      	b.n	b0c0 <new_heap+0x78>
    b0d6:	f44f 1180 	mov.w	r1, #1048576	; 0x100000
    b0da:	f006 e8fa 	blx	112d0 <__munmap>
    b0de:	2600      	movs	r6, #0
    b0e0:	f44f 1100 	mov.w	r1, #2097152	; 0x200000
    b0e4:	f244 0322 	movw	r3, #16418	; 0x4022
    b0e8:	f04f 3eff 	mov.w	lr, #4294967295	; 0xffffffff
    b0ec:	4630      	mov	r0, r6
    b0ee:	4632      	mov	r2, r6
    b0f0:	f8cd e000 	str.w	lr, [sp]
    b0f4:	9601      	str	r6, [sp, #4]
    b0f6:	f006 e8c4 	blx	11280 <__mmap>
    b0fa:	f1b0 3fff 	cmp.w	r0, #4294967295	; 0xffffffff
    b0fe:	4686      	mov	lr, r0
    b100:	d022      	beq.n	b148 <new_heap+0x100>
    b102:	f64f 78ff 	movw	r8, #65535	; 0xffff
    b106:	f2c0 080f 	movt	r8, #15
    b10a:	4480      	add	r8, r0
    b10c:	ea4f 5818 	mov.w	r8, r8, lsr #20
    b110:	ea4f 5808 	mov.w	r8, r8, lsl #20
    b114:	ebb8 0600 	subs.w	r6, r8, r0
    b118:	bf04      	itt	eq
    b11a:	f508 1080 	addeq.w	r0, r8, #1048576	; 0x100000
    b11e:	f8c5 0490 	streq.w	r0, [r5, #1168]	; 0x490
    b122:	d104      	bne.n	b12e <new_heap+0xe6>
    b124:	f5c6 1180 	rsb	r1, r6, #1048576	; 0x100000
    b128:	f006 e8d2 	blx	112d0 <__munmap>
    b12c:	e7b8      	b.n	b0a0 <new_heap+0x58>
    b12e:	4631      	mov	r1, r6
    b130:	f006 e8ce 	blx	112d0 <__munmap>
    b134:	f508 1080 	add.w	r0, r8, #1048576	; 0x100000
    b138:	e7f4      	b.n	b124 <new_heap+0xdc>
    b13a:	4640      	mov	r0, r8
    b13c:	f44f 1180 	mov.w	r1, #1048576	; 0x100000
    b140:	f006 e8c6 	blx	112d0 <__munmap>
    b144:	2000      	movs	r0, #0
    b146:	e7bb      	b.n	b0c0 <new_heap+0x78>
    b148:	4630      	mov	r0, r6
    b14a:	f44f 1180 	mov.w	r1, #1048576	; 0x100000
    b14e:	4632      	mov	r2, r6
    b150:	f244 0322 	movw	r3, #16418	; 0x4022
    b154:	f8cd e000 	str.w	lr, [sp]
    b158:	9601      	str	r6, [sp, #4]
    b15a:	f006 e892 	blx	11280 <__mmap>
    b15e:	f1b0 3fff 	cmp.w	r0, #4294967295	; 0xffffffff
    b162:	4680      	mov	r8, r0
    b164:	bf08      	it	eq
    b166:	4630      	moveq	r0, r6
    b168:	d0aa      	beq.n	b0c0 <new_heap+0x78>
    b16a:	f3c8 0313 	ubfx	r3, r8, #0, #20
    b16e:	2b00      	cmp	r3, #0
    b170:	d096      	beq.n	b0a0 <new_heap+0x58>
    b172:	f44f 1180 	mov.w	r1, #1048576	; 0x100000
    b176:	f006 e8ac 	blx	112d0 <__munmap>
    b17a:	4630      	mov	r0, r6
    b17c:	e7a0      	b.n	b0c0 <new_heap+0x78>
    b17e:	bf00      	nop
    b180:	00067c40 	.word	0x00067c40

0000b184 <mi_arena.10652>:
    b184:	e92d 4ff0 	stmdb	sp!, {r4, r5, r6, r7, r8, r9, sl, fp, lr}
    b188:	f5ad 6d0a 	sub.w	sp, sp, #2208	; 0x8a0
    b18c:	b085      	sub	sp, #20
    b18e:	f8dc 2024 	ldr.w	r2, [ip, #36]	; 0x24
    b192:	49b2      	ldr	r1, [pc, #712]	; (b45c <mi_arena.10652+0x2d8>)
    b194:	1c53      	adds	r3, r2, #1
    b196:	9005      	str	r0, [sp, #20]
    b198:	f8cc 3024 	str.w	r3, [ip, #36]	; 0x24
    b19c:	f8dc 0020 	ldr.w	r0, [ip, #32]
    b1a0:	f8cd c010 	str.w	ip, [sp, #16]
    b1a4:	f011 fd74 	bl	1cc90 <__fprintf>
    b1a8:	9c05      	ldr	r4, [sp, #20]
    b1aa:	2300      	movs	r3, #0
    b1ac:	2101      	movs	r1, #1
    b1ae:	f3bf 8f5f 	dmb	sy
    b1b2:	e854 2f00 	ldrex	r2, [r4]
    b1b6:	429a      	cmp	r2, r3
    b1b8:	d105      	bne.n	b1c6 <mi_arena.10652+0x42>
    b1ba:	e844 1200 	strex	r2, r1, [r4]
    b1be:	f092 0f00 	teq	r2, #0
    b1c2:	d1f6      	bne.n	b1b2 <mi_arena.10652+0x2e>
    b1c4:	461a      	mov	r2, r3
    b1c6:	f3bf 8f5f 	dmb	sy
    b1ca:	2a00      	cmp	r2, #0
    b1cc:	f040 8175 	bne.w	b4ba <mi_arena.10652+0x336>
    b1d0:	f04f 0800 	mov.w	r8, #0
    b1d4:	f8cd 8018 	str.w	r8, [sp, #24]
    b1d8:	f8dd 8014 	ldr.w	r8, [sp, #20]
    b1dc:	2000      	movs	r0, #0
    b1de:	f10d 0c20 	add.w	ip, sp, #32
    b1e2:	a90a      	add	r1, sp, #40	; 0x28
    b1e4:	f108 0404 	add.w	r4, r8, #4
    b1e8:	ad32      	add	r5, sp, #200	; 0xc8
    b1ea:	46e6      	mov	lr, ip
    b1ec:	4606      	mov	r6, r0
    b1ee:	4607      	mov	r7, r0
    b1f0:	9007      	str	r0, [sp, #28]
    b1f2:	f854 3f04 	ldr.w	r3, [r4, #4]!
    b1f6:	2b00      	cmp	r3, #0
    b1f8:	f000 811a 	beq.w	b430 <mi_arena.10652+0x2ac>
    b1fc:	6858      	ldr	r0, [r3, #4]
    b1fe:	2200      	movs	r2, #0
    b200:	f020 0007 	bic.w	r0, r0, #7
    b204:	689b      	ldr	r3, [r3, #8]
    b206:	3201      	adds	r2, #1
    b208:	2b00      	cmp	r3, #0
    b20a:	d1fb      	bne.n	b204 <mi_arena.10652+0x80>
    b20c:	fb00 7702 	mla	r7, r0, r2, r7
    b210:	18b6      	adds	r6, r6, r2
    b212:	1fc3      	subs	r3, r0, #7
    b214:	f841 0c04 	str.w	r0, [r1, #-4]
    b218:	f841 3c08 	str.w	r3, [r1, #-8]
    b21c:	604a      	str	r2, [r1, #4]
    b21e:	f851 3c04 	ldr.w	r3, [r1, #-4]
    b222:	fb03 f202 	mul.w	r2, r3, r2
    b226:	f841 2b10 	str.w	r2, [r1], #16
    b22a:	42a9      	cmp	r1, r5
    b22c:	d1e1      	bne.n	b1f2 <mi_arena.10652+0x6e>
    b22e:	9c05      	ldr	r4, [sp, #20]
    b230:	9607      	str	r6, [sp, #28]
    b232:	9706      	str	r7, [sp, #24]
    b234:	6ba3      	ldr	r3, [r4, #56]	; 0x38
    b236:	2b00      	cmp	r3, #0
    b238:	f000 810d 	beq.w	b456 <mi_arena.10652+0x2d2>
    b23c:	f104 0630 	add.w	r6, r4, #48	; 0x30
    b240:	9d33      	ldr	r5, [sp, #204]	; 0xcc
    b242:	429e      	cmp	r6, r3
    b244:	9c32      	ldr	r4, [sp, #200]	; 0xc8
    b246:	d011      	beq.n	b26c <mi_arena.10652+0xe8>
    b248:	9830      	ldr	r0, [sp, #192]	; 0xc0
    b24a:	9931      	ldr	r1, [sp, #196]	; 0xc4
    b24c:	685a      	ldr	r2, [r3, #4]
    b24e:	3501      	adds	r5, #1
    b250:	689b      	ldr	r3, [r3, #8]
    b252:	4290      	cmp	r0, r2
    b254:	bf28      	it	cs
    b256:	4610      	movcs	r0, r2
    b258:	4291      	cmp	r1, r2
    b25a:	bf38      	it	cc
    b25c:	4611      	movcc	r1, r2
    b25e:	429e      	cmp	r6, r3
    b260:	4414      	add	r4, r2
    b262:	d1f3      	bne.n	b24c <mi_arena.10652+0xc8>
    b264:	9533      	str	r5, [sp, #204]	; 0xcc
    b266:	9432      	str	r4, [sp, #200]	; 0xc8
    b268:	9030      	str	r0, [sp, #192]	; 0xc0
    b26a:	9131      	str	r1, [sp, #196]	; 0xc4
    b26c:	f8dd c014 	ldr.w	ip, [sp, #20]
    b270:	f04f 0800 	mov.w	r8, #0
    b274:	f04f 3aff 	mov.w	sl, #4294967295	; 0xffffffff
    b278:	46c1      	mov	r9, r8
    b27a:	f10c 0b38 	add.w	fp, ip, #56	; 0x38
    b27e:	eb0b 0c08 	add.w	ip, fp, r8
    b282:	f8ce a0b0 	str.w	sl, [lr, #176]	; 0xb0
    b286:	f8ce 90bc 	str.w	r9, [lr, #188]	; 0xbc
    b28a:	f8dc 3008 	ldr.w	r3, [ip, #8]
    b28e:	f8ce 90b8 	str.w	r9, [lr, #184]	; 0xb8
    b292:	f8ce 90b4 	str.w	r9, [lr, #180]	; 0xb4
    b296:	b1d3      	cbz	r3, b2ce <mi_arena.10652+0x14a>
    b298:	459c      	cmp	ip, r3
    b29a:	d018      	beq.n	b2ce <mi_arena.10652+0x14a>
    b29c:	2100      	movs	r1, #0
    b29e:	f04f 37ff 	mov.w	r7, #4294967295	; 0xffffffff
    b2a2:	460e      	mov	r6, r1
    b2a4:	4608      	mov	r0, r1
    b2a6:	685a      	ldr	r2, [r3, #4]
    b2a8:	3101      	adds	r1, #1
    b2aa:	689b      	ldr	r3, [r3, #8]
    b2ac:	4297      	cmp	r7, r2
    b2ae:	bf28      	it	cs
    b2b0:	4617      	movcs	r7, r2
    b2b2:	4290      	cmp	r0, r2
    b2b4:	bf38      	it	cc
    b2b6:	4610      	movcc	r0, r2
    b2b8:	459c      	cmp	ip, r3
    b2ba:	4416      	add	r6, r2
    b2bc:	d1f3      	bne.n	b2a6 <mi_arena.10652+0x122>
    b2be:	f8ce 70b0 	str.w	r7, [lr, #176]	; 0xb0
    b2c2:	f8ce 10bc 	str.w	r1, [lr, #188]	; 0xbc
    b2c6:	f8ce 60b8 	str.w	r6, [lr, #184]	; 0xb8
    b2ca:	f8ce 00b4 	str.w	r0, [lr, #180]	; 0xb4
    b2ce:	f8de 30bc 	ldr.w	r3, [lr, #188]	; 0xbc
    b2d2:	b90b      	cbnz	r3, b2d8 <mi_arena.10652+0x154>
    b2d4:	f8ce 30b0 	str.w	r3, [lr, #176]	; 0xb0
    b2d8:	f108 0808 	add.w	r8, r8, #8
    b2dc:	f8de 20b8 	ldr.w	r2, [lr, #184]	; 0xb8
    b2e0:	f5b8 7f7c 	cmp.w	r8, #1008	; 0x3f0
    b2e4:	441d      	add	r5, r3
    b2e6:	f10e 0e10 	add.w	lr, lr, #16
    b2ea:	4414      	add	r4, r2
    b2ec:	d1c7      	bne.n	b27e <mi_arena.10652+0xfa>
    b2ee:	9905      	ldr	r1, [sp, #20]
    b2f0:	2200      	movs	r2, #0
    b2f2:	680b      	ldr	r3, [r1, #0]
    b2f4:	f3bf 8f5f 	dmb	sy
    b2f8:	e851 0f00 	ldrex	r0, [r1]
    b2fc:	4298      	cmp	r0, r3
    b2fe:	d105      	bne.n	b30c <mi_arena.10652+0x188>
    b300:	e841 2000 	strex	r0, r2, [r1]
    b304:	f090 0f00 	teq	r0, #0
    b308:	d1f6      	bne.n	b2f8 <mi_arena.10652+0x174>
    b30a:	4618      	mov	r0, r3
    b30c:	f3bf 8f5f 	dmb	sy
    b310:	4283      	cmp	r3, r0
    b312:	d1ee      	bne.n	b2f2 <mi_arena.10652+0x16e>
    b314:	2b01      	cmp	r3, #1
    b316:	f300 80c2 	bgt.w	b49e <mi_arena.10652+0x31a>
    b31a:	f8dd 8010 	ldr.w	r8, [sp, #16]
    b31e:	af0b      	add	r7, sp, #44	; 0x2c
    b320:	2600      	movs	r6, #0
    b322:	f8d8 001c 	ldr.w	r0, [r8, #28]
    b326:	f8d8 1018 	ldr.w	r1, [r8, #24]
    b32a:	f8d8 2014 	ldr.w	r2, [r8, #20]
    b32e:	f8dd 801c 	ldr.w	r8, [sp, #28]
    b332:	1952      	adds	r2, r2, r5
    b334:	4440      	add	r0, r8
    b336:	f8dd 8010 	ldr.w	r8, [sp, #16]
    b33a:	f8d8 3010 	ldr.w	r3, [r8, #16]
    b33e:	f8dd 8018 	ldr.w	r8, [sp, #24]
    b342:	191b      	adds	r3, r3, r4
    b344:	4441      	add	r1, r8
    b346:	f8dd 8010 	ldr.w	r8, [sp, #16]
    b34a:	f8c8 001c 	str.w	r0, [r8, #28]
    b34e:	f8c8 1018 	str.w	r1, [r8, #24]
    b352:	f8c8 2014 	str.w	r2, [r8, #20]
    b356:	f8c8 3010 	str.w	r3, [r8, #16]
    b35a:	46a8      	mov	r8, r5
    b35c:	9d04      	ldr	r5, [sp, #16]
    b35e:	e002      	b.n	b366 <mi_arena.10652+0x1e2>
    b360:	3710      	adds	r7, #16
    b362:	2e89      	cmp	r6, #137	; 0x89
    b364:	d019      	beq.n	b39a <mi_arena.10652+0x216>
    b366:	f1b6 030a 	subs.w	r3, r6, #10
    b36a:	f8d7 e000 	ldr.w	lr, [r7]
    b36e:	bf18      	it	ne
    b370:	2301      	movne	r3, #1
    b372:	f1be 0f00 	cmp.w	lr, #0
    b376:	bf0c      	ite	eq
    b378:	2300      	moveq	r3, #0
    b37a:	f003 0301 	andne.w	r3, r3, #1
    b37e:	3601      	adds	r6, #1
    b380:	2b00      	cmp	r3, #0
    b382:	d0ed      	beq.n	b360 <mi_arena.10652+0x1dc>
    b384:	e917 100c 	ldmdb	r7, {r2, r3, ip}
    b388:	3710      	adds	r7, #16
    b38a:	6a28      	ldr	r0, [r5, #32]
    b38c:	4934      	ldr	r1, [pc, #208]	; (b460 <mi_arena.10652+0x2dc>)
    b38e:	e88d 5000 	stmia.w	sp, {ip, lr}
    b392:	f011 fc7d 	bl	1cc90 <__fprintf>
    b396:	2e89      	cmp	r6, #137	; 0x89
    b398:	d1e5      	bne.n	b366 <mi_arena.10652+0x1e2>
    b39a:	9e33      	ldr	r6, [sp, #204]	; 0xcc
    b39c:	4645      	mov	r5, r8
    b39e:	2e00      	cmp	r6, #0
    b3a0:	d14d      	bne.n	b43e <mi_arena.10652+0x2ba>
    b3a2:	f8dd 8010 	ldr.w	r8, [sp, #16]
    b3a6:	9b06      	ldr	r3, [sp, #24]
    b3a8:	9a07      	ldr	r2, [sp, #28]
    b3aa:	f8d8 700c 	ldr.w	r7, [r8, #12]
    b3ae:	f8d8 c008 	ldr.w	ip, [r8, #8]
    b3b2:	f8d8 0020 	ldr.w	r0, [r8, #32]
    b3b6:	f8dd 8014 	ldr.w	r8, [sp, #20]
    b3ba:	492a      	ldr	r1, [pc, #168]	; (b464 <mi_arena.10652+0x2e0>)
    b3bc:	f8d8 6444 	ldr.w	r6, [r8, #1092]	; 0x444
    b3c0:	f8d8 e448 	ldr.w	lr, [r8, #1096]	; 0x448
    b3c4:	f8dd 8010 	ldr.w	r8, [sp, #16]
    b3c8:	19bf      	adds	r7, r7, r6
    b3ca:	f8c8 700c 	str.w	r7, [r8, #12]
    b3ce:	eb0c 070e 	add.w	r7, ip, lr
    b3d2:	f8c8 7008 	str.w	r7, [r8, #8]
    b3d6:	9401      	str	r4, [sp, #4]
    b3d8:	9500      	str	r5, [sp, #0]
    b3da:	9602      	str	r6, [sp, #8]
    b3dc:	f8cd e00c 	str.w	lr, [sp, #12]
    b3e0:	f011 fc56 	bl	1cc90 <__fprintf>
    b3e4:	4b20      	ldr	r3, [pc, #128]	; (b468 <mi_arena.10652+0x2e4>)
    b3e6:	9c05      	ldr	r4, [sp, #20]
    b3e8:	429c      	cmp	r4, r3
    b3ea:	d045      	beq.n	b478 <mi_arena.10652+0x2f4>
    b3ec:	6b24      	ldr	r4, [r4, #48]	; 0x30
    b3ee:	491f      	ldr	r1, [pc, #124]	; (b46c <mi_arena.10652+0x2e8>)
    b3f0:	f8d8 0020 	ldr.w	r0, [r8, #32]
    b3f4:	0d24      	lsrs	r4, r4, #20
    b3f6:	0524      	lsls	r4, r4, #20
    b3f8:	68a2      	ldr	r2, [r4, #8]
    b3fa:	68e3      	ldr	r3, [r4, #12]
    b3fc:	f011 fc48 	bl	1cc90 <__fprintf>
    b400:	68a1      	ldr	r1, [r4, #8]
    b402:	68e3      	ldr	r3, [r4, #12]
    b404:	f8d8 0004 	ldr.w	r0, [r8, #4]
    b408:	f8d8 2000 	ldr.w	r2, [r8]
    b40c:	1841      	adds	r1, r0, r1
    b40e:	f8c8 1004 	str.w	r1, [r8, #4]
    b412:	18d3      	adds	r3, r2, r3
    b414:	f8c8 3000 	str.w	r3, [r8]
    b418:	f8dd 8010 	ldr.w	r8, [sp, #16]
    b41c:	4814      	ldr	r0, [pc, #80]	; (b470 <mi_arena.10652+0x2ec>)
    b41e:	f8d8 1020 	ldr.w	r1, [r8, #32]
    b422:	f012 f985 	bl	1d730 <_IO_fputs>
    b426:	b02d      	add	sp, #180	; 0xb4
    b428:	f50d 6d00 	add.w	sp, sp, #2048	; 0x800
    b42c:	e8bd 8ff0 	ldmia.w	sp!, {r4, r5, r6, r7, r8, r9, sl, fp, pc}
    b430:	461a      	mov	r2, r3
    b432:	604b      	str	r3, [r1, #4]
    b434:	f841 3c04 	str.w	r3, [r1, #-4]
    b438:	f841 3c08 	str.w	r3, [r1, #-8]
    b43c:	e6ef      	b.n	b21e <mi_arena.10652+0x9a>
    b43e:	aa30      	add	r2, sp, #192	; 0xc0
    b440:	f8dd 8010 	ldr.w	r8, [sp, #16]
    b444:	490b      	ldr	r1, [pc, #44]	; (b474 <mi_arena.10652+0x2f0>)
    b446:	ca8c      	ldmia	r2, {r2, r3, r7}
    b448:	f8d8 0020 	ldr.w	r0, [r8, #32]
    b44c:	9601      	str	r6, [sp, #4]
    b44e:	9700      	str	r7, [sp, #0]
    b450:	f011 fc1e 	bl	1cc90 <__fprintf>
    b454:	e7a5      	b.n	b3a2 <mi_arena.10652+0x21e>
    b456:	461c      	mov	r4, r3
    b458:	461d      	mov	r5, r3
    b45a:	e707      	b.n	b26c <mi_arena.10652+0xe8>
    b45c:	00048cf0 	.word	0x00048cf0
    b460:	00048d08 	.word	0x00048d08
    b464:	00048d7c 	.word	0x00048d7c
    b468:	00067c40 	.word	0x00067c40
    b46c:	00048e24 	.word	0x00048e24
    b470:	00048e6c 	.word	0x00048e6c
    b474:	00048d40 	.word	0x00048d40
    b478:	f8dd 8014 	ldr.w	r8, [sp, #20]
    b47c:	9c04      	ldr	r4, [sp, #16]
    b47e:	4911      	ldr	r1, [pc, #68]	; (b4c4 <mi_arena.10652+0x340>)
    b480:	f8d8 2444 	ldr.w	r2, [r8, #1092]	; 0x444
    b484:	6a20      	ldr	r0, [r4, #32]
    b486:	4613      	mov	r3, r2
    b488:	f011 fc02 	bl	1cc90 <__fprintf>
    b48c:	f8d8 3444 	ldr.w	r3, [r8, #1092]	; 0x444
    b490:	6861      	ldr	r1, [r4, #4]
    b492:	6822      	ldr	r2, [r4, #0]
    b494:	18c9      	adds	r1, r1, r3
    b496:	6061      	str	r1, [r4, #4]
    b498:	18d3      	adds	r3, r2, r3
    b49a:	6023      	str	r3, [r4, #0]
    b49c:	e7bc      	b.n	b418 <mi_arena.10652+0x294>
    b49e:	ee1d 1f70 	mrc	15, 0, r1, cr13, cr0, {3}
    b4a2:	2201      	movs	r2, #1
    b4a4:	f5a1 6198 	sub.w	r1, r1, #1216	; 0x4c0
    b4a8:	9805      	ldr	r0, [sp, #20]
    b4aa:	2300      	movs	r3, #0
    b4ac:	f04f 0cf0 	mov.w	ip, #240	; 0xf0
    b4b0:	6889      	ldr	r1, [r1, #8]
    b4b2:	4311      	orrs	r1, r2
    b4b4:	f7fd fcb4 	bl	8e20 <__libc_do_syscall>
    b4b8:	e72f      	b.n	b31a <mi_arena.10652+0x196>
    b4ba:	9805      	ldr	r0, [sp, #20]
    b4bc:	f006 f800 	bl	114c0 <__lll_lock_wait_private>
    b4c0:	e686      	b.n	b1d0 <mi_arena.10652+0x4c>
    b4c2:	bf00      	nop
    b4c4:	00048e24 	.word	0x00048e24

0000b4c8 <arena_get2>:
    b4c8:	e92d 41f0 	stmdb	sp!, {r4, r5, r6, r7, r8, lr}
    b4cc:	4603      	mov	r3, r0
    b4ce:	b084      	sub	sp, #16
    b4d0:	2800      	cmp	r0, #0
    b4d2:	d076      	beq.n	b5c2 <arena_get2+0xfa>
    b4d4:	f8d0 4440 	ldr.w	r4, [r0, #1088]	; 0x440
    b4d8:	2c00      	cmp	r4, #0
    b4da:	f000 80fc 	beq.w	b6d6 <arena_get2+0x20e>
    b4de:	4a9c      	ldr	r2, [pc, #624]	; (b750 <arena_get2+0x288>)
    b4e0:	f04f 0c00 	mov.w	ip, #0
    b4e4:	4667      	mov	r7, ip
    b4e6:	4690      	mov	r8, r2
    b4e8:	2601      	movs	r6, #1
    b4ea:	f3bf 8f5f 	dmb	sy
    b4ee:	e854 0f00 	ldrex	r0, [r4]
    b4f2:	42b8      	cmp	r0, r7
    b4f4:	d105      	bne.n	b502 <arena_get2+0x3a>
    b4f6:	e844 6000 	strex	r0, r6, [r4]
    b4fa:	f090 0f00 	teq	r0, #0
    b4fe:	d1f6      	bne.n	b4ee <arena_get2+0x26>
    b500:	4638      	mov	r0, r7
    b502:	f3bf 8f5f 	dmb	sy
    b506:	2800      	cmp	r0, #0
    b508:	d033      	beq.n	b572 <arena_get2+0xaa>
    b50a:	f8d4 4440 	ldr.w	r4, [r4, #1088]	; 0x440
    b50e:	429c      	cmp	r4, r3
    b510:	d1ea      	bne.n	b4e8 <arena_get2+0x20>
    b512:	4d8f      	ldr	r5, [pc, #572]	; (b750 <arena_get2+0x288>)
    b514:	f1bc 0f00 	cmp.w	ip, #0
    b518:	d156      	bne.n	b5c8 <arena_get2+0x100>
    b51a:	f3bf 8f5f 	dmb	sy
    b51e:	e852 0f00 	ldrex	r0, [r2]
    b522:	4560      	cmp	r0, ip
    b524:	d105      	bne.n	b532 <arena_get2+0x6a>
    b526:	e842 6000 	strex	r0, r6, [r2]
    b52a:	f090 0f00 	teq	r0, #0
    b52e:	d1f6      	bne.n	b51e <arena_get2+0x56>
    b530:	4660      	mov	r0, ip
    b532:	f3bf 8f5f 	dmb	sy
    b536:	2800      	cmp	r0, #0
    b538:	d046      	beq.n	b5c8 <arena_get2+0x100>
    b53a:	f3bf 8f5f 	dmb	sy
    b53e:	e858 0f00 	ldrex	r0, [r8]
    b542:	4560      	cmp	r0, ip
    b544:	d105      	bne.n	b552 <arena_get2+0x8a>
    b546:	e848 6000 	strex	r0, r6, [r8]
    b54a:	f090 0f00 	teq	r0, #0
    b54e:	d1f6      	bne.n	b53e <arena_get2+0x76>
    b550:	4660      	mov	r0, ip
    b552:	f3bf 8f5f 	dmb	sy
    b556:	46b4      	mov	ip, r6
    b558:	2800      	cmp	r0, #0
    b55a:	d0c5      	beq.n	b4e8 <arena_get2+0x20>
    b55c:	4628      	mov	r0, r5
    b55e:	9103      	str	r1, [sp, #12]
    b560:	9202      	str	r2, [sp, #8]
    b562:	9301      	str	r3, [sp, #4]
    b564:	f005 ffac 	bl	114c0 <__lll_lock_wait_private>
    b568:	46b4      	mov	ip, r6
    b56a:	9903      	ldr	r1, [sp, #12]
    b56c:	9a02      	ldr	r2, [sp, #8]
    b56e:	9b01      	ldr	r3, [sp, #4]
    b570:	e7ba      	b.n	b4e8 <arena_get2+0x20>
    b572:	f1bc 0f00 	cmp.w	ip, #0
    b576:	d021      	beq.n	b5bc <arena_get2+0xf4>
    b578:	4e76      	ldr	r6, [pc, #472]	; (b754 <arena_get2+0x28c>)
    b57a:	f506 658b 	add.w	r5, r6, #1112	; 0x458
    b57e:	f8d6 3458 	ldr.w	r3, [r6, #1112]	; 0x458
    b582:	f3bf 8f5f 	dmb	sy
    b586:	e855 2f00 	ldrex	r2, [r5]
    b58a:	429a      	cmp	r2, r3
    b58c:	d105      	bne.n	b59a <arena_get2+0xd2>
    b58e:	e845 0200 	strex	r2, r0, [r5]
    b592:	f092 0f00 	teq	r2, #0
    b596:	d1f6      	bne.n	b586 <arena_get2+0xbe>
    b598:	461a      	mov	r2, r3
    b59a:	f3bf 8f5f 	dmb	sy
    b59e:	4293      	cmp	r3, r2
    b5a0:	d1ed      	bne.n	b57e <arena_get2+0xb6>
    b5a2:	2b01      	cmp	r3, #1
    b5a4:	ee1d 5f70 	mrc	15, 0, r5, cr13, cr0, {3}
    b5a8:	f300 80c0 	bgt.w	b72c <arena_get2+0x264>
    b5ac:	4b6a      	ldr	r3, [pc, #424]	; (b758 <arena_get2+0x290>)
    b5ae:	447b      	add	r3, pc
    b5b0:	681b      	ldr	r3, [r3, #0]
    b5b2:	50ec      	str	r4, [r5, r3]
    b5b4:	4620      	mov	r0, r4
    b5b6:	b004      	add	sp, #16
    b5b8:	e8bd 81f0 	ldmia.w	sp!, {r4, r5, r6, r7, r8, pc}
    b5bc:	ee1d 5f70 	mrc	15, 0, r5, cr13, cr0, {3}
    b5c0:	e7f4      	b.n	b5ac <arena_get2+0xe4>
    b5c2:	4c64      	ldr	r4, [pc, #400]	; (b754 <arena_get2+0x28c>)
    b5c4:	4623      	mov	r3, r4
    b5c6:	e78a      	b.n	b4de <arena_get2+0x16>
    b5c8:	4e62      	ldr	r6, [pc, #392]	; (b754 <arena_get2+0x28c>)
    b5ca:	f501 608c 	add.w	r0, r1, #1120	; 0x460
    b5ce:	3004      	adds	r0, #4
    b5d0:	f8d6 1464 	ldr.w	r1, [r6, #1124]	; 0x464
    b5d4:	f7ff fd38 	bl	b048 <new_heap>
    b5d8:	4607      	mov	r7, r0
    b5da:	2800      	cmp	r0, #0
    b5dc:	f000 809a 	beq.w	b714 <arena_get2+0x24c>
    b5e0:	f107 0310 	add.w	r3, r7, #16
    b5e4:	4638      	mov	r0, r7
    b5e6:	f06f 0107 	mvn.w	r1, #7
    b5ea:	f840 3b48 	str.w	r3, [r0], #72
    b5ee:	461c      	mov	r4, r3
    b5f0:	1842      	adds	r2, r0, r1
    b5f2:	3108      	adds	r1, #8
    b5f4:	f5b1 7f7c 	cmp.w	r1, #1008	; 0x3f0
    b5f8:	60d2      	str	r2, [r2, #12]
    b5fa:	6092      	str	r2, [r2, #8]
    b5fc:	d1f8      	bne.n	b5f0 <arena_get2+0x128>
    b5fe:	42b3      	cmp	r3, r6
    b600:	f000 8082 	beq.w	b708 <arena_get2+0x240>
    b604:	697a      	ldr	r2, [r7, #20]
    b606:	f042 0c02 	orr.w	ip, r2, #2
    b60a:	f507 608c 	add.w	r0, r7, #1120	; 0x460
    b60e:	68b9      	ldr	r1, [r7, #8]
    b610:	f507 628a 	add.w	r2, r7, #1104	; 0x450
    b614:	3004      	adds	r0, #4
    b616:	320c      	adds	r2, #12
    b618:	f8d6 8498 	ldr.w	r8, [r6, #1176]	; 0x498
    b61c:	f010 0007 	ands.w	r0, r0, #7
    b620:	f8c7 1458 	str.w	r1, [r7, #1112]	; 0x458
    b624:	bf18      	it	ne
    b626:	f1c0 0008 	rsbne	r0, r0, #8
    b62a:	f8c7 1454 	str.w	r1, [r7, #1108]	; 0x454
    b62e:	bf18      	it	ne
    b630:	1812      	addne	r2, r2, r0
    b632:	4488      	add	r8, r1
    b634:	4849      	ldr	r0, [pc, #292]	; (b75c <arena_get2+0x294>)
    b636:	1879      	adds	r1, r7, r1
    b638:	1a89      	subs	r1, r1, r2
    b63a:	643a      	str	r2, [r7, #64]	; 0x40
    b63c:	f04c 0c01 	orr.w	ip, ip, #1
    b640:	f8c6 8498 	str.w	r8, [r6, #1176]	; 0x498
    b644:	f8c7 c014 	str.w	ip, [r7, #20]
    b648:	f041 0101 	orr.w	r1, r1, #1
    b64c:	6051      	str	r1, [r2, #4]
    b64e:	ee1d 1f70 	mrc	15, 0, r1, cr13, cr0, {3}
    b652:	4478      	add	r0, pc
    b654:	6800      	ldr	r0, [r0, #0]
    b656:	2200      	movs	r2, #0
    b658:	613a      	str	r2, [r7, #16]
    b65a:	500b      	str	r3, [r1, r0]
    b65c:	2001      	movs	r0, #1
    b65e:	f3bf 8f5f 	dmb	sy
    b662:	e853 1f00 	ldrex	r1, [r3]
    b666:	4291      	cmp	r1, r2
    b668:	d105      	bne.n	b676 <arena_get2+0x1ae>
    b66a:	e843 0100 	strex	r1, r0, [r3]
    b66e:	f091 0f00 	teq	r1, #0
    b672:	d1f6      	bne.n	b662 <arena_get2+0x19a>
    b674:	4611      	mov	r1, r2
    b676:	f3bf 8f5f 	dmb	sy
    b67a:	2900      	cmp	r1, #0
    b67c:	d162      	bne.n	b744 <arena_get2+0x27c>
    b67e:	f8d6 2440 	ldr.w	r2, [r6, #1088]	; 0x440
    b682:	f8c7 2450 	str.w	r2, [r7, #1104]	; 0x450
    b686:	f3bf 8f5f 	dmb	sy
    b68a:	f8c6 3440 	str.w	r3, [r6, #1088]	; 0x440
    b68e:	2200      	movs	r2, #0
    b690:	f8d6 3458 	ldr.w	r3, [r6, #1112]	; 0x458
    b694:	f3bf 8f5f 	dmb	sy
    b698:	e855 1f00 	ldrex	r1, [r5]
    b69c:	4299      	cmp	r1, r3
    b69e:	d105      	bne.n	b6ac <arena_get2+0x1e4>
    b6a0:	e845 2100 	strex	r1, r2, [r5]
    b6a4:	f091 0f00 	teq	r1, #0
    b6a8:	d1f6      	bne.n	b698 <arena_get2+0x1d0>
    b6aa:	4619      	mov	r1, r3
    b6ac:	f3bf 8f5f 	dmb	sy
    b6b0:	428b      	cmp	r3, r1
    b6b2:	d1ed      	bne.n	b690 <arena_get2+0x1c8>
    b6b4:	2b01      	cmp	r3, #1
    b6b6:	f77f af7d 	ble.w	b5b4 <arena_get2+0xec>
    b6ba:	ee1d 1f70 	mrc	15, 0, r1, cr13, cr0, {3}
    b6be:	2201      	movs	r2, #1
    b6c0:	f5a1 6198 	sub.w	r1, r1, #1216	; 0x4c0
    b6c4:	4822      	ldr	r0, [pc, #136]	; (b750 <arena_get2+0x288>)
    b6c6:	2300      	movs	r3, #0
    b6c8:	f04f 0cf0 	mov.w	ip, #240	; 0xf0
    b6cc:	6889      	ldr	r1, [r1, #8]
    b6ce:	4311      	orrs	r1, r2
    b6d0:	f7fd fba6 	bl	8e20 <__libc_do_syscall>
    b6d4:	e76e      	b.n	b5b4 <arena_get2+0xec>
    b6d6:	4e1f      	ldr	r6, [pc, #124]	; (b754 <arena_get2+0x28c>)
    b6d8:	2201      	movs	r2, #1
    b6da:	f3bf 8f5f 	dmb	sy
    b6de:	e856 3f00 	ldrex	r3, [r6]
    b6e2:	42a3      	cmp	r3, r4
    b6e4:	d105      	bne.n	b6f2 <arena_get2+0x22a>
    b6e6:	e846 2300 	strex	r3, r2, [r6]
    b6ea:	f093 0f00 	teq	r3, #0
    b6ee:	d1f6      	bne.n	b6de <arena_get2+0x216>
    b6f0:	4623      	mov	r3, r4
    b6f2:	f3bf 8f5f 	dmb	sy
    b6f6:	4634      	mov	r4, r6
    b6f8:	2b00      	cmp	r3, #0
    b6fa:	f43f af5b 	beq.w	b5b4 <arena_get2+0xec>
    b6fe:	4630      	mov	r0, r6
    b700:	4634      	mov	r4, r6
    b702:	f005 fedd 	bl	114c0 <__lll_lock_wait_private>
    b706:	e755      	b.n	b5b4 <arena_get2+0xec>
    b708:	2240      	movs	r2, #64	; 0x40
    b70a:	f8d7 c014 	ldr.w	ip, [r7, #20]
    b70e:	f8c3 2494 	str.w	r2, [r3, #1172]	; 0x494
    b712:	e77a      	b.n	b60a <arena_get2+0x142>
    b714:	f240 4064 	movw	r0, #1124	; 0x464
    b718:	f8d6 1464 	ldr.w	r1, [r6, #1124]	; 0x464
    b71c:	f7ff fc94 	bl	b048 <new_heap>
    b720:	4607      	mov	r7, r0
    b722:	4604      	mov	r4, r0
    b724:	2800      	cmp	r0, #0
    b726:	f47f af5b 	bne.w	b5e0 <arena_get2+0x118>
    b72a:	e7b0      	b.n	b68e <arena_get2+0x1c6>
    b72c:	f5a5 6198 	sub.w	r1, r5, #1216	; 0x4c0
    b730:	2201      	movs	r2, #1
    b732:	4807      	ldr	r0, [pc, #28]	; (b750 <arena_get2+0x288>)
    b734:	2300      	movs	r3, #0
    b736:	6889      	ldr	r1, [r1, #8]
    b738:	f04f 0cf0 	mov.w	ip, #240	; 0xf0
    b73c:	4311      	orrs	r1, r2
    b73e:	f7fd fb6f 	bl	8e20 <__libc_do_syscall>
    b742:	e733      	b.n	b5ac <arena_get2+0xe4>
    b744:	4618      	mov	r0, r3
    b746:	9301      	str	r3, [sp, #4]
    b748:	f005 feba 	bl	114c0 <__lll_lock_wait_private>
    b74c:	9b01      	ldr	r3, [sp, #4]
    b74e:	e796      	b.n	b67e <arena_get2+0x1b6>
    b750:	00068098 	.word	0x00068098
    b754:	00067c40 	.word	0x00067c40
    b758:	0005b64a 	.word	0x0005b64a
    b75c:	0005b5a6 	.word	0x0005b5a6

0000b760 <mremap_chunk>:
    b760:	e92d 41f0 	stmdb	sp!, {r4, r5, r6, r7, r8, lr}
    b764:	e890 0030 	ldmia.w	r0, {r4, r5}
    b768:	4e29      	ldr	r6, [pc, #164]	; (b810 <mremap_chunk+0xb0>)
    b76a:	07af      	lsls	r7, r5, #30
    b76c:	f8d6 347c 	ldr.w	r3, [r6, #1148]	; 0x47c
    b770:	d538      	bpl.n	b7e4 <mremap_chunk+0x84>
    b772:	f025 0507 	bic.w	r5, r5, #7
    b776:	3b01      	subs	r3, #1
    b778:	192d      	adds	r5, r5, r4
    b77a:	ea15 0803 	ands.w	r8, r5, r3
    b77e:	d12a      	bne.n	b7d6 <mremap_chunk+0x76>
    b780:	1d27      	adds	r7, r4, #4
    b782:	18ff      	adds	r7, r7, r3
    b784:	187f      	adds	r7, r7, r1
    b786:	ea27 0703 	bic.w	r7, r7, r3
    b78a:	42bd      	cmp	r5, r7
    b78c:	d021      	beq.n	b7d2 <mremap_chunk+0x72>
    b78e:	2301      	movs	r3, #1
    b790:	4629      	mov	r1, r5
    b792:	1b00      	subs	r0, r0, r4
    b794:	463a      	mov	r2, r7
    b796:	f005 ede4 	blx	11360 <__mremap>
    b79a:	1c41      	adds	r1, r0, #1
    b79c:	4603      	mov	r3, r0
    b79e:	d017      	beq.n	b7d0 <mremap_chunk+0x70>
    b7a0:	1900      	adds	r0, r0, r4
    b7a2:	0742      	lsls	r2, r0, #29
    b7a4:	d12c      	bne.n	b800 <mremap_chunk+0xa0>
    b7a6:	591b      	ldr	r3, [r3, r4]
    b7a8:	42a3      	cmp	r3, r4
    b7aa:	d122      	bne.n	b7f2 <mremap_chunk+0x92>
    b7ac:	f8d6 1480 	ldr.w	r1, [r6, #1152]	; 0x480
    b7b0:	1afb      	subs	r3, r7, r3
    b7b2:	f8d6 2484 	ldr.w	r2, [r6, #1156]	; 0x484
    b7b6:	f043 0302 	orr.w	r3, r3, #2
    b7ba:	1b4d      	subs	r5, r1, r5
    b7bc:	6043      	str	r3, [r0, #4]
    b7be:	19ef      	adds	r7, r5, r7
    b7c0:	f8c6 7480 	str.w	r7, [r6, #1152]	; 0x480
    b7c4:	4297      	cmp	r7, r2
    b7c6:	d904      	bls.n	b7d2 <mremap_chunk+0x72>
    b7c8:	f8c6 7484 	str.w	r7, [r6, #1156]	; 0x484
    b7cc:	e8bd 81f0 	ldmia.w	sp!, {r4, r5, r6, r7, r8, pc}
    b7d0:	4640      	mov	r0, r8
    b7d2:	e8bd 81f0 	ldmia.w	sp!, {r4, r5, r6, r7, r8, pc}
    b7d6:	480f      	ldr	r0, [pc, #60]	; (b814 <mremap_chunk+0xb4>)
    b7d8:	f640 52f6 	movw	r2, #3574	; 0xdf6
    b7dc:	490e      	ldr	r1, [pc, #56]	; (b818 <mremap_chunk+0xb8>)
    b7de:	4b0f      	ldr	r3, [pc, #60]	; (b81c <mremap_chunk+0xbc>)
    b7e0:	f7ff fc04 	bl	afec <__malloc_assert>
    b7e4:	480e      	ldr	r0, [pc, #56]	; (b820 <mremap_chunk+0xc0>)
    b7e6:	f640 52f1 	movw	r2, #3569	; 0xdf1
    b7ea:	490b      	ldr	r1, [pc, #44]	; (b818 <mremap_chunk+0xb8>)
    b7ec:	4b0b      	ldr	r3, [pc, #44]	; (b81c <mremap_chunk+0xbc>)
    b7ee:	f7ff fbfd 	bl	afec <__malloc_assert>
    b7f2:	480c      	ldr	r0, [pc, #48]	; (b824 <mremap_chunk+0xc4>)
    b7f4:	f640 6208 	movw	r2, #3592	; 0xe08
    b7f8:	4907      	ldr	r1, [pc, #28]	; (b818 <mremap_chunk+0xb8>)
    b7fa:	4b08      	ldr	r3, [pc, #32]	; (b81c <mremap_chunk+0xbc>)
    b7fc:	f7ff fbf6 	bl	afec <__malloc_assert>
    b800:	4809      	ldr	r0, [pc, #36]	; (b828 <mremap_chunk+0xc8>)
    b802:	f640 6206 	movw	r2, #3590	; 0xe06
    b806:	4904      	ldr	r1, [pc, #16]	; (b818 <mremap_chunk+0xb8>)
    b808:	4b04      	ldr	r3, [pc, #16]	; (b81c <mremap_chunk+0xbc>)
    b80a:	f7ff fbef 	bl	afec <__malloc_assert>
    b80e:	bf00      	nop
    b810:	00067c40 	.word	0x00067c40
    b814:	00048e98 	.word	0x00048e98
    b818:	00048e8c 	.word	0x00048e8c
    b81c:	0004a14c 	.word	0x0004a14c
    b820:	00048e78 	.word	0x00048e78
    b824:	00048f28 	.word	0x00048f28
    b828:	00048ec4 	.word	0x00048ec4

0000b82c <ptmalloc_lock_all>:
    b82c:	4b39      	ldr	r3, [pc, #228]	; (b914 <ptmalloc_lock_all+0xe8>)
    b82e:	e92d 41f0 	stmdb	sp!, {r4, r5, r6, r7, r8, lr}
    b832:	681b      	ldr	r3, [r3, #0]
    b834:	2b00      	cmp	r3, #0
    b836:	dd48      	ble.n	b8ca <ptmalloc_lock_all+0x9e>
    b838:	4837      	ldr	r0, [pc, #220]	; (b918 <ptmalloc_lock_all+0xec>)
    b83a:	2300      	movs	r3, #0
    b83c:	2201      	movs	r2, #1
    b83e:	f3bf 8f5f 	dmb	sy
    b842:	e850 1f00 	ldrex	r1, [r0]
    b846:	4299      	cmp	r1, r3
    b848:	d105      	bne.n	b856 <ptmalloc_lock_all+0x2a>
    b84a:	e840 2100 	strex	r1, r2, [r0]
    b84e:	f091 0f00 	teq	r1, #0
    b852:	d1f6      	bne.n	b842 <ptmalloc_lock_all+0x16>
    b854:	4619      	mov	r1, r3
    b856:	f3bf 8f5f 	dmb	sy
    b85a:	2900      	cmp	r1, #0
    b85c:	d137      	bne.n	b8ce <ptmalloc_lock_all+0xa2>
    b85e:	ee1d 8f70 	mrc	15, 0, r8, cr13, cr0, {3}
    b862:	4e2e      	ldr	r6, [pc, #184]	; (b91c <ptmalloc_lock_all+0xf0>)
    b864:	2500      	movs	r5, #0
    b866:	2701      	movs	r7, #1
    b868:	4634      	mov	r4, r6
    b86a:	f3bf 8f5f 	dmb	sy
    b86e:	e854 3f00 	ldrex	r3, [r4]
    b872:	42ab      	cmp	r3, r5
    b874:	d105      	bne.n	b882 <ptmalloc_lock_all+0x56>
    b876:	e844 7300 	strex	r3, r7, [r4]
    b87a:	f093 0f00 	teq	r3, #0
    b87e:	d1f6      	bne.n	b86e <ptmalloc_lock_all+0x42>
    b880:	462b      	mov	r3, r5
    b882:	f3bf 8f5f 	dmb	sy
    b886:	2b00      	cmp	r3, #0
    b888:	d140      	bne.n	b90c <ptmalloc_lock_all+0xe0>
    b88a:	f8d4 4440 	ldr.w	r4, [r4, #1088]	; 0x440
    b88e:	42b4      	cmp	r4, r6
    b890:	d1eb      	bne.n	b86a <ptmalloc_lock_all+0x3e>
    b892:	4a23      	ldr	r2, [pc, #140]	; (b920 <ptmalloc_lock_all+0xf4>)
    b894:	4923      	ldr	r1, [pc, #140]	; (b924 <ptmalloc_lock_all+0xf8>)
    b896:	4b24      	ldr	r3, [pc, #144]	; (b928 <ptmalloc_lock_all+0xfc>)
    b898:	6810      	ldr	r0, [r2, #0]
    b89a:	680c      	ldr	r4, [r1, #0]
    b89c:	f8c6 0454 	str.w	r0, [r6, #1108]	; 0x454
    b8a0:	4822      	ldr	r0, [pc, #136]	; (b92c <ptmalloc_lock_all+0x100>)
    b8a2:	f8c6 4450 	str.w	r4, [r6, #1104]	; 0x450
    b8a6:	6008      	str	r0, [r1, #0]
    b8a8:	4921      	ldr	r1, [pc, #132]	; (b930 <ptmalloc_lock_all+0x104>)
    b8aa:	6011      	str	r1, [r2, #0]
    b8ac:	447b      	add	r3, pc
    b8ae:	681b      	ldr	r3, [r3, #0]
    b8b0:	f04f 31ff 	mov.w	r1, #4294967295	; 0xffffffff
    b8b4:	f858 2003 	ldr.w	r2, [r8, r3]
    b8b8:	f848 1003 	str.w	r1, [r8, r3]
    b8bc:	f8c6 244c 	str.w	r2, [r6, #1100]	; 0x44c
    b8c0:	f8d6 345c 	ldr.w	r3, [r6, #1116]	; 0x45c
    b8c4:	3301      	adds	r3, #1
    b8c6:	f8c6 345c 	str.w	r3, [r6, #1116]	; 0x45c
    b8ca:	e8bd 81f0 	ldmia.w	sp!, {r4, r5, r6, r7, r8, pc}
    b8ce:	4919      	ldr	r1, [pc, #100]	; (b934 <ptmalloc_lock_all+0x108>)
    b8d0:	ee1d 8f70 	mrc	15, 0, r8, cr13, cr0, {3}
    b8d4:	4479      	add	r1, pc
    b8d6:	6809      	ldr	r1, [r1, #0]
    b8d8:	f858 1001 	ldr.w	r1, [r8, r1]
    b8dc:	3101      	adds	r1, #1
    b8de:	bf08      	it	eq
    b8e0:	f5a0 668b 	subeq.w	r6, r0, #1112	; 0x458
    b8e4:	d0ec      	beq.n	b8c0 <ptmalloc_lock_all+0x94>
    b8e6:	f3bf 8f5f 	dmb	sy
    b8ea:	e850 1f00 	ldrex	r1, [r0]
    b8ee:	4299      	cmp	r1, r3
    b8f0:	d105      	bne.n	b8fe <ptmalloc_lock_all+0xd2>
    b8f2:	e840 2100 	strex	r1, r2, [r0]
    b8f6:	f091 0f00 	teq	r1, #0
    b8fa:	d1f6      	bne.n	b8ea <ptmalloc_lock_all+0xbe>
    b8fc:	4619      	mov	r1, r3
    b8fe:	f3bf 8f5f 	dmb	sy
    b902:	2900      	cmp	r1, #0
    b904:	d0ad      	beq.n	b862 <ptmalloc_lock_all+0x36>
    b906:	f005 fddb 	bl	114c0 <__lll_lock_wait_private>
    b90a:	e7aa      	b.n	b862 <ptmalloc_lock_all+0x36>
    b90c:	4620      	mov	r0, r4
    b90e:	f005 fdd7 	bl	114c0 <__lll_lock_wait_private>
    b912:	e7ba      	b.n	b88a <ptmalloc_lock_all+0x5e>
    b914:	00067090 	.word	0x00067090
    b918:	00068098 	.word	0x00068098
    b91c:	00067c40 	.word	0x00067c40
    b920:	00068108 	.word	0x00068108
    b924:	000670a4 	.word	0x000670a4
    b928:	0005b34c 	.word	0x0005b34c
    b92c:	0000e4e5 	.word	0x0000e4e5
    b930:	0000c52d 	.word	0x0000c52d
    b934:	0005b324 	.word	0x0005b324

0000b938 <ptmalloc_unlock_all>:
    b938:	4b33      	ldr	r3, [pc, #204]	; (ba08 <ptmalloc_unlock_all+0xd0>)
    b93a:	e92d 41f0 	stmdb	sp!, {r4, r5, r6, r7, r8, lr}
    b93e:	681b      	ldr	r3, [r3, #0]
    b940:	2b00      	cmp	r3, #0
    b942:	dd47      	ble.n	b9d4 <ptmalloc_unlock_all+0x9c>
    b944:	4d31      	ldr	r5, [pc, #196]	; (ba0c <ptmalloc_unlock_all+0xd4>)
    b946:	f8d5 645c 	ldr.w	r6, [r5, #1116]	; 0x45c
    b94a:	3e01      	subs	r6, #1
    b94c:	f8c5 645c 	str.w	r6, [r5, #1116]	; 0x45c
    b950:	2e00      	cmp	r6, #0
    b952:	d13f      	bne.n	b9d4 <ptmalloc_unlock_all+0x9c>
    b954:	4b2e      	ldr	r3, [pc, #184]	; (ba10 <ptmalloc_unlock_all+0xd8>)
    b956:	ee1d 7f70 	mrc	15, 0, r7, cr13, cr0, {3}
    b95a:	f8d5 044c 	ldr.w	r0, [r5, #1100]	; 0x44c
    b95e:	f5a7 6898 	sub.w	r8, r7, #1216	; 0x4c0
    b962:	447b      	add	r3, pc
    b964:	681b      	ldr	r3, [r3, #0]
    b966:	f8d5 1450 	ldr.w	r1, [r5, #1104]	; 0x450
    b96a:	f8d5 2454 	ldr.w	r2, [r5, #1108]	; 0x454
    b96e:	462c      	mov	r4, r5
    b970:	50f8      	str	r0, [r7, r3]
    b972:	4b28      	ldr	r3, [pc, #160]	; (ba14 <ptmalloc_unlock_all+0xdc>)
    b974:	6019      	str	r1, [r3, #0]
    b976:	4b28      	ldr	r3, [pc, #160]	; (ba18 <ptmalloc_unlock_all+0xe0>)
    b978:	601a      	str	r2, [r3, #0]
    b97a:	6823      	ldr	r3, [r4, #0]
    b97c:	f3bf 8f5f 	dmb	sy
    b980:	e854 2f00 	ldrex	r2, [r4]
    b984:	429a      	cmp	r2, r3
    b986:	d105      	bne.n	b994 <ptmalloc_unlock_all+0x5c>
    b988:	e844 6200 	strex	r2, r6, [r4]
    b98c:	f092 0f00 	teq	r2, #0
    b990:	d1f6      	bne.n	b980 <ptmalloc_unlock_all+0x48>
    b992:	461a      	mov	r2, r3
    b994:	f3bf 8f5f 	dmb	sy
    b998:	4293      	cmp	r3, r2
    b99a:	d1ee      	bne.n	b97a <ptmalloc_unlock_all+0x42>
    b99c:	2b01      	cmp	r3, #1
    b99e:	dc27      	bgt.n	b9f0 <ptmalloc_unlock_all+0xb8>
    b9a0:	f8d4 4440 	ldr.w	r4, [r4, #1088]	; 0x440
    b9a4:	42ac      	cmp	r4, r5
    b9a6:	d1e8      	bne.n	b97a <ptmalloc_unlock_all+0x42>
    b9a8:	4a1c      	ldr	r2, [pc, #112]	; (ba1c <ptmalloc_unlock_all+0xe4>)
    b9aa:	2000      	movs	r0, #0
    b9ac:	f8d5 3458 	ldr.w	r3, [r5, #1112]	; 0x458
    b9b0:	f3bf 8f5f 	dmb	sy
    b9b4:	e852 1f00 	ldrex	r1, [r2]
    b9b8:	4299      	cmp	r1, r3
    b9ba:	d105      	bne.n	b9c8 <ptmalloc_unlock_all+0x90>
    b9bc:	e842 0100 	strex	r1, r0, [r2]
    b9c0:	f091 0f00 	teq	r1, #0
    b9c4:	d1f6      	bne.n	b9b4 <ptmalloc_unlock_all+0x7c>
    b9c6:	4619      	mov	r1, r3
    b9c8:	f3bf 8f5f 	dmb	sy
    b9cc:	428b      	cmp	r3, r1
    b9ce:	d1ed      	bne.n	b9ac <ptmalloc_unlock_all+0x74>
    b9d0:	2b01      	cmp	r3, #1
    b9d2:	dc01      	bgt.n	b9d8 <ptmalloc_unlock_all+0xa0>
    b9d4:	e8bd 81f0 	ldmia.w	sp!, {r4, r5, r6, r7, r8, pc}
    b9d8:	f5a7 6798 	sub.w	r7, r7, #1216	; 0x4c0
    b9dc:	2201      	movs	r2, #1
    b9de:	480f      	ldr	r0, [pc, #60]	; (ba1c <ptmalloc_unlock_all+0xe4>)
    b9e0:	2300      	movs	r3, #0
    b9e2:	68b9      	ldr	r1, [r7, #8]
    b9e4:	f04f 0cf0 	mov.w	ip, #240	; 0xf0
    b9e8:	4311      	orrs	r1, r2
    b9ea:	f7fd fa19 	bl	8e20 <__libc_do_syscall>
    b9ee:	e7f1      	b.n	b9d4 <ptmalloc_unlock_all+0x9c>
    b9f0:	f8d8 1008 	ldr.w	r1, [r8, #8]
    b9f4:	2201      	movs	r2, #1
    b9f6:	4620      	mov	r0, r4
    b9f8:	2300      	movs	r3, #0
    b9fa:	4311      	orrs	r1, r2
    b9fc:	f04f 0cf0 	mov.w	ip, #240	; 0xf0
    ba00:	f7fd fa0e 	bl	8e20 <__libc_do_syscall>
    ba04:	e7cc      	b.n	b9a0 <ptmalloc_unlock_all+0x68>
    ba06:	bf00      	nop
    ba08:	00067090 	.word	0x00067090
    ba0c:	00067c40 	.word	0x00067c40
    ba10:	0005b296 	.word	0x0005b296
    ba14:	000670a4 	.word	0x000670a4
    ba18:	00068108 	.word	0x00068108
    ba1c:	00068098 	.word	0x00068098

0000ba20 <malloc_printerr>:
    ba20:	f000 0305 	and.w	r3, r0, #5
    ba24:	2b05      	cmp	r3, #5
    ba26:	b5f0      	push	{r4, r5, r6, r7, lr}
    ba28:	4604      	mov	r4, r0
    ba2a:	b087      	sub	sp, #28
    ba2c:	460e      	mov	r6, r1
    ba2e:	d026      	beq.n	ba7e <malloc_printerr+0x5e>
    ba30:	07c1      	lsls	r1, r0, #31
    ba32:	d403      	bmi.n	ba3c <malloc_printerr+0x1c>
    ba34:	0783      	lsls	r3, r0, #30
    ba36:	d429      	bmi.n	ba8c <malloc_printerr+0x6c>
    ba38:	b007      	add	sp, #28
    ba3a:	bdf0      	pop	{r4, r5, r6, r7, pc}
    ba3c:	2700      	movs	r7, #0
    ba3e:	4610      	mov	r0, r2
    ba40:	a905      	add	r1, sp, #20
    ba42:	2210      	movs	r2, #16
    ba44:	463b      	mov	r3, r7
    ba46:	f88d 7014 	strb.w	r7, [sp, #20]
    ba4a:	f00a fe2f 	bl	166ac <_itoa_word>
    ba4e:	ad03      	add	r5, sp, #12
    ba50:	42a8      	cmp	r0, r5
    ba52:	4607      	mov	r7, r0
    ba54:	d904      	bls.n	ba60 <malloc_printerr+0x40>
    ba56:	2330      	movs	r3, #48	; 0x30
    ba58:	f807 3d01 	strb.w	r3, [r7, #-1]!
    ba5c:	42af      	cmp	r7, r5
    ba5e:	d1fb      	bne.n	ba58 <malloc_printerr+0x38>
    ba60:	4a0b      	ldr	r2, [pc, #44]	; (ba90 <malloc_printerr+0x70>)
    ba62:	f004 0002 	and.w	r0, r4, #2
    ba66:	4c0b      	ldr	r4, [pc, #44]	; (ba94 <malloc_printerr+0x74>)
    ba68:	4633      	mov	r3, r6
    ba6a:	490b      	ldr	r1, [pc, #44]	; (ba98 <malloc_printerr+0x78>)
    ba6c:	6812      	ldr	r2, [r2, #0]
    ba6e:	6812      	ldr	r2, [r2, #0]
    ba70:	9700      	str	r7, [sp, #0]
    ba72:	2a00      	cmp	r2, #0
    ba74:	bf08      	it	eq
    ba76:	4622      	moveq	r2, r4
    ba78:	f7fd fe16 	bl	96a8 <__libc_message>
    ba7c:	e7dc      	b.n	ba38 <malloc_printerr+0x18>
    ba7e:	f000 0002 	and.w	r0, r0, #2
    ba82:	4906      	ldr	r1, [pc, #24]	; (ba9c <malloc_printerr+0x7c>)
    ba84:	4632      	mov	r2, r6
    ba86:	f7fd fe0f 	bl	96a8 <__libc_message>
    ba8a:	e7d5      	b.n	ba38 <malloc_printerr+0x18>
    ba8c:	f7fd f9ec 	bl	8e68 <abort>
    ba90:	00068b80 	.word	0x00068b80
    ba94:	00048f44 	.word	0x00048f44
    ba98:	00048f50 	.word	0x00048f50
    ba9c:	0005d460 	.word	0x0005d460

0000baa0 <munmap_chunk>:
    baa0:	b570      	push	{r4, r5, r6, lr}
    baa2:	6844      	ldr	r4, [r0, #4]
    baa4:	07a5      	lsls	r5, r4, #30
    baa6:	d51c      	bpl.n	bae2 <munmap_chunk+0x42>
    baa8:	4b19      	ldr	r3, [pc, #100]	; (bb10 <munmap_chunk+0x70>)
    baaa:	f024 0407 	bic.w	r4, r4, #7
    baae:	6801      	ldr	r1, [r0, #0]
    bab0:	f8d3 647c 	ldr.w	r6, [r3, #1148]	; 0x47c
    bab4:	1a42      	subs	r2, r0, r1
    bab6:	1864      	adds	r4, r4, r1
    bab8:	ea42 0504 	orr.w	r5, r2, r4
    babc:	1e71      	subs	r1, r6, #1
    babe:	420d      	tst	r5, r1
    bac0:	d11d      	bne.n	bafe <munmap_chunk+0x5e>
    bac2:	f8d3 546c 	ldr.w	r5, [r3, #1132]	; 0x46c
    bac6:	4610      	mov	r0, r2
    bac8:	f8d3 2480 	ldr.w	r2, [r3, #1152]	; 0x480
    bacc:	4621      	mov	r1, r4
    bace:	3d01      	subs	r5, #1
    bad0:	f8c3 546c 	str.w	r5, [r3, #1132]	; 0x46c
    bad4:	1b14      	subs	r4, r2, r4
    bad6:	f8c3 4480 	str.w	r4, [r3, #1152]	; 0x480
    bada:	f005 ebfa 	blx	112d0 <__munmap>
    bade:	b938      	cbnz	r0, baf0 <munmap_chunk+0x50>
    bae0:	bd70      	pop	{r4, r5, r6, pc}
    bae2:	480c      	ldr	r0, [pc, #48]	; (bb14 <munmap_chunk+0x74>)
    bae4:	f640 52c5 	movw	r2, #3525	; 0xdc5
    bae8:	490b      	ldr	r1, [pc, #44]	; (bb18 <munmap_chunk+0x78>)
    baea:	4b0c      	ldr	r3, [pc, #48]	; (bb1c <munmap_chunk+0x7c>)
    baec:	f7ff fa7e 	bl	afec <__malloc_assert>
    baf0:	480b      	ldr	r0, [pc, #44]	; (bb20 <munmap_chunk+0x80>)
    baf2:	f640 52df 	movw	r2, #3551	; 0xddf
    baf6:	4908      	ldr	r1, [pc, #32]	; (bb18 <munmap_chunk+0x78>)
    baf8:	4b08      	ldr	r3, [pc, #32]	; (bb1c <munmap_chunk+0x7c>)
    bafa:	f7ff fa77 	bl	afec <__malloc_assert>
    bafe:	4b09      	ldr	r3, [pc, #36]	; (bb24 <munmap_chunk+0x84>)
    bb00:	f100 0208 	add.w	r2, r0, #8
    bb04:	4908      	ldr	r1, [pc, #32]	; (bb28 <munmap_chunk+0x88>)
    bb06:	6898      	ldr	r0, [r3, #8]
    bb08:	e8bd 4070 	ldmia.w	sp!, {r4, r5, r6, lr}
    bb0c:	f7ff bf88 	b.w	ba20 <malloc_printerr>
    bb10:	00067c40 	.word	0x00067c40
    bb14:	00048e78 	.word	0x00048e78
    bb18:	00048e8c 	.word	0x00048e8c
    bb1c:	0004a0e8 	.word	0x0004a0e8
    bb20:	00048f9c 	.word	0x00048f9c
    bb24:	00067090 	.word	0x00067090
    bb28:	00048f7c 	.word	0x00048f7c

0000bb2c <top_check>:
    bb2c:	e92d 41f0 	stmdb	sp!, {r4, r5, r6, r7, r8, lr}
    bb30:	f005 f878 	bl	10c24 <__getpagesize>
    bb34:	4c2e      	ldr	r4, [pc, #184]	; (bbf0 <top_check+0xc4>)
    bb36:	4623      	mov	r3, r4
    bb38:	f853 2f30 	ldr.w	r2, [r3, #48]!
    bb3c:	429a      	cmp	r2, r3
    bb3e:	4606      	mov	r6, r0
    bb40:	d04a      	beq.n	bbd8 <top_check+0xac>
    bb42:	6851      	ldr	r1, [r2, #4]
    bb44:	f011 0302 	ands.w	r3, r1, #2
    bb48:	d103      	bne.n	bb52 <top_check+0x26>
    bb4a:	f021 0007 	bic.w	r0, r1, #7
    bb4e:	280f      	cmp	r0, #15
    bb50:	d831      	bhi.n	bbb6 <top_check+0x8a>
    bb52:	4d28      	ldr	r5, [pc, #160]	; (bbf4 <top_check+0xc8>)
    bb54:	4928      	ldr	r1, [pc, #160]	; (bbf8 <top_check+0xcc>)
    bb56:	68a8      	ldr	r0, [r5, #8]
    bb58:	f7ff ff62 	bl	ba20 <malloc_printerr>
    bb5c:	686b      	ldr	r3, [r5, #4]
    bb5e:	2000      	movs	r0, #0
    bb60:	4798      	blx	r3
    bb62:	f8d4 2464 	ldr.w	r2, [r4, #1124]	; 0x464
    bb66:	686b      	ldr	r3, [r5, #4]
    bb68:	f010 0807 	ands.w	r8, r0, #7
    bb6c:	4607      	mov	r7, r0
    bb6e:	bf18      	it	ne
    bb70:	f1c8 0808 	rsbne	r8, r8, #8
    bb74:	3210      	adds	r2, #16
    bb76:	4442      	add	r2, r8
    bb78:	1e71      	subs	r1, r6, #1
    bb7a:	1880      	adds	r0, r0, r2
    bb7c:	1996      	adds	r6, r2, r6
    bb7e:	4001      	ands	r1, r0
    bb80:	1a76      	subs	r6, r6, r1
    bb82:	4630      	mov	r0, r6
    bb84:	4798      	blx	r3
    bb86:	4605      	mov	r5, r0
    bb88:	2800      	cmp	r0, #0
    bb8a:	d029      	beq.n	bbe0 <top_check+0xb4>
    bb8c:	4b1b      	ldr	r3, [pc, #108]	; (bbfc <top_check+0xd0>)
    bb8e:	681b      	ldr	r3, [r3, #0]
    bb90:	b103      	cbz	r3, bb94 <top_check+0x68>
    bb92:	4798      	blx	r3
    bb94:	f8d4 348c 	ldr.w	r3, [r4, #1164]	; 0x48c
    bb98:	4447      	add	r7, r8
    bb9a:	ebc8 0806 	rsb	r8, r8, r6
    bb9e:	6327      	str	r7, [r4, #48]	; 0x30
    bba0:	1aed      	subs	r5, r5, r3
    bba2:	2300      	movs	r3, #0
    bba4:	f048 0201 	orr.w	r2, r8, #1
    bba8:	1976      	adds	r6, r6, r5
    bbaa:	f8c4 6444 	str.w	r6, [r4, #1092]	; 0x444
    bbae:	607a      	str	r2, [r7, #4]
    bbb0:	4618      	mov	r0, r3
    bbb2:	e8bd 81f0 	ldmia.w	sp!, {r4, r5, r6, r7, r8, pc}
    bbb6:	07c9      	lsls	r1, r1, #31
    bbb8:	d5cb      	bpl.n	bb52 <top_check+0x26>
    bbba:	6861      	ldr	r1, [r4, #4]
    bbbc:	f011 0102 	ands.w	r1, r1, #2
    bbc0:	d1f6      	bne.n	bbb0 <top_check+0x84>
    bbc2:	f8d4 748c 	ldr.w	r7, [r4, #1164]	; 0x48c
    bbc6:	1810      	adds	r0, r2, r0
    bbc8:	f8d4 5444 	ldr.w	r5, [r4, #1092]	; 0x444
    bbcc:	197d      	adds	r5, r7, r5
    bbce:	42a8      	cmp	r0, r5
    bbd0:	bf08      	it	eq
    bbd2:	460b      	moveq	r3, r1
    bbd4:	d1bd      	bne.n	bb52 <top_check+0x26>
    bbd6:	e7eb      	b.n	bbb0 <top_check+0x84>
    bbd8:	2300      	movs	r3, #0
    bbda:	4618      	mov	r0, r3
    bbdc:	e8bd 81f0 	ldmia.w	sp!, {r4, r5, r6, r7, r8, pc}
    bbe0:	f7fd f926 	bl	8e30 <__errno_location>
    bbe4:	220c      	movs	r2, #12
    bbe6:	f04f 33ff 	mov.w	r3, #4294967295	; 0xffffffff
    bbea:	6002      	str	r2, [r0, #0]
    bbec:	e7e0      	b.n	bbb0 <top_check+0x84>
    bbee:	bf00      	nop
    bbf0:	00067c40 	.word	0x00067c40
    bbf4:	00067090 	.word	0x00067090
    bbf8:	00048fa8 	.word	0x00048fa8
    bbfc:	00068104 	.word	0x00068104

0000bc00 <malloc_consolidate>:
    bc00:	4b84      	ldr	r3, [pc, #528]	; (be14 <malloc_consolidate+0x214>)
    bc02:	f06f 0107 	mvn.w	r1, #7
    bc06:	e92d 4ff0 	stmdb	sp!, {r4, r5, r6, r7, r8, r9, sl, fp, lr}
    bc0a:	4607      	mov	r7, r0
    bc0c:	f8d3 2494 	ldr.w	r2, [r3, #1172]	; 0x494
    bc10:	b087      	sub	sp, #28
    bc12:	f100 0038 	add.w	r0, r0, #56	; 0x38
    bc16:	2a00      	cmp	r2, #0
    bc18:	d062      	beq.n	bce0 <malloc_consolidate+0xe0>
    bc1a:	687b      	ldr	r3, [r7, #4]
    bc1c:	f107 0b30 	add.w	fp, r7, #48	; 0x30
    bc20:	f107 0c04 	add.w	ip, r7, #4
    bc24:	f04f 0a00 	mov.w	sl, #0
    bc28:	46b8      	mov	r8, r7
    bc2a:	f107 002c 	add.w	r0, r7, #44	; 0x2c
    bc2e:	f043 0301 	orr.w	r3, r3, #1
    bc32:	9004      	str	r0, [sp, #16]
    bc34:	607b      	str	r3, [r7, #4]
    bc36:	f85c 4f04 	ldr.w	r4, [ip, #4]!
    bc3a:	2c00      	cmp	r4, #0
    bc3c:	d06b      	beq.n	bd16 <malloc_consolidate+0x116>
    bc3e:	f240 19ff 	movw	r9, #511	; 0x1ff
    bc42:	f8cc a000 	str.w	sl, [ip]
    bc46:	6862      	ldr	r2, [r4, #4]
    bc48:	68a7      	ldr	r7, [r4, #8]
    bc4a:	f022 0505 	bic.w	r5, r2, #5
    bc4e:	07d2      	lsls	r2, r2, #31
    bc50:	eb04 0605 	add.w	r6, r4, r5
    bc54:	6873      	ldr	r3, [r6, #4]
    bc56:	d412      	bmi.n	bc7e <malloc_consolidate+0x7e>
    bc58:	6822      	ldr	r2, [r4, #0]
    bc5a:	1aa4      	subs	r4, r4, r2
    bc5c:	18ad      	adds	r5, r5, r2
    bc5e:	68a2      	ldr	r2, [r4, #8]
    bc60:	68e1      	ldr	r1, [r4, #12]
    bc62:	68d0      	ldr	r0, [r2, #12]
    bc64:	4284      	cmp	r4, r0
    bc66:	d165      	bne.n	bd34 <malloc_consolidate+0x134>
    bc68:	6888      	ldr	r0, [r1, #8]
    bc6a:	4284      	cmp	r4, r0
    bc6c:	d162      	bne.n	bd34 <malloc_consolidate+0x134>
    bc6e:	6860      	ldr	r0, [r4, #4]
    bc70:	60d1      	str	r1, [r2, #12]
    bc72:	4548      	cmp	r0, r9
    bc74:	608a      	str	r2, [r1, #8]
    bc76:	d902      	bls.n	bc7e <malloc_consolidate+0x7e>
    bc78:	6921      	ldr	r1, [r4, #16]
    bc7a:	2900      	cmp	r1, #0
    bc7c:	d178      	bne.n	bd70 <malloc_consolidate+0x170>
    bc7e:	f8d8 2030 	ldr.w	r2, [r8, #48]	; 0x30
    bc82:	f023 0307 	bic.w	r3, r3, #7
    bc86:	4296      	cmp	r6, r2
    bc88:	d049      	beq.n	bd1e <malloc_consolidate+0x11e>
    bc8a:	18f2      	adds	r2, r6, r3
    bc8c:	6852      	ldr	r2, [r2, #4]
    bc8e:	07d0      	lsls	r0, r2, #31
    bc90:	d43c      	bmi.n	bd0c <malloc_consolidate+0x10c>
    bc92:	68b2      	ldr	r2, [r6, #8]
    bc94:	18ed      	adds	r5, r5, r3
    bc96:	68f3      	ldr	r3, [r6, #12]
    bc98:	68d1      	ldr	r1, [r2, #12]
    bc9a:	428e      	cmp	r6, r1
    bc9c:	d15a      	bne.n	bd54 <malloc_consolidate+0x154>
    bc9e:	6899      	ldr	r1, [r3, #8]
    bca0:	428e      	cmp	r6, r1
    bca2:	d157      	bne.n	bd54 <malloc_consolidate+0x154>
    bca4:	6871      	ldr	r1, [r6, #4]
    bca6:	60d3      	str	r3, [r2, #12]
    bca8:	4549      	cmp	r1, r9
    bcaa:	609a      	str	r2, [r3, #8]
    bcac:	d902      	bls.n	bcb4 <malloc_consolidate+0xb4>
    bcae:	6933      	ldr	r3, [r6, #16]
    bcb0:	2b00      	cmp	r3, #0
    bcb2:	d16c      	bne.n	bd8e <malloc_consolidate+0x18e>
    bcb4:	f8d8 3038 	ldr.w	r3, [r8, #56]	; 0x38
    bcb8:	454d      	cmp	r5, r9
    bcba:	f8c8 4038 	str.w	r4, [r8, #56]	; 0x38
    bcbe:	f045 0201 	orr.w	r2, r5, #1
    bcc2:	bf88      	it	hi
    bcc4:	f8c4 a010 	strhi.w	sl, [r4, #16]
    bcc8:	60dc      	str	r4, [r3, #12]
    bcca:	bf88      	it	hi
    bccc:	f8c4 a014 	strhi.w	sl, [r4, #20]
    bcd0:	f8c4 b00c 	str.w	fp, [r4, #12]
    bcd4:	6062      	str	r2, [r4, #4]
    bcd6:	60a3      	str	r3, [r4, #8]
    bcd8:	5165      	str	r5, [r4, r5]
    bcda:	b1e7      	cbz	r7, bd16 <malloc_consolidate+0x116>
    bcdc:	463c      	mov	r4, r7
    bcde:	e7b2      	b.n	bc46 <malloc_consolidate+0x46>
    bce0:	1842      	adds	r2, r0, r1
    bce2:	3108      	adds	r1, #8
    bce4:	f5b1 7f7c 	cmp.w	r1, #1008	; 0x3f0
    bce8:	60d2      	str	r2, [r2, #12]
    bcea:	6092      	str	r2, [r2, #8]
    bcec:	d1f8      	bne.n	bce0 <malloc_consolidate+0xe0>
    bcee:	687a      	ldr	r2, [r7, #4]
    bcf0:	429f      	cmp	r7, r3
    bcf2:	bf18      	it	ne
    bcf4:	f042 0202 	orrne.w	r2, r2, #2
    bcf8:	d018      	beq.n	bd2c <malloc_consolidate+0x12c>
    bcfa:	f042 0201 	orr.w	r2, r2, #1
    bcfe:	f107 0330 	add.w	r3, r7, #48	; 0x30
    bd02:	607a      	str	r2, [r7, #4]
    bd04:	633b      	str	r3, [r7, #48]	; 0x30
    bd06:	b007      	add	sp, #28
    bd08:	e8bd 8ff0 	ldmia.w	sp!, {r4, r5, r6, r7, r8, r9, sl, fp, pc}
    bd0c:	6873      	ldr	r3, [r6, #4]
    bd0e:	f023 0301 	bic.w	r3, r3, #1
    bd12:	6073      	str	r3, [r6, #4]
    bd14:	e7ce      	b.n	bcb4 <malloc_consolidate+0xb4>
    bd16:	9b04      	ldr	r3, [sp, #16]
    bd18:	459c      	cmp	ip, r3
    bd1a:	d18c      	bne.n	bc36 <malloc_consolidate+0x36>
    bd1c:	e7f3      	b.n	bd06 <malloc_consolidate+0x106>
    bd1e:	18eb      	adds	r3, r5, r3
    bd20:	f043 0301 	orr.w	r3, r3, #1
    bd24:	6063      	str	r3, [r4, #4]
    bd26:	f8c8 4030 	str.w	r4, [r8, #48]	; 0x30
    bd2a:	e7d6      	b.n	bcda <malloc_consolidate+0xda>
    bd2c:	2340      	movs	r3, #64	; 0x40
    bd2e:	f8c7 3494 	str.w	r3, [r7, #1172]	; 0x494
    bd32:	e7e2      	b.n	bcfa <malloc_consolidate+0xfa>
    bd34:	f247 0290 	movw	r2, #28816	; 0x7090
    bd38:	f2c0 0206 	movt	r2, #6
    bd3c:	4936      	ldr	r1, [pc, #216]	; (be18 <malloc_consolidate+0x218>)
    bd3e:	6890      	ldr	r0, [r2, #8]
    bd40:	4622      	mov	r2, r4
    bd42:	9303      	str	r3, [sp, #12]
    bd44:	f8cd c008 	str.w	ip, [sp, #8]
    bd48:	f7ff fe6a 	bl	ba20 <malloc_printerr>
    bd4c:	9b03      	ldr	r3, [sp, #12]
    bd4e:	f8dd c008 	ldr.w	ip, [sp, #8]
